ARM GAS  C:\Users\SHOZOK~1\AppData\Local\Temp\cc5HTLHa.s 			page 1


   1              		.cpu cortex-m0
   2              		.fpu softvfp
   3              		.eabi_attribute 20, 1
   4              		.eabi_attribute 21, 1
   5              		.eabi_attribute 23, 3
   6              		.eabi_attribute 24, 1
   7              		.eabi_attribute 25, 1
   8              		.eabi_attribute 26, 1
   9              		.eabi_attribute 30, 1
  10              		.eabi_attribute 34, 0
  11              		.eabi_attribute 18, 4
  12              		.code	16
  13              		.file	"CapSense.c"
  14              		.text
  15              	.Ltext0:
  16              		.cfi_sections	.debug_frame
  17              		.section	.text.CapSense_CsdHwBlockInit,"ax",%progbits
  18              		.align	2
  19              		.global	CapSense_CsdHwBlockInit
  20              		.code	16
  21              		.thumb_func
  22              		.type	CapSense_CsdHwBlockInit, %function
  23              	CapSense_CsdHwBlockInit:
  24              	.LFB34:
  25              		.file 1 ".\\Generated_Source\\PSoC4\\CapSense.c"
   1:.\Generated_Source\PSoC4/CapSense.c **** /*******************************************************************************
   2:.\Generated_Source\PSoC4/CapSense.c **** * File Name: CapSense.c
   3:.\Generated_Source\PSoC4/CapSense.c **** * Version 2.30
   4:.\Generated_Source\PSoC4/CapSense.c **** *
   5:.\Generated_Source\PSoC4/CapSense.c **** * Description:
   6:.\Generated_Source\PSoC4/CapSense.c **** *  This file provides the source code for scanning APIs for the CapSense CSD
   7:.\Generated_Source\PSoC4/CapSense.c **** *  component.
   8:.\Generated_Source\PSoC4/CapSense.c **** *
   9:.\Generated_Source\PSoC4/CapSense.c **** * Note:
  10:.\Generated_Source\PSoC4/CapSense.c **** *
  11:.\Generated_Source\PSoC4/CapSense.c **** ********************************************************************************
  12:.\Generated_Source\PSoC4/CapSense.c **** * Copyright 2013-2015, Cypress Semiconductor Corporation.  All rights reserved.
  13:.\Generated_Source\PSoC4/CapSense.c **** * You may use this file only in accordance with the license, terms, conditions,
  14:.\Generated_Source\PSoC4/CapSense.c **** * disclaimers, and limitations in the end user license agreement accompanying
  15:.\Generated_Source\PSoC4/CapSense.c **** * the software package with which this file was provided.
  16:.\Generated_Source\PSoC4/CapSense.c **** *******************************************************************************/
  17:.\Generated_Source\PSoC4/CapSense.c **** 
  18:.\Generated_Source\PSoC4/CapSense.c **** #include "CapSense.h"
  19:.\Generated_Source\PSoC4/CapSense.c **** #include "CapSense_PVT.h"
  20:.\Generated_Source\PSoC4/CapSense.c **** #include "cypins.h"
  21:.\Generated_Source\PSoC4/CapSense.c **** #include "cyapicallbacks.h"
  22:.\Generated_Source\PSoC4/CapSense.c **** 
  23:.\Generated_Source\PSoC4/CapSense.c **** #if(0u != CapSense_CSHL_API_GENERATE)
  24:.\Generated_Source\PSoC4/CapSense.c ****     #include "CapSense_CSHL.h"
  25:.\Generated_Source\PSoC4/CapSense.c **** #endif /* (0u != CapSense_CSHL_API_GENERATE) */
  26:.\Generated_Source\PSoC4/CapSense.c **** 
  27:.\Generated_Source\PSoC4/CapSense.c **** /* This definition is intended to prevent unexpected linker error.
  28:.\Generated_Source\PSoC4/CapSense.c ****    For more details please see the IAR Technical Note 49981 */
  29:.\Generated_Source\PSoC4/CapSense.c **** #if defined(__ICCARM__)
  30:.\Generated_Source\PSoC4/CapSense.c ****     extern void CapSense_EnableSensor(uint32 sensor);
  31:.\Generated_Source\PSoC4/CapSense.c ****     extern void CapSense_DisableSensor(uint32 sensor);
  32:.\Generated_Source\PSoC4/CapSense.c **** #endif /* (__ICCARM__) */
ARM GAS  C:\Users\SHOZOK~1\AppData\Local\Temp\cc5HTLHa.s 			page 2


  33:.\Generated_Source\PSoC4/CapSense.c **** 
  34:.\Generated_Source\PSoC4/CapSense.c **** /* SmartSense functions */
  35:.\Generated_Source\PSoC4/CapSense.c **** #if (CapSense_TUNING_METHOD == CapSense__TUNING_AUTO)
  36:.\Generated_Source\PSoC4/CapSense.c ****     uint8 CapSense_lowLevelTuningDone = 0u;
  37:.\Generated_Source\PSoC4/CapSense.c ****     uint8 CapSense_scanSpeedTbl[((CapSense_TOTAL_SENSOR_COUNT - 1u) / 8u) + 1u];
  38:.\Generated_Source\PSoC4/CapSense.c **** #endif /* (CapSense_TUNING_METHOD == CapSense__TUNING_AUTO) */
  39:.\Generated_Source\PSoC4/CapSense.c **** 
  40:.\Generated_Source\PSoC4/CapSense.c **** #if(CapSense_PRS_OPTIONS != CapSense__PRS_NONE)
  41:.\Generated_Source\PSoC4/CapSense.c ****     uint8 CapSense_prescalersTuningDone = 0u;
  42:.\Generated_Source\PSoC4/CapSense.c **** #endif /* (CapSense_PRS_OPTIONS == CapSense__PRS_NONE) */
  43:.\Generated_Source\PSoC4/CapSense.c **** 
  44:.\Generated_Source\PSoC4/CapSense.c **** /* Global software variables */
  45:.\Generated_Source\PSoC4/CapSense.c **** volatile uint8 CapSense_csdStatusVar = 0u;   /* CapSense CSD status, variable */
  46:.\Generated_Source\PSoC4/CapSense.c **** volatile uint8 CapSense_sensorIndex = 0u;    /* Index of scannig sensor */
  47:.\Generated_Source\PSoC4/CapSense.c **** 
  48:.\Generated_Source\PSoC4/CapSense.c **** /* Global array of Raw Counts */
  49:.\Generated_Source\PSoC4/CapSense.c **** uint16 CapSense_sensorRaw[CapSense_TOTAL_SENSOR_COUNT] = {0u};
  50:.\Generated_Source\PSoC4/CapSense.c **** 
  51:.\Generated_Source\PSoC4/CapSense.c **** /* Backup variables for trim registers*/
  52:.\Generated_Source\PSoC4/CapSense.c **** #if (CapSense_IDAC1_POLARITY == CapSense__IDAC_SINK)
  53:.\Generated_Source\PSoC4/CapSense.c ****     uint8 CapSense_csdTrim2;
  54:.\Generated_Source\PSoC4/CapSense.c **** #else
  55:.\Generated_Source\PSoC4/CapSense.c ****     uint8 CapSense_csdTrim1;
  56:.\Generated_Source\PSoC4/CapSense.c **** #endif /* (CapSense_IDAC1_POLARITY == CapSense__IDAC_SINK) */
  57:.\Generated_Source\PSoC4/CapSense.c **** 
  58:.\Generated_Source\PSoC4/CapSense.c **** /* Global array of un-scanned sensors state */
  59:.\Generated_Source\PSoC4/CapSense.c **** uint8 CapSense_unscannedSnsDriveMode[CapSense_TOTAL_SENSOR_COUNT];
  60:.\Generated_Source\PSoC4/CapSense.c **** 
  61:.\Generated_Source\PSoC4/CapSense.c **** /* Backup array for CapSense_sensorEnableMask */
  62:.\Generated_Source\PSoC4/CapSense.c **** uint8 CapSense_sensorEnableMaskBackup[(((CapSense_TOTAL_SENSOR_COUNT - 1u) / 8u) + 1u)];
  63:.\Generated_Source\PSoC4/CapSense.c **** 
  64:.\Generated_Source\PSoC4/CapSense.c **** /* Configured constants and arrays by Customizer */
  65:.\Generated_Source\PSoC4/CapSense.c **** uint8 CapSense_sensorEnableMask[(((CapSense_TOTAL_SENSOR_COUNT - 1u) / 8u) + 1u)] = {
  66:.\Generated_Source\PSoC4/CapSense.c **** 0xFFu, 0x1Fu, };
  67:.\Generated_Source\PSoC4/CapSense.c **** 
  68:.\Generated_Source\PSoC4/CapSense.c **** reg32 * CapSense_pcTable[] = {
  69:.\Generated_Source\PSoC4/CapSense.c ****     (reg32 *)CapSense_Sns__Button0__BTN__PC, 
  70:.\Generated_Source\PSoC4/CapSense.c ****     (reg32 *)CapSense_Sns__Button1__BTN__PC, 
  71:.\Generated_Source\PSoC4/CapSense.c ****     (reg32 *)CapSense_Sns__Button2__BTN__PC, 
  72:.\Generated_Source\PSoC4/CapSense.c ****     (reg32 *)CapSense_Sns__Button3__BTN__PC, 
  73:.\Generated_Source\PSoC4/CapSense.c ****     (reg32 *)CapSense_Sns__Button4__BTN__PC, 
  74:.\Generated_Source\PSoC4/CapSense.c ****     (reg32 *)CapSense_Sns__Button5__BTN__PC, 
  75:.\Generated_Source\PSoC4/CapSense.c ****     (reg32 *)CapSense_Sns__Button6__BTN__PC, 
  76:.\Generated_Source\PSoC4/CapSense.c ****     (reg32 *)CapSense_Sns__Button7__BTN__PC, 
  77:.\Generated_Source\PSoC4/CapSense.c ****     (reg32 *)CapSense_Sns__Button8__BTN__PC, 
  78:.\Generated_Source\PSoC4/CapSense.c ****     (reg32 *)CapSense_Sns__Button9__BTN__PC, 
  79:.\Generated_Source\PSoC4/CapSense.c ****     (reg32 *)CapSense_Sns__Button10__BTN__PC, 
  80:.\Generated_Source\PSoC4/CapSense.c ****     (reg32 *)CapSense_Sns__Button11__BTN__PC, 
  81:.\Generated_Source\PSoC4/CapSense.c ****     (reg32 *)CapSense_Sns__Button12__BTN__PC, 
  82:.\Generated_Source\PSoC4/CapSense.c **** };
  83:.\Generated_Source\PSoC4/CapSense.c **** 
  84:.\Generated_Source\PSoC4/CapSense.c **** const uint8 CapSense_portTable[] = {
  85:.\Generated_Source\PSoC4/CapSense.c ****     CapSense_Sns__Button0__BTN__PORT, 
  86:.\Generated_Source\PSoC4/CapSense.c ****     CapSense_Sns__Button1__BTN__PORT, 
  87:.\Generated_Source\PSoC4/CapSense.c ****     CapSense_Sns__Button2__BTN__PORT, 
  88:.\Generated_Source\PSoC4/CapSense.c ****     CapSense_Sns__Button3__BTN__PORT, 
  89:.\Generated_Source\PSoC4/CapSense.c ****     CapSense_Sns__Button4__BTN__PORT, 
ARM GAS  C:\Users\SHOZOK~1\AppData\Local\Temp\cc5HTLHa.s 			page 3


  90:.\Generated_Source\PSoC4/CapSense.c ****     CapSense_Sns__Button5__BTN__PORT, 
  91:.\Generated_Source\PSoC4/CapSense.c ****     CapSense_Sns__Button6__BTN__PORT, 
  92:.\Generated_Source\PSoC4/CapSense.c ****     CapSense_Sns__Button7__BTN__PORT, 
  93:.\Generated_Source\PSoC4/CapSense.c ****     CapSense_Sns__Button8__BTN__PORT, 
  94:.\Generated_Source\PSoC4/CapSense.c ****     CapSense_Sns__Button9__BTN__PORT, 
  95:.\Generated_Source\PSoC4/CapSense.c ****     CapSense_Sns__Button10__BTN__PORT, 
  96:.\Generated_Source\PSoC4/CapSense.c ****     CapSense_Sns__Button11__BTN__PORT, 
  97:.\Generated_Source\PSoC4/CapSense.c ****     CapSense_Sns__Button12__BTN__PORT, 
  98:.\Generated_Source\PSoC4/CapSense.c **** };
  99:.\Generated_Source\PSoC4/CapSense.c **** 
 100:.\Generated_Source\PSoC4/CapSense.c **** const uint32 CapSense_maskTable[] = {
 101:.\Generated_Source\PSoC4/CapSense.c ****     CapSense_Sns__Button0__BTN__MASK, 
 102:.\Generated_Source\PSoC4/CapSense.c ****     CapSense_Sns__Button1__BTN__MASK, 
 103:.\Generated_Source\PSoC4/CapSense.c ****     CapSense_Sns__Button2__BTN__MASK, 
 104:.\Generated_Source\PSoC4/CapSense.c ****     CapSense_Sns__Button3__BTN__MASK, 
 105:.\Generated_Source\PSoC4/CapSense.c ****     CapSense_Sns__Button4__BTN__MASK, 
 106:.\Generated_Source\PSoC4/CapSense.c ****     CapSense_Sns__Button5__BTN__MASK, 
 107:.\Generated_Source\PSoC4/CapSense.c ****     CapSense_Sns__Button6__BTN__MASK, 
 108:.\Generated_Source\PSoC4/CapSense.c ****     CapSense_Sns__Button7__BTN__MASK, 
 109:.\Generated_Source\PSoC4/CapSense.c ****     CapSense_Sns__Button8__BTN__MASK, 
 110:.\Generated_Source\PSoC4/CapSense.c ****     CapSense_Sns__Button9__BTN__MASK, 
 111:.\Generated_Source\PSoC4/CapSense.c ****     CapSense_Sns__Button10__BTN__MASK, 
 112:.\Generated_Source\PSoC4/CapSense.c ****     CapSense_Sns__Button11__BTN__MASK, 
 113:.\Generated_Source\PSoC4/CapSense.c ****     CapSense_Sns__Button12__BTN__MASK, 
 114:.\Generated_Source\PSoC4/CapSense.c **** };
 115:.\Generated_Source\PSoC4/CapSense.c **** 
 116:.\Generated_Source\PSoC4/CapSense.c **** const uint8 CapSense_pinShiftTbl[] = {
 117:.\Generated_Source\PSoC4/CapSense.c ****     (uint8) CapSense_Sns__Button0__BTN__SHIFT, 
 118:.\Generated_Source\PSoC4/CapSense.c ****     (uint8) CapSense_Sns__Button1__BTN__SHIFT, 
 119:.\Generated_Source\PSoC4/CapSense.c ****     (uint8) CapSense_Sns__Button2__BTN__SHIFT, 
 120:.\Generated_Source\PSoC4/CapSense.c ****     (uint8) CapSense_Sns__Button3__BTN__SHIFT, 
 121:.\Generated_Source\PSoC4/CapSense.c ****     (uint8) CapSense_Sns__Button4__BTN__SHIFT, 
 122:.\Generated_Source\PSoC4/CapSense.c ****     (uint8) CapSense_Sns__Button5__BTN__SHIFT, 
 123:.\Generated_Source\PSoC4/CapSense.c ****     (uint8) CapSense_Sns__Button6__BTN__SHIFT, 
 124:.\Generated_Source\PSoC4/CapSense.c ****     (uint8) CapSense_Sns__Button7__BTN__SHIFT, 
 125:.\Generated_Source\PSoC4/CapSense.c ****     (uint8) CapSense_Sns__Button8__BTN__SHIFT, 
 126:.\Generated_Source\PSoC4/CapSense.c ****     (uint8) CapSense_Sns__Button9__BTN__SHIFT, 
 127:.\Generated_Source\PSoC4/CapSense.c ****     (uint8) CapSense_Sns__Button10__BTN__SHIFT, 
 128:.\Generated_Source\PSoC4/CapSense.c ****     (uint8) CapSense_Sns__Button11__BTN__SHIFT, 
 129:.\Generated_Source\PSoC4/CapSense.c ****     (uint8) CapSense_Sns__Button12__BTN__SHIFT, 
 130:.\Generated_Source\PSoC4/CapSense.c **** };
 131:.\Generated_Source\PSoC4/CapSense.c **** 
 132:.\Generated_Source\PSoC4/CapSense.c **** uint8 CapSense_modulationIDAC[CapSense_TOTAL_SENSOR_COUNT];
 133:.\Generated_Source\PSoC4/CapSense.c **** uint8 CapSense_compensationIDAC[CapSense_TOTAL_SENSOR_COUNT];
 134:.\Generated_Source\PSoC4/CapSense.c **** 
 135:.\Generated_Source\PSoC4/CapSense.c **** uint32 CapSense_widgetResolution[CapSense_RESOLUTIONS_TBL_SIZE] = {
 136:.\Generated_Source\PSoC4/CapSense.c ****     CapSense_RESOLUTION_12_BITS,
 137:.\Generated_Source\PSoC4/CapSense.c ****     CapSense_RESOLUTION_12_BITS,
 138:.\Generated_Source\PSoC4/CapSense.c ****     CapSense_RESOLUTION_12_BITS,
 139:.\Generated_Source\PSoC4/CapSense.c ****     CapSense_RESOLUTION_12_BITS,
 140:.\Generated_Source\PSoC4/CapSense.c ****     CapSense_RESOLUTION_12_BITS,
 141:.\Generated_Source\PSoC4/CapSense.c ****     CapSense_RESOLUTION_12_BITS,
 142:.\Generated_Source\PSoC4/CapSense.c ****     CapSense_RESOLUTION_12_BITS,
 143:.\Generated_Source\PSoC4/CapSense.c ****     CapSense_RESOLUTION_12_BITS,
 144:.\Generated_Source\PSoC4/CapSense.c ****     CapSense_RESOLUTION_12_BITS,
 145:.\Generated_Source\PSoC4/CapSense.c ****     CapSense_RESOLUTION_12_BITS,
 146:.\Generated_Source\PSoC4/CapSense.c ****     CapSense_RESOLUTION_12_BITS,
ARM GAS  C:\Users\SHOZOK~1\AppData\Local\Temp\cc5HTLHa.s 			page 4


 147:.\Generated_Source\PSoC4/CapSense.c ****     CapSense_RESOLUTION_12_BITS,
 148:.\Generated_Source\PSoC4/CapSense.c ****     CapSense_RESOLUTION_12_BITS,
 149:.\Generated_Source\PSoC4/CapSense.c **** };
 150:.\Generated_Source\PSoC4/CapSense.c **** 
 151:.\Generated_Source\PSoC4/CapSense.c **** uint8 CapSense_senseClkDividerVal[CapSense_TOTAL_SCANSLOT_COUNT];
 152:.\Generated_Source\PSoC4/CapSense.c **** uint8 CapSense_sampleClkDividerVal[CapSense_TOTAL_SCANSLOT_COUNT];
 153:.\Generated_Source\PSoC4/CapSense.c **** 
 154:.\Generated_Source\PSoC4/CapSense.c **** const uint8 CapSense_widgetNumber[CapSense_TOTAL_SENSOR_COUNT] = {
 155:.\Generated_Source\PSoC4/CapSense.c ****     0u, /* Button0__BTN */
 156:.\Generated_Source\PSoC4/CapSense.c ****     1u, /* Button1__BTN */
 157:.\Generated_Source\PSoC4/CapSense.c ****     2u, /* Button2__BTN */
 158:.\Generated_Source\PSoC4/CapSense.c ****     3u, /* Button3__BTN */
 159:.\Generated_Source\PSoC4/CapSense.c ****     4u, /* Button4__BTN */
 160:.\Generated_Source\PSoC4/CapSense.c ****     5u, /* Button5__BTN */
 161:.\Generated_Source\PSoC4/CapSense.c ****     6u, /* Button6__BTN */
 162:.\Generated_Source\PSoC4/CapSense.c ****     7u, /* Button7__BTN */
 163:.\Generated_Source\PSoC4/CapSense.c ****     8u, /* Button8__BTN */
 164:.\Generated_Source\PSoC4/CapSense.c ****     9u, /* Button9__BTN */
 165:.\Generated_Source\PSoC4/CapSense.c ****     10u, /* Button10__BTN */
 166:.\Generated_Source\PSoC4/CapSense.c ****     11u, /* Button11__BTN */
 167:.\Generated_Source\PSoC4/CapSense.c ****     12u, /* Button12__BTN */
 168:.\Generated_Source\PSoC4/CapSense.c **** };
 169:.\Generated_Source\PSoC4/CapSense.c **** 
 170:.\Generated_Source\PSoC4/CapSense.c **** reg32* const CapSense_prtSelTbl[CapSense_CFG_REG_TBL_SIZE] = {
 171:.\Generated_Source\PSoC4/CapSense.c ****     ((reg32 *) CYREG_HSIOM_PORT_SEL0),
 172:.\Generated_Source\PSoC4/CapSense.c ****     ((reg32 *) CYREG_HSIOM_PORT_SEL1),
 173:.\Generated_Source\PSoC4/CapSense.c ****     ((reg32 *) CYREG_HSIOM_PORT_SEL2),
 174:.\Generated_Source\PSoC4/CapSense.c ****     ((reg32 *) CYREG_HSIOM_PORT_SEL3),
 175:.\Generated_Source\PSoC4/CapSense.c ****     ((reg32 *) CYREG_HSIOM_PORT_SEL4),
 176:.\Generated_Source\PSoC4/CapSense.c **** };
 177:.\Generated_Source\PSoC4/CapSense.c **** 
 178:.\Generated_Source\PSoC4/CapSense.c **** reg32* const CapSense_prtCfgTbl[CapSense_CFG_REG_TBL_SIZE] = {
 179:.\Generated_Source\PSoC4/CapSense.c ****     ((reg32 *) CYREG_PRT0_PC),
 180:.\Generated_Source\PSoC4/CapSense.c ****     ((reg32 *) CYREG_PRT1_PC),
 181:.\Generated_Source\PSoC4/CapSense.c ****     ((reg32 *) CYREG_PRT2_PC),
 182:.\Generated_Source\PSoC4/CapSense.c ****     ((reg32 *) CYREG_PRT3_PC),
 183:.\Generated_Source\PSoC4/CapSense.c ****     ((reg32 *) CYREG_PRT4_PC),
 184:.\Generated_Source\PSoC4/CapSense.c **** };
 185:.\Generated_Source\PSoC4/CapSense.c **** 
 186:.\Generated_Source\PSoC4/CapSense.c **** reg32* const CapSense_prtDRTbl[CapSense_CFG_REG_TBL_SIZE] = {
 187:.\Generated_Source\PSoC4/CapSense.c ****     ((reg32 *) CYREG_PRT0_DR),
 188:.\Generated_Source\PSoC4/CapSense.c ****     ((reg32 *) CYREG_PRT1_DR),
 189:.\Generated_Source\PSoC4/CapSense.c ****     ((reg32 *) CYREG_PRT2_DR),
 190:.\Generated_Source\PSoC4/CapSense.c ****     ((reg32 *) CYREG_PRT3_DR),
 191:.\Generated_Source\PSoC4/CapSense.c ****     ((reg32 *) CYREG_PRT4_DR),
 192:.\Generated_Source\PSoC4/CapSense.c **** };
 193:.\Generated_Source\PSoC4/CapSense.c **** 
 194:.\Generated_Source\PSoC4/CapSense.c **** 
 195:.\Generated_Source\PSoC4/CapSense.c **** 
 196:.\Generated_Source\PSoC4/CapSense.c **** /*******************************************************************************
 197:.\Generated_Source\PSoC4/CapSense.c **** * Function Name: CapSense_Init
 198:.\Generated_Source\PSoC4/CapSense.c **** ********************************************************************************
 199:.\Generated_Source\PSoC4/CapSense.c **** *
 200:.\Generated_Source\PSoC4/CapSense.c **** * Summary:
 201:.\Generated_Source\PSoC4/CapSense.c **** *  API initializes default CapSense configuration provided by the customizer that defines
 202:.\Generated_Source\PSoC4/CapSense.c **** *  the mode of component operations and resets all the sensors to an inactive state.
 203:.\Generated_Source\PSoC4/CapSense.c **** *
ARM GAS  C:\Users\SHOZOK~1\AppData\Local\Temp\cc5HTLHa.s 			page 5


 204:.\Generated_Source\PSoC4/CapSense.c **** * Parameters:
 205:.\Generated_Source\PSoC4/CapSense.c **** *  None
 206:.\Generated_Source\PSoC4/CapSense.c **** *
 207:.\Generated_Source\PSoC4/CapSense.c **** * Return:
 208:.\Generated_Source\PSoC4/CapSense.c **** *  None
 209:.\Generated_Source\PSoC4/CapSense.c **** *
 210:.\Generated_Source\PSoC4/CapSense.c **** * Global Variables:
 211:.\Generated_Source\PSoC4/CapSense.c **** *  CapSense_immunityIndex - defines immunity level.
 212:.\Generated_Source\PSoC4/CapSense.c **** *
 213:.\Generated_Source\PSoC4/CapSense.c **** * Side Effects:
 214:.\Generated_Source\PSoC4/CapSense.c **** *  None
 215:.\Generated_Source\PSoC4/CapSense.c **** *
 216:.\Generated_Source\PSoC4/CapSense.c **** *******************************************************************************/
 217:.\Generated_Source\PSoC4/CapSense.c **** void CapSense_Init(void)
 218:.\Generated_Source\PSoC4/CapSense.c **** {
 219:.\Generated_Source\PSoC4/CapSense.c ****     uint32 curSensor;
 220:.\Generated_Source\PSoC4/CapSense.c **** 
 221:.\Generated_Source\PSoC4/CapSense.c ****     #if(CapSense_IS_SHIELD_ENABLE)
 222:.\Generated_Source\PSoC4/CapSense.c **** 
 223:.\Generated_Source\PSoC4/CapSense.c ****         #if((CapSense_CSH_TANK_PREGARGE_OPTION == CapSense__CAPPRIOBUF) || (0u != CapSense_CSH_TANK
 224:.\Generated_Source\PSoC4/CapSense.c ****             uint32 newRegValue;
 225:.\Generated_Source\PSoC4/CapSense.c **** 
 226:.\Generated_Source\PSoC4/CapSense.c ****             newRegValue = CapSense_CTANK_CONNECTION_REG;
 227:.\Generated_Source\PSoC4/CapSense.c ****             newRegValue &= ~(CapSense_CSD_CTANK_CONNECTION_MASK);
 228:.\Generated_Source\PSoC4/CapSense.c ****             newRegValue |= CapSense_CSD_CTANK_TO_AMUXBUS_B;
 229:.\Generated_Source\PSoC4/CapSense.c ****             CapSense_CTANK_CONNECTION_REG = newRegValue;
 230:.\Generated_Source\PSoC4/CapSense.c **** 
 231:.\Generated_Source\PSoC4/CapSense.c ****             #if(CapSense_CSH_TANK_PREGARGE_OPTION == CapSense__CAPPRIOBUF)
 232:.\Generated_Source\PSoC4/CapSense.c ****                 newRegValue = CapSense_CTANK_PORT_PC_REG;
 233:.\Generated_Source\PSoC4/CapSense.c ****                 newRegValue &= ~(CapSense_CSD_CTANK_PC_MASK);
 234:.\Generated_Source\PSoC4/CapSense.c ****                 newRegValue |= CapSense_CTANK_PC_STRONG_MODE;
 235:.\Generated_Source\PSoC4/CapSense.c ****                 CapSense_CTANK_PORT_PC_REG = newRegValue;
 236:.\Generated_Source\PSoC4/CapSense.c **** 
 237:.\Generated_Source\PSoC4/CapSense.c ****                 newRegValue = CapSense_CTANK_PORT_DR_REG;
 238:.\Generated_Source\PSoC4/CapSense.c ****                 newRegValue &= ~(CapSense_CTANK_DR_MASK);
 239:.\Generated_Source\PSoC4/CapSense.c ****                 newRegValue |= CapSense_CTANK_DR_CONFIG;
 240:.\Generated_Source\PSoC4/CapSense.c ****                 CapSense_CTANK_PORT_DR_REG = newRegValue;
 241:.\Generated_Source\PSoC4/CapSense.c ****             #endif /* (CapSense_CSH_TANK_PREGARGE_OPTION == CapSense__CAPPRIOBUF) */
 242:.\Generated_Source\PSoC4/CapSense.c **** 
 243:.\Generated_Source\PSoC4/CapSense.c ****         #endif /* ((CapSense_CSH_TANK_PREGARGE_OPTION == CapSense__CAPPRIOBUF) || (CapSense_CSH_TAN
 244:.\Generated_Source\PSoC4/CapSense.c **** 
 245:.\Generated_Source\PSoC4/CapSense.c ****         CapSense_EnableShieldElectrode((uint32)CapSense_SHIELD_PIN_NUMBER, (uint32)CapSense_SHIELD_
 246:.\Generated_Source\PSoC4/CapSense.c **** 
 247:.\Generated_Source\PSoC4/CapSense.c ****     #endif /* (CapSense_IS_SHIELD_ENABLE) */
 248:.\Generated_Source\PSoC4/CapSense.c **** 
 249:.\Generated_Source\PSoC4/CapSense.c ****     for(curSensor = 0u; curSensor < CapSense_TOTAL_SENSOR_COUNT; curSensor++)
 250:.\Generated_Source\PSoC4/CapSense.c ****     {
 251:.\Generated_Source\PSoC4/CapSense.c ****         CapSense_unscannedSnsDriveMode[curSensor] = CapSense_CONNECT_INACTIVE_SNS;
 252:.\Generated_Source\PSoC4/CapSense.c ****     }
 253:.\Generated_Source\PSoC4/CapSense.c **** 
 254:.\Generated_Source\PSoC4/CapSense.c ****     CapSense_CsdHwBlockInit();
 255:.\Generated_Source\PSoC4/CapSense.c ****     CapSense_SetShieldDelay(CapSense_SHIELD_DELAY );
 256:.\Generated_Source\PSoC4/CapSense.c **** 
 257:.\Generated_Source\PSoC4/CapSense.c ****     /* Clear all sensors */
 258:.\Generated_Source\PSoC4/CapSense.c ****     CapSense_ClearSensors();
 259:.\Generated_Source\PSoC4/CapSense.c **** }
 260:.\Generated_Source\PSoC4/CapSense.c **** 
ARM GAS  C:\Users\SHOZOK~1\AppData\Local\Temp\cc5HTLHa.s 			page 6


 261:.\Generated_Source\PSoC4/CapSense.c **** /*******************************************************************************
 262:.\Generated_Source\PSoC4/CapSense.c **** * Function Name: CapSense_CsdHwBlockInit
 263:.\Generated_Source\PSoC4/CapSense.c **** ********************************************************************************
 264:.\Generated_Source\PSoC4/CapSense.c **** *
 265:.\Generated_Source\PSoC4/CapSense.c **** * Summary:
 266:.\Generated_Source\PSoC4/CapSense.c **** *  Initialises the hardware parameters of the CSD block
 267:.\Generated_Source\PSoC4/CapSense.c **** *
 268:.\Generated_Source\PSoC4/CapSense.c **** * Parameters:
 269:.\Generated_Source\PSoC4/CapSense.c **** *  None
 270:.\Generated_Source\PSoC4/CapSense.c **** *
 271:.\Generated_Source\PSoC4/CapSense.c **** * Return:
 272:.\Generated_Source\PSoC4/CapSense.c **** *  None
 273:.\Generated_Source\PSoC4/CapSense.c **** *
 274:.\Generated_Source\PSoC4/CapSense.c **** * Global Variables:
 275:.\Generated_Source\PSoC4/CapSense.c **** *  CapSense_csdTrim1 - Contains IDAC trim register value for Sourcing Mode.
 276:.\Generated_Source\PSoC4/CapSense.c **** *  CapSense_csdTrim2 - Contains IDAC trim register value for Sinking Mode.
 277:.\Generated_Source\PSoC4/CapSense.c **** *
 278:.\Generated_Source\PSoC4/CapSense.c **** * Side Effects:
 279:.\Generated_Source\PSoC4/CapSense.c **** *  None
 280:.\Generated_Source\PSoC4/CapSense.c **** *
 281:.\Generated_Source\PSoC4/CapSense.c **** *******************************************************************************/
 282:.\Generated_Source\PSoC4/CapSense.c **** void CapSense_CsdHwBlockInit(void)
 283:.\Generated_Source\PSoC4/CapSense.c **** {
  26              		.loc 1 283 0
  27              		.cfi_startproc
  28 0000 38B5     		push	{r3, r4, r5, lr}
  29              		.cfi_def_cfa_offset 16
  30              		.cfi_offset 3, -16
  31              		.cfi_offset 4, -12
  32              		.cfi_offset 5, -8
  33              		.cfi_offset 14, -4
 284:.\Generated_Source\PSoC4/CapSense.c ****     uint32 newRegValue;
 285:.\Generated_Source\PSoC4/CapSense.c **** 
 286:.\Generated_Source\PSoC4/CapSense.c ****         /* Set trim registers for CSD Mode */
 287:.\Generated_Source\PSoC4/CapSense.c ****     #if (CapSense_IDAC1_POLARITY == CapSense__IDAC_SINK)
 288:.\Generated_Source\PSoC4/CapSense.c ****         /* iDAC1 Sinking Mode */
 289:.\Generated_Source\PSoC4/CapSense.c ****         CapSense_csdTrim2 = (uint8)CapSense_CSD_TRIM2_REG;
 290:.\Generated_Source\PSoC4/CapSense.c ****         newRegValue = CapSense_csdTrim2;
 291:.\Generated_Source\PSoC4/CapSense.c ****         newRegValue &= CapSense_CSD_IDAC1_TRIM_MASK;
 292:.\Generated_Source\PSoC4/CapSense.c ****         newRegValue |= (uint32)((uint32)CapSense_SFLASH_CSD_TRIM2_REG & (uint32)CapSense_CSFLASH_TR
 293:.\Generated_Source\PSoC4/CapSense.c **** 
 294:.\Generated_Source\PSoC4/CapSense.c ****         #if (CapSense_IDAC_CNT == 2u)
 295:.\Generated_Source\PSoC4/CapSense.c ****             /* iDAC2 Sinking Mode */
 296:.\Generated_Source\PSoC4/CapSense.c ****             newRegValue &= CapSense_CSD_IDAC2_TRIM_MASK;
 297:.\Generated_Source\PSoC4/CapSense.c ****             newRegValue |= (uint32)((uint32)CapSense_SFLASH_CSD_TRIM2_REG & (uint32)CapSense_CSFLAS
 298:.\Generated_Source\PSoC4/CapSense.c ****         #endif /* (CapSense_IDAC_CNT == 2u) */
 299:.\Generated_Source\PSoC4/CapSense.c ****         CapSense_CSD_TRIM2_REG = newRegValue;
 300:.\Generated_Source\PSoC4/CapSense.c ****     #else
 301:.\Generated_Source\PSoC4/CapSense.c ****         /* iDAC1 Sourcing Mode */
 302:.\Generated_Source\PSoC4/CapSense.c ****         CapSense_csdTrim1 = (uint8)CapSense_CSD_TRIM1_REG;
  34              		.loc 1 302 0
  35 0002 1748     		ldr	r0, .L2
  36 0004 0368     		ldr	r3, [r0]
  37 0006 DBB2     		uxtb	r3, r3
  38 0008 164A     		ldr	r2, .L2+4
  39 000a 1370     		strb	r3, [r2]
  40              	.LVL0:
ARM GAS  C:\Users\SHOZOK~1\AppData\Local\Temp\cc5HTLHa.s 			page 7


 303:.\Generated_Source\PSoC4/CapSense.c ****         newRegValue = CapSense_csdTrim1;
 304:.\Generated_Source\PSoC4/CapSense.c ****         newRegValue &= CapSense_CSD_IDAC1_TRIM_MASK;
  41              		.loc 1 304 0
  42 000c 0F24     		mov	r4, #15
  43 000e A343     		bic	r3, r4
  44              	.LVL1:
  45 0010 191C     		mov	r1, r3
  46              	.LVL2:
 305:.\Generated_Source\PSoC4/CapSense.c ****         newRegValue |= (uint32)((uint32)CapSense_SFLASH_CSD_TRIM1_REG & (uint32)CapSense_CSFLASH_TR
  47              		.loc 1 305 0
  48 0012 154D     		ldr	r5, .L2+8
  49 0014 2A78     		ldrb	r2, [r5]
  50 0016 0F23     		mov	r3, #15
  51 0018 1340     		and	r3, r2
  52 001a 0B43     		orr	r3, r1
  53              	.LVL3:
 306:.\Generated_Source\PSoC4/CapSense.c ****         #if (CapSense_IDAC_CNT == 2u)
 307:.\Generated_Source\PSoC4/CapSense.c ****              /* iDAC2 Sourcing Mode */
 308:.\Generated_Source\PSoC4/CapSense.c ****             newRegValue &= CapSense_CSD_IDAC2_TRIM_MASK;
  54              		.loc 1 308 0
  55 001c F022     		mov	r2, #240
  56 001e 9343     		bic	r3, r2
  57              	.LVL4:
  58 0020 1A1C     		mov	r2, r3
  59              	.LVL5:
 309:.\Generated_Source\PSoC4/CapSense.c ****             newRegValue |= (uint32)((uint32)CapSense_SFLASH_CSD_TRIM1_REG & (uint32)CapSense_CSFLAS
  60              		.loc 1 309 0
  61 0022 2B78     		ldrb	r3, [r5]
  62 0024 A343     		bic	r3, r4
  63 0026 1343     		orr	r3, r2
  64              	.LVL6:
 310:.\Generated_Source\PSoC4/CapSense.c ****         #endif
 311:.\Generated_Source\PSoC4/CapSense.c ****         CapSense_CSD_TRIM1_REG = newRegValue;
  65              		.loc 1 311 0
  66 0028 0360     		str	r3, [r0]
 312:.\Generated_Source\PSoC4/CapSense.c ****     #endif /* (CapSense_IDAC1_POLARITY == CapSense__IDAC_SINK) */
 313:.\Generated_Source\PSoC4/CapSense.c **** 
 314:.\Generated_Source\PSoC4/CapSense.c ****     /* Configure CSD and IDAC */
 315:.\Generated_Source\PSoC4/CapSense.c ****     #if (CapSense_IDAC_CNT > 1u)
 316:.\Generated_Source\PSoC4/CapSense.c ****         CapSense_CSD_IDAC_REG = CapSense_DEFAULT_CSD_IDAC_CONFIG;
  67              		.loc 1 316 0
  68 002a 104A     		ldr	r2, .L2+12
  69 002c 104B     		ldr	r3, .L2+16
  70              	.LVL7:
  71 002e 1A60     		str	r2, [r3]
  72              	.LVL8:
 317:.\Generated_Source\PSoC4/CapSense.c ****         CapSense_CSD_CFG_REG = CapSense_DEFAULT_CSD_CONFIG;
  73              		.loc 1 317 0
  74 0030 104A     		ldr	r2, .L2+20
  75 0032 114B     		ldr	r3, .L2+24
  76 0034 1A60     		str	r2, [r3]
 318:.\Generated_Source\PSoC4/CapSense.c ****     #else
 319:.\Generated_Source\PSoC4/CapSense.c ****         CapSense_CSD_IDAC_REG &= ~(CapSense_CSD_IDAC1_MODE_MASK  | CapSense_CSD_IDAC1_DATA_MASK);
 320:.\Generated_Source\PSoC4/CapSense.c ****         CapSense_CSD_IDAC_REG |= CapSense_DEFAULT_CSD_IDAC_CONFIG;
 321:.\Generated_Source\PSoC4/CapSense.c **** 
 322:.\Generated_Source\PSoC4/CapSense.c ****         CapSense_CSD_CFG_REG &= ~(CapSense_CSD_CONFIG_MASK);
 323:.\Generated_Source\PSoC4/CapSense.c ****         CapSense_CSD_CFG_REG |= (CapSense_DEFAULT_CSD_CONFIG);
ARM GAS  C:\Users\SHOZOK~1\AppData\Local\Temp\cc5HTLHa.s 			page 8


 324:.\Generated_Source\PSoC4/CapSense.c ****     #endif /* (CapSense_IDAC_CNT > 1u) */
 325:.\Generated_Source\PSoC4/CapSense.c **** 
 326:.\Generated_Source\PSoC4/CapSense.c **** 
 327:.\Generated_Source\PSoC4/CapSense.c ****     /* Connect Cmod to AMUX bus */
 328:.\Generated_Source\PSoC4/CapSense.c ****     newRegValue = CapSense_CMOD_CONNECTION_REG;
  77              		.loc 1 328 0
  78 0036 114A     		ldr	r2, .L2+28
  79 0038 1168     		ldr	r1, [r2]
  80              	.LVL9:
 329:.\Generated_Source\PSoC4/CapSense.c ****     newRegValue &= ~(CapSense_CSD_CMOD_CONNECTION_MASK);
  81              		.loc 1 329 0
  82 003a 114B     		ldr	r3, .L2+32
  83 003c 0B40     		and	r3, r1
  84              	.LVL10:
 330:.\Generated_Source\PSoC4/CapSense.c ****     newRegValue |= CapSense_CSD_CMOD_TO_AMUXBUS_A;
  85              		.loc 1 330 0
  86 003e C021     		mov	r1, #192
  87 0040 C900     		lsl	r1, r1, #3
  88 0042 0B43     		orr	r3, r1
  89              	.LVL11:
 331:.\Generated_Source\PSoC4/CapSense.c ****     CapSense_CMOD_CONNECTION_REG = newRegValue;
  90              		.loc 1 331 0
  91 0044 1360     		str	r3, [r2]
 332:.\Generated_Source\PSoC4/CapSense.c **** 
 333:.\Generated_Source\PSoC4/CapSense.c ****     /* Configure Dead Band PWM if it is enabled */
 334:.\Generated_Source\PSoC4/CapSense.c ****     #if(CapSense_CSD_4B_PWM_MODE != CapSense__PWM_OFF)
 335:.\Generated_Source\PSoC4/CapSense.c ****         CapSense_CSD_4B_PWM_REG = CapSense_DEFAULT_CSD_4B_PWM_CONFIG;
 336:.\Generated_Source\PSoC4/CapSense.c ****     #endif /* (CapSense_CSD_4B_PWM_MODE != CapSense__PWM_OFF) */
 337:.\Generated_Source\PSoC4/CapSense.c **** 
 338:.\Generated_Source\PSoC4/CapSense.c ****     /* Setup ISR */
 339:.\Generated_Source\PSoC4/CapSense.c ****     CyIntDisable(CapSense_ISR_NUMBER);
  92              		.loc 1 339 0
  93 0046 0F20     		mov	r0, #15
  94 0048 FFF7FEFF 		bl	CyIntDisable
  95              	.LVL12:
 340:.\Generated_Source\PSoC4/CapSense.c ****     #if !defined(CY_EXTERNAL_INTERRUPT_CONFIG)
 341:.\Generated_Source\PSoC4/CapSense.c ****         (void)CyIntSetVector(CapSense_ISR_NUMBER, &CapSense_ISR);
  96              		.loc 1 341 0
  97 004c 0F20     		mov	r0, #15
  98 004e 0D49     		ldr	r1, .L2+36
  99 0050 FFF7FEFF 		bl	CyIntSetVector
 100              	.LVL13:
 342:.\Generated_Source\PSoC4/CapSense.c ****         CyIntSetPriority(CapSense_ISR_NUMBER, CapSense_ISR_PRIORITY);
 101              		.loc 1 342 0
 102 0054 0F20     		mov	r0, #15
 103 0056 0321     		mov	r1, #3
 104 0058 FFF7FEFF 		bl	CyIntSetPriority
 105              	.LVL14:
 343:.\Generated_Source\PSoC4/CapSense.c ****     #endif /* (CY_EXTERNAL_INTERRUPT_CONFIG) */
 344:.\Generated_Source\PSoC4/CapSense.c **** }
 106              		.loc 1 344 0
 107              		@ sp needed
 108 005c 38BD     		pop	{r3, r4, r5, pc}
 109              	.L3:
 110 005e C046     		.align	2
 111              	.L2:
 112 0060 00FF0840 		.word	1074331392
ARM GAS  C:\Users\SHOZOK~1\AppData\Local\Temp\cc5HTLHa.s 			page 9


 113 0064 00000000 		.word	CapSense_csdTrim1
 114 0068 62F1FF0F 		.word	268431714
 115 006c 00020001 		.word	16777728
 116 0070 08000840 		.word	1074266120
 117 0074 0008A001 		.word	27265024
 118 0078 04000840 		.word	1074266116
 119 007c 10000140 		.word	1073807376
 120 0080 FFF0FFFF 		.word	-3841
 121 0084 00000000 		.word	CapSense_ISR
 122              		.cfi_endproc
 123              	.LFE34:
 124              		.size	CapSense_CsdHwBlockInit, .-CapSense_CsdHwBlockInit
 125              		.section	.text.CapSense_Enable,"ax",%progbits
 126              		.align	2
 127              		.global	CapSense_Enable
 128              		.code	16
 129              		.thumb_func
 130              		.type	CapSense_Enable, %function
 131              	CapSense_Enable:
 132              	.LFB35:
 345:.\Generated_Source\PSoC4/CapSense.c **** 
 346:.\Generated_Source\PSoC4/CapSense.c **** 
 347:.\Generated_Source\PSoC4/CapSense.c **** /*******************************************************************************
 348:.\Generated_Source\PSoC4/CapSense.c **** * Function Name: CapSense_Enable
 349:.\Generated_Source\PSoC4/CapSense.c **** ********************************************************************************
 350:.\Generated_Source\PSoC4/CapSense.c **** *
 351:.\Generated_Source\PSoC4/CapSense.c **** * Summary:
 352:.\Generated_Source\PSoC4/CapSense.c **** *  Enables the CSD block and related resources to an active mode.
 353:.\Generated_Source\PSoC4/CapSense.c **** *
 354:.\Generated_Source\PSoC4/CapSense.c **** * Parameters:
 355:.\Generated_Source\PSoC4/CapSense.c **** *  None
 356:.\Generated_Source\PSoC4/CapSense.c **** *
 357:.\Generated_Source\PSoC4/CapSense.c **** * Return:
 358:.\Generated_Source\PSoC4/CapSense.c **** *  None
 359:.\Generated_Source\PSoC4/CapSense.c **** *
 360:.\Generated_Source\PSoC4/CapSense.c **** * Global Variables:
 361:.\Generated_Source\PSoC4/CapSense.c **** *  None.
 362:.\Generated_Source\PSoC4/CapSense.c **** *
 363:.\Generated_Source\PSoC4/CapSense.c **** * Side Effects:
 364:.\Generated_Source\PSoC4/CapSense.c **** *  None
 365:.\Generated_Source\PSoC4/CapSense.c **** *
 366:.\Generated_Source\PSoC4/CapSense.c **** *******************************************************************************/
 367:.\Generated_Source\PSoC4/CapSense.c **** void CapSense_Enable(void)
 368:.\Generated_Source\PSoC4/CapSense.c **** {
 133              		.loc 1 368 0
 134              		.cfi_startproc
 135 0000 08B5     		push	{r3, lr}
 136              		.cfi_def_cfa_offset 8
 137              		.cfi_offset 3, -8
 138              		.cfi_offset 14, -4
 369:.\Generated_Source\PSoC4/CapSense.c ****     uint32 newRegValue;
 370:.\Generated_Source\PSoC4/CapSense.c **** 
 371:.\Generated_Source\PSoC4/CapSense.c ****     /* Enable Clocks */
 372:.\Generated_Source\PSoC4/CapSense.c ****     CapSense_SenseClk_Stop();
 139              		.loc 1 372 0
 140 0002 FFF7FEFF 		bl	CapSense_SenseClk_Stop
 141              	.LVL15:
ARM GAS  C:\Users\SHOZOK~1\AppData\Local\Temp\cc5HTLHa.s 			page 10


 373:.\Generated_Source\PSoC4/CapSense.c ****     CapSense_SampleClk_Stop();
 142              		.loc 1 373 0
 143 0006 FFF7FEFF 		bl	CapSense_SampleClk_Stop
 144              	.LVL16:
 374:.\Generated_Source\PSoC4/CapSense.c **** 
 375:.\Generated_Source\PSoC4/CapSense.c ****     CapSense_SampleClk_SetDividerValue((uint16)CapSense_INITIAL_CLK_DIVIDER);
 145              		.loc 1 375 0
 146 000a 0020     		mov	r0, #0
 147 000c 0021     		mov	r1, #0
 148 000e FFF7FEFF 		bl	CapSense_SampleClk_SetFractionalDividerRegister
 149              	.LVL17:
 376:.\Generated_Source\PSoC4/CapSense.c ****     CapSense_SenseClk_SetDividerValue((uint16)CapSense_INITIAL_CLK_DIVIDER);
 150              		.loc 1 376 0
 151 0012 0020     		mov	r0, #0
 152 0014 0021     		mov	r1, #0
 153 0016 FFF7FEFF 		bl	CapSense_SenseClk_SetFractionalDividerRegister
 154              	.LVL18:
 377:.\Generated_Source\PSoC4/CapSense.c **** 
 378:.\Generated_Source\PSoC4/CapSense.c ****     #if (0u == CapSense_IS_M0S8PERI_BLOCK)
 379:.\Generated_Source\PSoC4/CapSense.c ****         CapSense_SenseClk_Start();
 155              		.loc 1 379 0
 156 001a FFF7FEFF 		bl	CapSense_SenseClk_Start
 157              	.LVL19:
 380:.\Generated_Source\PSoC4/CapSense.c ****         CapSense_SampleClk_Start();
 158              		.loc 1 380 0
 159 001e FFF7FEFF 		bl	CapSense_SampleClk_Start
 160              	.LVL20:
 381:.\Generated_Source\PSoC4/CapSense.c ****     #else
 382:.\Generated_Source\PSoC4/CapSense.c ****         CapSense_SampleClk_Start();
 383:.\Generated_Source\PSoC4/CapSense.c ****         CapSense_SenseClk_StartEx(CapSense_SampleClk__DIV_ID);
 384:.\Generated_Source\PSoC4/CapSense.c ****     #endif /* (0u == CapSense_IS_M0S8PERI_BLOCK) */
 385:.\Generated_Source\PSoC4/CapSense.c **** 
 386:.\Generated_Source\PSoC4/CapSense.c ****     /* Enable the CSD block */
 387:.\Generated_Source\PSoC4/CapSense.c ****     newRegValue = CapSense_CSD_CFG_REG;
 161              		.loc 1 387 0
 162 0022 044A     		ldr	r2, .L5
 163 0024 1368     		ldr	r3, [r2]
 164              	.LVL21:
 388:.\Generated_Source\PSoC4/CapSense.c ****     newRegValue |= (CapSense_CSD_CFG_ENABLE | CapSense_CSD_CFG_SENSE_COMP_EN
 165              		.loc 1 388 0
 166 0026 0449     		ldr	r1, .L5+4
 167 0028 0B43     		orr	r3, r1
 168              	.LVL22:
 389:.\Generated_Source\PSoC4/CapSense.c ****                                                    | CapSense_CSD_CFG_SENSE_EN);
 390:.\Generated_Source\PSoC4/CapSense.c ****     CapSense_CSD_CFG_REG = newRegValue;
 169              		.loc 1 390 0
 170 002a 1360     		str	r3, [r2]
 391:.\Generated_Source\PSoC4/CapSense.c **** 
 392:.\Generated_Source\PSoC4/CapSense.c ****     /* Enable interrupt */
 393:.\Generated_Source\PSoC4/CapSense.c ****     CyIntEnable(CapSense_ISR_NUMBER);
 171              		.loc 1 393 0
 172 002c 0F20     		mov	r0, #15
 173 002e FFF7FEFF 		bl	CyIntEnable
 174              	.LVL23:
 394:.\Generated_Source\PSoC4/CapSense.c **** }
 175              		.loc 1 394 0
 176              		@ sp needed
ARM GAS  C:\Users\SHOZOK~1\AppData\Local\Temp\cc5HTLHa.s 			page 11


 177 0032 08BD     		pop	{r3, pc}
 178              	.L6:
 179              		.align	2
 180              	.L5:
 181 0034 04000840 		.word	1074266116
 182 0038 00100880 		.word	-2146955264
 183              		.cfi_endproc
 184              	.LFE35:
 185              		.size	CapSense_Enable, .-CapSense_Enable
 186              		.section	.text.CapSense_Stop,"ax",%progbits
 187              		.align	2
 188              		.global	CapSense_Stop
 189              		.code	16
 190              		.thumb_func
 191              		.type	CapSense_Stop, %function
 192              	CapSense_Stop:
 193              	.LFB37:
 395:.\Generated_Source\PSoC4/CapSense.c **** 
 396:.\Generated_Source\PSoC4/CapSense.c **** 
 397:.\Generated_Source\PSoC4/CapSense.c **** /*******************************************************************************
 398:.\Generated_Source\PSoC4/CapSense.c **** * Function Name: CapSense_Start
 399:.\Generated_Source\PSoC4/CapSense.c **** ********************************************************************************
 400:.\Generated_Source\PSoC4/CapSense.c **** *
 401:.\Generated_Source\PSoC4/CapSense.c **** * Summary:
 402:.\Generated_Source\PSoC4/CapSense.c **** *  This is the preferred method to begin the component operation. CapSense_Start()
 403:.\Generated_Source\PSoC4/CapSense.c **** *  calls the CapSense_Init() function, and then calls the CapSense_Enable()
 404:.\Generated_Source\PSoC4/CapSense.c **** *  function. Initializes the registers and starts the CSD method of the CapSense
 405:.\Generated_Source\PSoC4/CapSense.c **** *  component. Resets all the sensors to an inactive state. Enables interrupts for
 406:.\Generated_Source\PSoC4/CapSense.c **** *  sensors scanning. When the SmartSense tuning mode is selected, the tuning procedure
 407:.\Generated_Source\PSoC4/CapSense.c **** *  is applied for all the sensors. The CapSense_Start() routine must be called before
 408:.\Generated_Source\PSoC4/CapSense.c **** *  any other API routines.
 409:.\Generated_Source\PSoC4/CapSense.c **** *
 410:.\Generated_Source\PSoC4/CapSense.c **** * Parameters:
 411:.\Generated_Source\PSoC4/CapSense.c **** *  None
 412:.\Generated_Source\PSoC4/CapSense.c **** *
 413:.\Generated_Source\PSoC4/CapSense.c **** * Return:
 414:.\Generated_Source\PSoC4/CapSense.c **** *  None
 415:.\Generated_Source\PSoC4/CapSense.c **** *
 416:.\Generated_Source\PSoC4/CapSense.c **** * Global Variables:
 417:.\Generated_Source\PSoC4/CapSense.c **** *   CapSense_initVar - used to check the initial configuration,
 418:.\Generated_Source\PSoC4/CapSense.c **** *   modified on the first function call.
 419:.\Generated_Source\PSoC4/CapSense.c **** *  CapSense_lowLevelTuningDone - Used to notify the Tuner GUI that
 420:.\Generated_Source\PSoC4/CapSense.c **** *   tuning of the scanning parameters is done.
 421:.\Generated_Source\PSoC4/CapSense.c **** *
 422:.\Generated_Source\PSoC4/CapSense.c **** * Side Effects:
 423:.\Generated_Source\PSoC4/CapSense.c **** *  None
 424:.\Generated_Source\PSoC4/CapSense.c **** *
 425:.\Generated_Source\PSoC4/CapSense.c **** *******************************************************************************/
 426:.\Generated_Source\PSoC4/CapSense.c **** void CapSense_Start(void)
 427:.\Generated_Source\PSoC4/CapSense.c **** {
 428:.\Generated_Source\PSoC4/CapSense.c **** 
 429:.\Generated_Source\PSoC4/CapSense.c ****     static uint8 CapSense_initVar = 0u;
 430:.\Generated_Source\PSoC4/CapSense.c **** 
 431:.\Generated_Source\PSoC4/CapSense.c ****     #if((0u != CapSense_AUTOCALIBRATION_ENABLE) && (CapSense_TUNING_METHOD != CapSense__TUNING_AUTO
 432:.\Generated_Source\PSoC4/CapSense.c ****         uint32 curSensor;
 433:.\Generated_Source\PSoC4/CapSense.c ****         uint32 rawLevel;
 434:.\Generated_Source\PSoC4/CapSense.c ****         uint32 widget;
ARM GAS  C:\Users\SHOZOK~1\AppData\Local\Temp\cc5HTLHa.s 			page 12


 435:.\Generated_Source\PSoC4/CapSense.c ****     #endif /* ((0u != CapSense_AUTOCALIBRATION_ENABLE) && (CapSense_TUNING_METHOD != CapSense__TUNI
 436:.\Generated_Source\PSoC4/CapSense.c **** 
 437:.\Generated_Source\PSoC4/CapSense.c ****     if (CapSense_initVar == 0u)
 438:.\Generated_Source\PSoC4/CapSense.c ****     {
 439:.\Generated_Source\PSoC4/CapSense.c ****         CapSense_Init();
 440:.\Generated_Source\PSoC4/CapSense.c ****         CapSense_initVar = 1u;
 441:.\Generated_Source\PSoC4/CapSense.c ****     }
 442:.\Generated_Source\PSoC4/CapSense.c ****     CapSense_Enable();
 443:.\Generated_Source\PSoC4/CapSense.c **** 
 444:.\Generated_Source\PSoC4/CapSense.c ****     /* AutoTunning start */
 445:.\Generated_Source\PSoC4/CapSense.c ****     #if(CapSense_TUNING_METHOD == CapSense__TUNING_AUTO)
 446:.\Generated_Source\PSoC4/CapSense.c ****         #if(0u != CapSense_CSHL_API_GENERATE)
 447:.\Generated_Source\PSoC4/CapSense.c ****             CapSense_AutoTune();
 448:.\Generated_Source\PSoC4/CapSense.c ****             CapSense_lowLevelTuningDone = 1u;
 449:.\Generated_Source\PSoC4/CapSense.c ****         #endif /* (0u != CapSense_CSHL_API_GENERATE) */
 450:.\Generated_Source\PSoC4/CapSense.c ****     #else
 451:.\Generated_Source\PSoC4/CapSense.c ****         #if(0u != CapSense_AUTOCALIBRATION_ENABLE)
 452:.\Generated_Source\PSoC4/CapSense.c **** 
 453:.\Generated_Source\PSoC4/CapSense.c ****             #if(CapSense_IDAC_CNT > 1u)
 454:.\Generated_Source\PSoC4/CapSense.c ****                 CapSense_CSD_IDAC_REG &= ~(CapSense_CSD_IDAC2_MODE_MASK);
 455:.\Generated_Source\PSoC4/CapSense.c ****             #endif /* (CapSense_IDAC_CNT > 1u) */
 456:.\Generated_Source\PSoC4/CapSense.c **** 
 457:.\Generated_Source\PSoC4/CapSense.c ****             for(curSensor = 0u; curSensor < CapSense_TOTAL_SCANSLOT_COUNT; curSensor++)
 458:.\Generated_Source\PSoC4/CapSense.c ****             {
 459:.\Generated_Source\PSoC4/CapSense.c ****                 widget = CapSense_widgetNumber[curSensor];
 460:.\Generated_Source\PSoC4/CapSense.c ****                 rawLevel = CapSense_widgetResolution[widget] >> CapSense_RESOLUTION_OFFSET;
 461:.\Generated_Source\PSoC4/CapSense.c **** 
 462:.\Generated_Source\PSoC4/CapSense.c ****                 /* Calibration level should be equal to 85% from scanning resolution */
 463:.\Generated_Source\PSoC4/CapSense.c ****                 rawLevel = (rawLevel * 85u) / 100u;
 464:.\Generated_Source\PSoC4/CapSense.c **** 
 465:.\Generated_Source\PSoC4/CapSense.c ****                 CapSense_CalibrateSensor(curSensor, rawLevel, CapSense_modulationIDAC);
 466:.\Generated_Source\PSoC4/CapSense.c ****             }
 467:.\Generated_Source\PSoC4/CapSense.c **** 
 468:.\Generated_Source\PSoC4/CapSense.c ****             #if(0u != CapSense_TOTAL_CENTROIDS_COUNT)
 469:.\Generated_Source\PSoC4/CapSense.c ****                 CapSense_NormalizeWidgets(CapSense_END_OF_WIDGETS_INDEX, CapSense_modulationIDAC);
 470:.\Generated_Source\PSoC4/CapSense.c ****             #endif /* (0u != CapSense_TOTAL_CENTROIDS_COUNT)  */
 471:.\Generated_Source\PSoC4/CapSense.c **** 
 472:.\Generated_Source\PSoC4/CapSense.c ****             #if(CapSense_IDAC_CNT > 1u)
 473:.\Generated_Source\PSoC4/CapSense.c ****                 for(curSensor = 0u; curSensor < CapSense_TOTAL_SCANSLOT_COUNT; curSensor++)
 474:.\Generated_Source\PSoC4/CapSense.c ****                 {
 475:.\Generated_Source\PSoC4/CapSense.c ****                     CapSense_compensationIDAC[curSensor] = CapSense_modulationIDAC[curSensor] / 2u;
 476:.\Generated_Source\PSoC4/CapSense.c ****                     CapSense_modulationIDAC[curSensor] = (CapSense_modulationIDAC[curSensor] + 1u) 
 477:.\Generated_Source\PSoC4/CapSense.c ****                 }
 478:.\Generated_Source\PSoC4/CapSense.c ****                 CapSense_CSD_IDAC_REG |= CapSense_CSD_IDAC2_MODE_FIXED;
 479:.\Generated_Source\PSoC4/CapSense.c ****             #endif /* (CapSense_IDAC_CNT > 1u) */
 480:.\Generated_Source\PSoC4/CapSense.c **** 
 481:.\Generated_Source\PSoC4/CapSense.c ****         #endif /* (0u != CapSense_AUTOCALIBRATION_ENABLE) */
 482:.\Generated_Source\PSoC4/CapSense.c **** 
 483:.\Generated_Source\PSoC4/CapSense.c ****     #endif /* ((CapSense_TUNING_METHOD == CapSense__TUNING_AUTO) */
 484:.\Generated_Source\PSoC4/CapSense.c **** 
 485:.\Generated_Source\PSoC4/CapSense.c ****     /* Initialize Advanced Centroid */
 486:.\Generated_Source\PSoC4/CapSense.c ****     #if(CapSense_TOTAL_TRACKPAD_GESTURES_COUNT > 0u)
 487:.\Generated_Source\PSoC4/CapSense.c ****         CapSense_AdvancedCentroidInit();
 488:.\Generated_Source\PSoC4/CapSense.c ****     #endif /* (CapSense_TOTAL_TRACKPAD_GESTURES_COUNT > 0u) */
 489:.\Generated_Source\PSoC4/CapSense.c **** 
 490:.\Generated_Source\PSoC4/CapSense.c ****     /* Connect sense comparator input to AMUXA */
 491:.\Generated_Source\PSoC4/CapSense.c ****     CapSense_CSD_CFG_REG |= CapSense_CSD_CFG_SENSE_INSEL;
ARM GAS  C:\Users\SHOZOK~1\AppData\Local\Temp\cc5HTLHa.s 			page 13


 492:.\Generated_Source\PSoC4/CapSense.c **** }
 493:.\Generated_Source\PSoC4/CapSense.c **** 
 494:.\Generated_Source\PSoC4/CapSense.c **** 
 495:.\Generated_Source\PSoC4/CapSense.c **** /*******************************************************************************
 496:.\Generated_Source\PSoC4/CapSense.c **** * Function Name: CapSense_Stop
 497:.\Generated_Source\PSoC4/CapSense.c **** ********************************************************************************
 498:.\Generated_Source\PSoC4/CapSense.c **** *
 499:.\Generated_Source\PSoC4/CapSense.c **** * Summary:
 500:.\Generated_Source\PSoC4/CapSense.c **** *  Stops the sensor scanning, disables component interrupts, and resets all the
 501:.\Generated_Source\PSoC4/CapSense.c **** *  sensors to an inactive state. Disables the Active mode power template bits for
 502:.\Generated_Source\PSoC4/CapSense.c **** *  the subcomponents used within CapSense.
 503:.\Generated_Source\PSoC4/CapSense.c **** *
 504:.\Generated_Source\PSoC4/CapSense.c **** * Parameters:
 505:.\Generated_Source\PSoC4/CapSense.c **** *  None
 506:.\Generated_Source\PSoC4/CapSense.c **** *
 507:.\Generated_Source\PSoC4/CapSense.c **** * Return:
 508:.\Generated_Source\PSoC4/CapSense.c **** *  None
 509:.\Generated_Source\PSoC4/CapSense.c **** *
 510:.\Generated_Source\PSoC4/CapSense.c **** * Global Variables:
 511:.\Generated_Source\PSoC4/CapSense.c **** *  CapSense_csdTrim1 - Contains the IDAC trim register value for the Sourcing Mode.
 512:.\Generated_Source\PSoC4/CapSense.c **** *  CapSense_csdTrim2 - Contains the IDAC trim register value for vSinking Mode.
 513:.\Generated_Source\PSoC4/CapSense.c **** *
 514:.\Generated_Source\PSoC4/CapSense.c **** * Side Effects:
 515:.\Generated_Source\PSoC4/CapSense.c **** *  This function should be called after scans are completed.
 516:.\Generated_Source\PSoC4/CapSense.c **** *
 517:.\Generated_Source\PSoC4/CapSense.c **** *******************************************************************************/
 518:.\Generated_Source\PSoC4/CapSense.c **** void CapSense_Stop(void)
 519:.\Generated_Source\PSoC4/CapSense.c **** {
 194              		.loc 1 519 0
 195              		.cfi_startproc
 196 0000 08B5     		push	{r3, lr}
 197              		.cfi_def_cfa_offset 8
 198              		.cfi_offset 3, -8
 199              		.cfi_offset 14, -4
 520:.\Generated_Source\PSoC4/CapSense.c ****     /* Disable interrupt */
 521:.\Generated_Source\PSoC4/CapSense.c ****     CyIntDisable(CapSense_ISR_NUMBER);
 200              		.loc 1 521 0
 201 0002 0F20     		mov	r0, #15
 202 0004 FFF7FEFF 		bl	CyIntDisable
 203              	.LVL24:
 522:.\Generated_Source\PSoC4/CapSense.c **** 
 523:.\Generated_Source\PSoC4/CapSense.c ****     CapSense_CSD_CFG_REG &= ~(CapSense_CSD_CFG_SENSE_COMP_EN | CapSense_CSD_CFG_SENSE_EN);
 204              		.loc 1 523 0
 205 0008 064A     		ldr	r2, .L8
 206 000a 1168     		ldr	r1, [r2]
 207 000c 064B     		ldr	r3, .L8+4
 208 000e 0B40     		and	r3, r1
 209 0010 1360     		str	r3, [r2]
 524:.\Generated_Source\PSoC4/CapSense.c **** 
 525:.\Generated_Source\PSoC4/CapSense.c ****     #if(CapSense_IDAC_CNT == 2u)
 526:.\Generated_Source\PSoC4/CapSense.c ****         CapSense_CSD_CFG_REG &= ~(CapSense_CSD_CFG_ENABLE);
 210              		.loc 1 526 0
 211 0012 1368     		ldr	r3, [r2]
 212 0014 5B00     		lsl	r3, r3, #1
 213 0016 5B08     		lsr	r3, r3, #1
 214 0018 1360     		str	r3, [r2]
 527:.\Generated_Source\PSoC4/CapSense.c ****     #endif /* (CapSense_IDAC_CNT == 2u) */
ARM GAS  C:\Users\SHOZOK~1\AppData\Local\Temp\cc5HTLHa.s 			page 14


 528:.\Generated_Source\PSoC4/CapSense.c **** 
 529:.\Generated_Source\PSoC4/CapSense.c ****     /* Disable the Clocks */
 530:.\Generated_Source\PSoC4/CapSense.c ****     CapSense_SenseClk_Stop();
 215              		.loc 1 530 0
 216 001a FFF7FEFF 		bl	CapSense_SenseClk_Stop
 217              	.LVL25:
 531:.\Generated_Source\PSoC4/CapSense.c ****     CapSense_SampleClk_Stop();
 218              		.loc 1 531 0
 219 001e FFF7FEFF 		bl	CapSense_SampleClk_Stop
 220              	.LVL26:
 532:.\Generated_Source\PSoC4/CapSense.c **** }
 221              		.loc 1 532 0
 222              		@ sp needed
 223 0022 08BD     		pop	{r3, pc}
 224              	.L9:
 225              		.align	2
 226              	.L8:
 227 0024 04000840 		.word	1074266116
 228 0028 FFEFF7FF 		.word	-528385
 229              		.cfi_endproc
 230              	.LFE37:
 231              		.size	CapSense_Stop, .-CapSense_Stop
 232              		.section	.text.CapSense_IsBusy,"ax",%progbits
 233              		.align	2
 234              		.global	CapSense_IsBusy
 235              		.code	16
 236              		.thumb_func
 237              		.type	CapSense_IsBusy, %function
 238              	CapSense_IsBusy:
 239              	.LFB42:
 533:.\Generated_Source\PSoC4/CapSense.c **** 
 534:.\Generated_Source\PSoC4/CapSense.c **** 
 535:.\Generated_Source\PSoC4/CapSense.c **** /*******************************************************************************
 536:.\Generated_Source\PSoC4/CapSense.c **** * Function Name: CapSense_FindNextSensor
 537:.\Generated_Source\PSoC4/CapSense.c **** ********************************************************************************
 538:.\Generated_Source\PSoC4/CapSense.c **** *
 539:.\Generated_Source\PSoC4/CapSense.c **** * Summary:
 540:.\Generated_Source\PSoC4/CapSense.c **** *  Finds the next sensor to scan.
 541:.\Generated_Source\PSoC4/CapSense.c **** *
 542:.\Generated_Source\PSoC4/CapSense.c **** * Parameters:
 543:.\Generated_Source\PSoC4/CapSense.c **** *  snsIndex:  Current index of sensor.
 544:.\Generated_Source\PSoC4/CapSense.c **** *
 545:.\Generated_Source\PSoC4/CapSense.c **** * Return:
 546:.\Generated_Source\PSoC4/CapSense.c **** *  Returns the next sensor index to scan.
 547:.\Generated_Source\PSoC4/CapSense.c **** *
 548:.\Generated_Source\PSoC4/CapSense.c **** * Global Variables:
 549:.\Generated_Source\PSoC4/CapSense.c **** *  CapSense_sensorEnableMask[] - used to store bit masks of the enabled sensors.
 550:.\Generated_Source\PSoC4/CapSense.c **** *
 551:.\Generated_Source\PSoC4/CapSense.c **** * Side Effects:
 552:.\Generated_Source\PSoC4/CapSense.c **** *  This function affects the  current scanning and should not
 553:.\Generated_Source\PSoC4/CapSense.c **** *  be used outside the component.
 554:.\Generated_Source\PSoC4/CapSense.c **** *
 555:.\Generated_Source\PSoC4/CapSense.c **** *******************************************************************************/
 556:.\Generated_Source\PSoC4/CapSense.c **** uint8 CapSense_FindNextSensor(uint8 snsIndex)
 557:.\Generated_Source\PSoC4/CapSense.c **** {
 558:.\Generated_Source\PSoC4/CapSense.c ****     uint32 enableFlag;
 559:.\Generated_Source\PSoC4/CapSense.c **** 
ARM GAS  C:\Users\SHOZOK~1\AppData\Local\Temp\cc5HTLHa.s 			page 15


 560:.\Generated_Source\PSoC4/CapSense.c ****     /* Check if sensor enabled */
 561:.\Generated_Source\PSoC4/CapSense.c ****     do
 562:.\Generated_Source\PSoC4/CapSense.c ****     {
 563:.\Generated_Source\PSoC4/CapSense.c ****         /* Proceed with next sensor */
 564:.\Generated_Source\PSoC4/CapSense.c ****         snsIndex++;
 565:.\Generated_Source\PSoC4/CapSense.c ****         if(snsIndex == CapSense_TOTAL_SENSOR_COUNT)
 566:.\Generated_Source\PSoC4/CapSense.c ****         {
 567:.\Generated_Source\PSoC4/CapSense.c ****             break;
 568:.\Generated_Source\PSoC4/CapSense.c ****         }
 569:.\Generated_Source\PSoC4/CapSense.c ****         enableFlag = CapSense_GetBitValue(CapSense_sensorEnableMask, (uint32)snsIndex);
 570:.\Generated_Source\PSoC4/CapSense.c ****     }
 571:.\Generated_Source\PSoC4/CapSense.c ****     while(enableFlag == 0u);
 572:.\Generated_Source\PSoC4/CapSense.c **** 
 573:.\Generated_Source\PSoC4/CapSense.c ****     return ((uint8)snsIndex);
 574:.\Generated_Source\PSoC4/CapSense.c **** }
 575:.\Generated_Source\PSoC4/CapSense.c **** 
 576:.\Generated_Source\PSoC4/CapSense.c **** 
 577:.\Generated_Source\PSoC4/CapSense.c **** /*******************************************************************************
 578:.\Generated_Source\PSoC4/CapSense.c **** * Function Name: CapSense_ScanSensor
 579:.\Generated_Source\PSoC4/CapSense.c **** ********************************************************************************
 580:.\Generated_Source\PSoC4/CapSense.c **** *
 581:.\Generated_Source\PSoC4/CapSense.c **** * Summary:
 582:.\Generated_Source\PSoC4/CapSense.c **** *  Sets the scan settings and starts scanning a sensor. After scanning is complete,
 583:.\Generated_Source\PSoC4/CapSense.c **** *  the ISR copies the measured sensor raw data to the global raw sensor array.
 584:.\Generated_Source\PSoC4/CapSense.c **** *  Use of the ISR ensures this function is non-blocking.
 585:.\Generated_Source\PSoC4/CapSense.c **** *  Each sensor has a unique number within the sensor array.
 586:.\Generated_Source\PSoC4/CapSense.c **** *  This number is assigned by the CapSense customizer in sequence.
 587:.\Generated_Source\PSoC4/CapSense.c **** *
 588:.\Generated_Source\PSoC4/CapSense.c **** * Parameters:
 589:.\Generated_Source\PSoC4/CapSense.c **** *  sensor:  Sensor number.
 590:.\Generated_Source\PSoC4/CapSense.c **** *
 591:.\Generated_Source\PSoC4/CapSense.c **** * Return:
 592:.\Generated_Source\PSoC4/CapSense.c **** *  None
 593:.\Generated_Source\PSoC4/CapSense.c **** *
 594:.\Generated_Source\PSoC4/CapSense.c **** * Global Variables:
 595:.\Generated_Source\PSoC4/CapSense.c **** *  CapSense_csdStatusVar - used to provide the status and mode of the scanning process.
 596:.\Generated_Source\PSoC4/CapSense.c **** *  Sets the busy status(scan in progress) and mode of scan as single scan.
 597:.\Generated_Source\PSoC4/CapSense.c **** *  CapSense_sensorIndex - used to store a sensor scanning sensor number.
 598:.\Generated_Source\PSoC4/CapSense.c **** *  Sets to the provided sensor argument.
 599:.\Generated_Source\PSoC4/CapSense.c **** *
 600:.\Generated_Source\PSoC4/CapSense.c **** * Side Effects:
 601:.\Generated_Source\PSoC4/CapSense.c **** *  None
 602:.\Generated_Source\PSoC4/CapSense.c **** *
 603:.\Generated_Source\PSoC4/CapSense.c **** *******************************************************************************/
 604:.\Generated_Source\PSoC4/CapSense.c **** void CapSense_ScanSensor(uint32 sensor)
 605:.\Generated_Source\PSoC4/CapSense.c **** {
 606:.\Generated_Source\PSoC4/CapSense.c ****     /* Clears status/control variable and set sensorIndex */
 607:.\Generated_Source\PSoC4/CapSense.c ****     CapSense_csdStatusVar = 0u;
 608:.\Generated_Source\PSoC4/CapSense.c ****     CapSense_sensorIndex = (uint8)sensor;
 609:.\Generated_Source\PSoC4/CapSense.c **** 
 610:.\Generated_Source\PSoC4/CapSense.c ****     /* Start of sensor scan */
 611:.\Generated_Source\PSoC4/CapSense.c ****     CapSense_csdStatusVar = (CapSense_SW_STS_BUSY | CapSense_SW_CTRL_SINGLE_SCAN);
 612:.\Generated_Source\PSoC4/CapSense.c ****     CapSense_PreScan(sensor);
 613:.\Generated_Source\PSoC4/CapSense.c **** }
 614:.\Generated_Source\PSoC4/CapSense.c **** 
 615:.\Generated_Source\PSoC4/CapSense.c **** 
 616:.\Generated_Source\PSoC4/CapSense.c **** #if(0u != CapSense_CSHL_API_GENERATE)
ARM GAS  C:\Users\SHOZOK~1\AppData\Local\Temp\cc5HTLHa.s 			page 16


 617:.\Generated_Source\PSoC4/CapSense.c **** /*******************************************************************************
 618:.\Generated_Source\PSoC4/CapSense.c **** * Function Name: CapSense_ScanWidget
 619:.\Generated_Source\PSoC4/CapSense.c **** ********************************************************************************
 620:.\Generated_Source\PSoC4/CapSense.c **** *
 621:.\Generated_Source\PSoC4/CapSense.c **** * Summary:
 622:.\Generated_Source\PSoC4/CapSense.c **** *  Sets the scan settings and starts scanning a widget.
 623:.\Generated_Source\PSoC4/CapSense.c **** *
 624:.\Generated_Source\PSoC4/CapSense.c **** * Parameters:
 625:.\Generated_Source\PSoC4/CapSense.c **** *  uint32 widget: Widget number.
 626:.\Generated_Source\PSoC4/CapSense.c **** *
 627:.\Generated_Source\PSoC4/CapSense.c **** * Return:
 628:.\Generated_Source\PSoC4/CapSense.c **** *  None
 629:.\Generated_Source\PSoC4/CapSense.c **** *
 630:.\Generated_Source\PSoC4/CapSense.c **** * Global Variables:
 631:.\Generated_Source\PSoC4/CapSense.c **** *  CapSense_csdStatusVar - used to provide the status and mode of the scanning process.
 632:.\Generated_Source\PSoC4/CapSense.c **** *  Sets the busy status(scan in progress) and clears the single scan mode.
 633:.\Generated_Source\PSoC4/CapSense.c **** *  CapSense_sensorIndex - used to store a sensor scanning sensor number.
 634:.\Generated_Source\PSoC4/CapSense.c **** *  Sets to 0xFF and provided to function CapSense_FindNextSensor or
 635:.\Generated_Source\PSoC4/CapSense.c **** *  CapSense_sensorEnableMask[] - used to store bit masks of the enabled sensors.
 636:.\Generated_Source\PSoC4/CapSense.c **** *  CapSense_sensorEnableMaskBackup[] - used to backup bit masks of the enabled
 637:.\Generated_Source\PSoC4/CapSense.c **** *   sensors.
 638:.\Generated_Source\PSoC4/CapSense.c **** *
 639:.\Generated_Source\PSoC4/CapSense.c **** * Side Effects:
 640:.\Generated_Source\PSoC4/CapSense.c **** *  None
 641:.\Generated_Source\PSoC4/CapSense.c **** *
 642:.\Generated_Source\PSoC4/CapSense.c **** *******************************************************************************/
 643:.\Generated_Source\PSoC4/CapSense.c **** void CapSense_ScanWidget(uint32 widget)
 644:.\Generated_Source\PSoC4/CapSense.c **** {
 645:.\Generated_Source\PSoC4/CapSense.c ****     uint32 sensorsPerWidget;
 646:.\Generated_Source\PSoC4/CapSense.c ****     uint32 lastSensor;
 647:.\Generated_Source\PSoC4/CapSense.c ****     uint32 snsIndex;
 648:.\Generated_Source\PSoC4/CapSense.c **** 
 649:.\Generated_Source\PSoC4/CapSense.c ****     /* Get first sensor in widget */
 650:.\Generated_Source\PSoC4/CapSense.c ****     CapSense_sensorIndex = CapSense_rawDataIndex[widget];
 651:.\Generated_Source\PSoC4/CapSense.c **** 
 652:.\Generated_Source\PSoC4/CapSense.c ****     /* Get number of sensors in widget */
 653:.\Generated_Source\PSoC4/CapSense.c ****     sensorsPerWidget = CapSense_numberOfSensors[widget];
 654:.\Generated_Source\PSoC4/CapSense.c **** 
 655:.\Generated_Source\PSoC4/CapSense.c ****     /* Check if generic Sensor */
 656:.\Generated_Source\PSoC4/CapSense.c ****     if(sensorsPerWidget == 0u)
 657:.\Generated_Source\PSoC4/CapSense.c ****     {
 658:.\Generated_Source\PSoC4/CapSense.c ****         sensorsPerWidget = 1u;
 659:.\Generated_Source\PSoC4/CapSense.c ****     }
 660:.\Generated_Source\PSoC4/CapSense.c **** 
 661:.\Generated_Source\PSoC4/CapSense.c ****     /* Get last sensor in widget */
 662:.\Generated_Source\PSoC4/CapSense.c ****     lastSensor = (CapSense_rawDataIndex[widget] + sensorsPerWidget) - 1u;
 663:.\Generated_Source\PSoC4/CapSense.c **** 
 664:.\Generated_Source\PSoC4/CapSense.c ****     /* Backup sensorEnableMask array */
 665:.\Generated_Source\PSoC4/CapSense.c ****     for(snsIndex = 0u; snsIndex < CapSense_TOTAL_SENSOR_MASK; snsIndex++)
 666:.\Generated_Source\PSoC4/CapSense.c ****     {
 667:.\Generated_Source\PSoC4/CapSense.c ****         /* Backup sensorEnableMask array */
 668:.\Generated_Source\PSoC4/CapSense.c ****         CapSense_sensorEnableMaskBackup[snsIndex] = CapSense_sensorEnableMask[snsIndex];
 669:.\Generated_Source\PSoC4/CapSense.c ****     }
 670:.\Generated_Source\PSoC4/CapSense.c **** 
 671:.\Generated_Source\PSoC4/CapSense.c ****     /* Update sensorEnableMask to scan the sensors that belong to widget */
 672:.\Generated_Source\PSoC4/CapSense.c ****     for(snsIndex = 0u; snsIndex < CapSense_TOTAL_SENSOR_COUNT; snsIndex++)
 673:.\Generated_Source\PSoC4/CapSense.c ****     {
ARM GAS  C:\Users\SHOZOK~1\AppData\Local\Temp\cc5HTLHa.s 			page 17


 674:.\Generated_Source\PSoC4/CapSense.c ****         /* Update sensorEnableMask array bits to scan the widget only */
 675:.\Generated_Source\PSoC4/CapSense.c ****         if((snsIndex >= CapSense_sensorIndex) && (snsIndex <= lastSensor))
 676:.\Generated_Source\PSoC4/CapSense.c ****         {
 677:.\Generated_Source\PSoC4/CapSense.c ****             /* Set sensor bit to scan */
 678:.\Generated_Source\PSoC4/CapSense.c ****             CapSense_SetBitValue(CapSense_sensorEnableMask, snsIndex, 1u);
 679:.\Generated_Source\PSoC4/CapSense.c ****         }
 680:.\Generated_Source\PSoC4/CapSense.c ****         else
 681:.\Generated_Source\PSoC4/CapSense.c ****         {
 682:.\Generated_Source\PSoC4/CapSense.c ****             /* Reset sensor bit to do not scan */
 683:.\Generated_Source\PSoC4/CapSense.c ****             CapSense_SetBitValue(CapSense_sensorEnableMask, snsIndex, 0u);
 684:.\Generated_Source\PSoC4/CapSense.c ****         }
 685:.\Generated_Source\PSoC4/CapSense.c ****     }
 686:.\Generated_Source\PSoC4/CapSense.c **** 
 687:.\Generated_Source\PSoC4/CapSense.c ****     /* Check end of scan condition */
 688:.\Generated_Source\PSoC4/CapSense.c ****     if(CapSense_sensorIndex < CapSense_TOTAL_SENSOR_COUNT)
 689:.\Generated_Source\PSoC4/CapSense.c ****     {
 690:.\Generated_Source\PSoC4/CapSense.c ****         /* Set widget busy bit in status/control variable*/
 691:.\Generated_Source\PSoC4/CapSense.c ****         CapSense_csdStatusVar = (CapSense_SW_STS_BUSY | CapSense_SW_CTRL_WIDGET_SCAN);
 692:.\Generated_Source\PSoC4/CapSense.c ****         /* Scan first sensor of widget*/
 693:.\Generated_Source\PSoC4/CapSense.c ****         CapSense_PreScan((uint32)CapSense_sensorIndex);
 694:.\Generated_Source\PSoC4/CapSense.c ****     }
 695:.\Generated_Source\PSoC4/CapSense.c **** }
 696:.\Generated_Source\PSoC4/CapSense.c **** #endif /* (0u != CapSense_CSHL_API_GENERATE) */
 697:.\Generated_Source\PSoC4/CapSense.c **** 
 698:.\Generated_Source\PSoC4/CapSense.c **** 
 699:.\Generated_Source\PSoC4/CapSense.c **** /*******************************************************************************
 700:.\Generated_Source\PSoC4/CapSense.c **** * Function Name: CapSense_ScanEnableWidgets
 701:.\Generated_Source\PSoC4/CapSense.c **** ********************************************************************************
 702:.\Generated_Source\PSoC4/CapSense.c **** *
 703:.\Generated_Source\PSoC4/CapSense.c **** * Summary:
 704:.\Generated_Source\PSoC4/CapSense.c **** *  This is the preferred method to scan all of the enabled widgets.
 705:.\Generated_Source\PSoC4/CapSense.c **** *  The API starts scanning a sensor within the enabled widgets.
 706:.\Generated_Source\PSoC4/CapSense.c **** *  The ISR continues scanning the sensors until all the enabled widgets are scanned.
 707:.\Generated_Source\PSoC4/CapSense.c **** *  Use of the ISR ensures this function is non-blocking.
 708:.\Generated_Source\PSoC4/CapSense.c **** *  All the widgets are enabled by default except proximity widgets.
 709:.\Generated_Source\PSoC4/CapSense.c **** *  The proximity widgets must be manually enabled as their long scan time
 710:.\Generated_Source\PSoC4/CapSense.c **** *  is incompatible with a fast response required of other widget types.
 711:.\Generated_Source\PSoC4/CapSense.c **** *
 712:.\Generated_Source\PSoC4/CapSense.c **** * Parameters:
 713:.\Generated_Source\PSoC4/CapSense.c **** *  None
 714:.\Generated_Source\PSoC4/CapSense.c **** *
 715:.\Generated_Source\PSoC4/CapSense.c **** * Return:
 716:.\Generated_Source\PSoC4/CapSense.c **** *  None
 717:.\Generated_Source\PSoC4/CapSense.c **** *
 718:.\Generated_Source\PSoC4/CapSense.c **** * Global Variables:
 719:.\Generated_Source\PSoC4/CapSense.c **** *  CapSense_csdStatusVar - used to provide the status and mode of the scanning process.
 720:.\Generated_Source\PSoC4/CapSense.c **** *  Sets the busy status(scan in progress) and clears the single scan mode.
 721:.\Generated_Source\PSoC4/CapSense.c **** *  CapSense_sensorIndex - used to store a sensor scanning sensor number.
 722:.\Generated_Source\PSoC4/CapSense.c **** *  Sets to 0xFF and provided to function CapSense_FindNextSensor or
 723:.\Generated_Source\PSoC4/CapSense.c **** *
 724:.\Generated_Source\PSoC4/CapSense.c **** * Side Effects:
 725:.\Generated_Source\PSoC4/CapSense.c **** *  None
 726:.\Generated_Source\PSoC4/CapSense.c **** *
 727:.\Generated_Source\PSoC4/CapSense.c **** *******************************************************************************/
 728:.\Generated_Source\PSoC4/CapSense.c **** void CapSense_ScanEnabledWidgets(void)
 729:.\Generated_Source\PSoC4/CapSense.c **** {
 730:.\Generated_Source\PSoC4/CapSense.c ****     /* Clears status/control variable and set sensorIndex */
ARM GAS  C:\Users\SHOZOK~1\AppData\Local\Temp\cc5HTLHa.s 			page 18


 731:.\Generated_Source\PSoC4/CapSense.c ****     CapSense_csdStatusVar = 0u;
 732:.\Generated_Source\PSoC4/CapSense.c ****     CapSense_sensorIndex = 0xFFu;
 733:.\Generated_Source\PSoC4/CapSense.c **** 
 734:.\Generated_Source\PSoC4/CapSense.c ****     /* Find next sensor */
 735:.\Generated_Source\PSoC4/CapSense.c ****     CapSense_sensorIndex = (uint8)CapSense_FindNextSensor(CapSense_sensorIndex);
 736:.\Generated_Source\PSoC4/CapSense.c **** 
 737:.\Generated_Source\PSoC4/CapSense.c ****     /* Check end of scan condition */
 738:.\Generated_Source\PSoC4/CapSense.c ****     if(CapSense_sensorIndex < CapSense_TOTAL_SENSOR_COUNT)
 739:.\Generated_Source\PSoC4/CapSense.c ****     {
 740:.\Generated_Source\PSoC4/CapSense.c ****         CapSense_csdStatusVar |= CapSense_SW_STS_BUSY;
 741:.\Generated_Source\PSoC4/CapSense.c ****         CapSense_PreScan((uint32)CapSense_sensorIndex);
 742:.\Generated_Source\PSoC4/CapSense.c ****     }
 743:.\Generated_Source\PSoC4/CapSense.c **** }
 744:.\Generated_Source\PSoC4/CapSense.c **** 
 745:.\Generated_Source\PSoC4/CapSense.c **** 
 746:.\Generated_Source\PSoC4/CapSense.c **** /*******************************************************************************
 747:.\Generated_Source\PSoC4/CapSense.c **** * Function Name: CapSense_IsBusy
 748:.\Generated_Source\PSoC4/CapSense.c **** ********************************************************************************
 749:.\Generated_Source\PSoC4/CapSense.c **** *
 750:.\Generated_Source\PSoC4/CapSense.c **** * Summary:
 751:.\Generated_Source\PSoC4/CapSense.c **** *  Returns the state of the CapSense component. 1 means that scanning in
 752:.\Generated_Source\PSoC4/CapSense.c **** *  progress and 0 means that scanning is complete.
 753:.\Generated_Source\PSoC4/CapSense.c **** *
 754:.\Generated_Source\PSoC4/CapSense.c **** * Parameters:
 755:.\Generated_Source\PSoC4/CapSense.c **** *  None
 756:.\Generated_Source\PSoC4/CapSense.c **** *
 757:.\Generated_Source\PSoC4/CapSense.c **** * Return:
 758:.\Generated_Source\PSoC4/CapSense.c **** *  Returns the state of scanning. 1 - scanning in progress, 0 - scanning
 759:.\Generated_Source\PSoC4/CapSense.c **** *  completed.
 760:.\Generated_Source\PSoC4/CapSense.c **** *
 761:.\Generated_Source\PSoC4/CapSense.c **** * Global Variables:
 762:.\Generated_Source\PSoC4/CapSense.c **** *  CapSense_csdStatusVar - used to provide the status and mode of the scanning process.
 763:.\Generated_Source\PSoC4/CapSense.c **** *  Checks the busy status.
 764:.\Generated_Source\PSoC4/CapSense.c **** *
 765:.\Generated_Source\PSoC4/CapSense.c **** * Side Effects:
 766:.\Generated_Source\PSoC4/CapSense.c **** *  None
 767:.\Generated_Source\PSoC4/CapSense.c **** *
 768:.\Generated_Source\PSoC4/CapSense.c **** *******************************************************************************/
 769:.\Generated_Source\PSoC4/CapSense.c **** uint32 CapSense_IsBusy(void)
 770:.\Generated_Source\PSoC4/CapSense.c **** {
 240              		.loc 1 770 0
 241              		.cfi_startproc
 771:.\Generated_Source\PSoC4/CapSense.c ****     return ((uint32)((0u != (CapSense_csdStatusVar & CapSense_SW_STS_BUSY)) ? 1u : 0u));
 242              		.loc 1 771 0
 243 0000 024B     		ldr	r3, .L11
 244 0002 1878     		ldrb	r0, [r3]
 245 0004 0123     		mov	r3, #1
 246 0006 1840     		and	r0, r3
 772:.\Generated_Source\PSoC4/CapSense.c **** }
 247              		.loc 1 772 0
 248              		@ sp needed
 249 0008 7047     		bx	lr
 250              	.L12:
 251 000a C046     		.align	2
 252              	.L11:
 253 000c 00000000 		.word	.LANCHOR0
 254              		.cfi_endproc
ARM GAS  C:\Users\SHOZOK~1\AppData\Local\Temp\cc5HTLHa.s 			page 19


 255              	.LFE42:
 256              		.size	CapSense_IsBusy, .-CapSense_IsBusy
 257              		.section	.text.CapSense_ReadSensorRaw,"ax",%progbits
 258              		.align	2
 259              		.global	CapSense_ReadSensorRaw
 260              		.code	16
 261              		.thumb_func
 262              		.type	CapSense_ReadSensorRaw, %function
 263              	CapSense_ReadSensorRaw:
 264              	.LFB43:
 773:.\Generated_Source\PSoC4/CapSense.c **** 
 774:.\Generated_Source\PSoC4/CapSense.c **** 
 775:.\Generated_Source\PSoC4/CapSense.c **** /*******************************************************************************
 776:.\Generated_Source\PSoC4/CapSense.c **** * Function Name: CapSense_ReadSensorRaw
 777:.\Generated_Source\PSoC4/CapSense.c **** ********************************************************************************
 778:.\Generated_Source\PSoC4/CapSense.c **** *
 779:.\Generated_Source\PSoC4/CapSense.c **** * Summary:
 780:.\Generated_Source\PSoC4/CapSense.c **** *  Returns sensor raw data from the global CapSense_sensorRaw[ ] array.
 781:.\Generated_Source\PSoC4/CapSense.c **** *  Each scan sensor has a unique number within the sensor array.
 782:.\Generated_Source\PSoC4/CapSense.c **** *  This number is assigned by the CapSense customizer in sequence.
 783:.\Generated_Source\PSoC4/CapSense.c **** *  Raw data can be used to perform calculations outside of the CapSense
 784:.\Generated_Source\PSoC4/CapSense.c **** *  provided framework.
 785:.\Generated_Source\PSoC4/CapSense.c **** *
 786:.\Generated_Source\PSoC4/CapSense.c **** * Parameters:
 787:.\Generated_Source\PSoC4/CapSense.c **** *  sensor:  Sensor number.
 788:.\Generated_Source\PSoC4/CapSense.c **** *
 789:.\Generated_Source\PSoC4/CapSense.c **** * Return:
 790:.\Generated_Source\PSoC4/CapSense.c **** *  Returns the current raw data value for a defined sensor number.
 791:.\Generated_Source\PSoC4/CapSense.c **** *
 792:.\Generated_Source\PSoC4/CapSense.c **** * Global Variables:
 793:.\Generated_Source\PSoC4/CapSense.c **** *  CapSense_sensorRaw[] - used to store sensors raw data.
 794:.\Generated_Source\PSoC4/CapSense.c **** *
 795:.\Generated_Source\PSoC4/CapSense.c **** * Side Effects:
 796:.\Generated_Source\PSoC4/CapSense.c **** *  None
 797:.\Generated_Source\PSoC4/CapSense.c **** *
 798:.\Generated_Source\PSoC4/CapSense.c **** *******************************************************************************/
 799:.\Generated_Source\PSoC4/CapSense.c **** uint16 CapSense_ReadSensorRaw(uint32 sensor)
 800:.\Generated_Source\PSoC4/CapSense.c **** {
 265              		.loc 1 800 0
 266              		.cfi_startproc
 267              	.LVL27:
 801:.\Generated_Source\PSoC4/CapSense.c ****     return CapSense_sensorRaw[sensor];
 268              		.loc 1 801 0
 269 0000 4000     		lsl	r0, r0, #1
 270              	.LVL28:
 271 0002 024B     		ldr	r3, .L14
 272 0004 1818     		add	r0, r3, r0
 273 0006 8088     		ldrh	r0, [r0, #4]
 802:.\Generated_Source\PSoC4/CapSense.c **** }
 274              		.loc 1 802 0
 275              		@ sp needed
 276 0008 7047     		bx	lr
 277              	.L15:
 278 000a C046     		.align	2
 279              	.L14:
 280 000c 00000000 		.word	.LANCHOR0
 281              		.cfi_endproc
ARM GAS  C:\Users\SHOZOK~1\AppData\Local\Temp\cc5HTLHa.s 			page 20


 282              	.LFE43:
 283              		.size	CapSense_ReadSensorRaw, .-CapSense_ReadSensorRaw
 284              		.section	.text.CapSense_WriteSensorRaw,"ax",%progbits
 285              		.align	2
 286              		.global	CapSense_WriteSensorRaw
 287              		.code	16
 288              		.thumb_func
 289              		.type	CapSense_WriteSensorRaw, %function
 290              	CapSense_WriteSensorRaw:
 291              	.LFB44:
 803:.\Generated_Source\PSoC4/CapSense.c **** 
 804:.\Generated_Source\PSoC4/CapSense.c **** 
 805:.\Generated_Source\PSoC4/CapSense.c **** /*******************************************************************************
 806:.\Generated_Source\PSoC4/CapSense.c **** * Function Name: CapSense_WriteSensorRaw
 807:.\Generated_Source\PSoC4/CapSense.c **** ********************************************************************************
 808:.\Generated_Source\PSoC4/CapSense.c **** *
 809:.\Generated_Source\PSoC4/CapSense.c **** * Summary:
 810:.\Generated_Source\PSoC4/CapSense.c **** *  This API writes the raw count value passed as an argument to the sensor Raw count array.
 811:.\Generated_Source\PSoC4/CapSense.c **** *
 812:.\Generated_Source\PSoC4/CapSense.c **** * Parameters:
 813:.\Generated_Source\PSoC4/CapSense.c **** *  sensor:  Sensor number.
 814:.\Generated_Source\PSoC4/CapSense.c **** *  value: Raw count value.
 815:.\Generated_Source\PSoC4/CapSense.c **** *
 816:.\Generated_Source\PSoC4/CapSense.c **** * Global Variables:
 817:.\Generated_Source\PSoC4/CapSense.c **** *  CapSense_sensorRaw[] - used to store sensors raw data.
 818:.\Generated_Source\PSoC4/CapSense.c **** *
 819:.\Generated_Source\PSoC4/CapSense.c **** * Return:
 820:.\Generated_Source\PSoC4/CapSense.c **** *  None
 821:.\Generated_Source\PSoC4/CapSense.c **** *
 822:.\Generated_Source\PSoC4/CapSense.c **** * Side Effects:
 823:.\Generated_Source\PSoC4/CapSense.c **** *  None
 824:.\Generated_Source\PSoC4/CapSense.c **** *
 825:.\Generated_Source\PSoC4/CapSense.c **** *******************************************************************************/
 826:.\Generated_Source\PSoC4/CapSense.c **** void CapSense_WriteSensorRaw(uint32 sensor, uint16 value)
 827:.\Generated_Source\PSoC4/CapSense.c **** {
 292              		.loc 1 827 0
 293              		.cfi_startproc
 294              	.LVL29:
 828:.\Generated_Source\PSoC4/CapSense.c ****     CapSense_sensorRaw[sensor] = value;
 295              		.loc 1 828 0
 296 0000 4000     		lsl	r0, r0, #1
 297              	.LVL30:
 298 0002 024B     		ldr	r3, .L17
 299 0004 1818     		add	r0, r3, r0
 300 0006 8180     		strh	r1, [r0, #4]
 829:.\Generated_Source\PSoC4/CapSense.c **** }
 301              		.loc 1 829 0
 302              		@ sp needed
 303 0008 7047     		bx	lr
 304              	.L18:
 305 000a C046     		.align	2
 306              	.L17:
 307 000c 00000000 		.word	.LANCHOR0
 308              		.cfi_endproc
 309              	.LFE44:
 310              		.size	CapSense_WriteSensorRaw, .-CapSense_WriteSensorRaw
 311              		.section	.text.CapSense_SetScanResolution,"ax",%progbits
ARM GAS  C:\Users\SHOZOK~1\AppData\Local\Temp\cc5HTLHa.s 			page 21


 312              		.align	2
 313              		.global	CapSense_SetScanResolution
 314              		.code	16
 315              		.thumb_func
 316              		.type	CapSense_SetScanResolution, %function
 317              	CapSense_SetScanResolution:
 318              	.LFB45:
 830:.\Generated_Source\PSoC4/CapSense.c **** 
 831:.\Generated_Source\PSoC4/CapSense.c **** 
 832:.\Generated_Source\PSoC4/CapSense.c **** #if (CapSense_TUNING_METHOD != CapSense__TUNING_NONE)
 833:.\Generated_Source\PSoC4/CapSense.c ****     /*******************************************************************************
 834:.\Generated_Source\PSoC4/CapSense.c ****     * Function Name: CapSense_SetScanResolution
 835:.\Generated_Source\PSoC4/CapSense.c ****     ********************************************************************************
 836:.\Generated_Source\PSoC4/CapSense.c ****     *
 837:.\Generated_Source\PSoC4/CapSense.c ****     * Summary:
 838:.\Generated_Source\PSoC4/CapSense.c ****     *  Sets a value of the sensor scan resolution for a widget.
 839:.\Generated_Source\PSoC4/CapSense.c ****     *  The MIN resolution can be set 8-bit. The MAX Resolution can be set 16 bit.
 840:.\Generated_Source\PSoC4/CapSense.c ****     *  This function is not available for the tuning mode "None".
 841:.\Generated_Source\PSoC4/CapSense.c ****     *
 842:.\Generated_Source\PSoC4/CapSense.c ****     * Parameters:
 843:.\Generated_Source\PSoC4/CapSense.c ****     *  widget:     Widget index.
 844:.\Generated_Source\PSoC4/CapSense.c ****     *  resolution: Represents the resolution value. The following defines which are available in th
 845:.\Generated_Source\PSoC4/CapSense.c ****     *              CapSense.h file should be used:
 846:.\Generated_Source\PSoC4/CapSense.c ****     *              CapSense_RESOLUTION_6_BITS
 847:.\Generated_Source\PSoC4/CapSense.c ****     *              CapSense_RESOLUTION_7_BITS
 848:.\Generated_Source\PSoC4/CapSense.c ****     *              CapSense_RESOLUTION_8_BITS
 849:.\Generated_Source\PSoC4/CapSense.c ****     *              CapSense_RESOLUTION_9_BITS
 850:.\Generated_Source\PSoC4/CapSense.c ****     *              CapSense_RESOLUTION_10_BITS
 851:.\Generated_Source\PSoC4/CapSense.c ****     *              CapSense_RESOLUTION_11_BITS
 852:.\Generated_Source\PSoC4/CapSense.c ****     *              CapSense_RESOLUTION_12_BITS
 853:.\Generated_Source\PSoC4/CapSense.c ****     *              CapSense_RESOLUTION_13_BITS
 854:.\Generated_Source\PSoC4/CapSense.c ****     *              CapSense_RESOLUTION_14_BITS
 855:.\Generated_Source\PSoC4/CapSense.c ****     *              CapSense_RESOLUTION_15_BITS
 856:.\Generated_Source\PSoC4/CapSense.c ****     *              CapSense_RESOLUTION_16_BITS
 857:.\Generated_Source\PSoC4/CapSense.c ****     *
 858:.\Generated_Source\PSoC4/CapSense.c ****     * Return:
 859:.\Generated_Source\PSoC4/CapSense.c ****     *  None
 860:.\Generated_Source\PSoC4/CapSense.c ****     *
 861:.\Generated_Source\PSoC4/CapSense.c ****     * Global Variables:
 862:.\Generated_Source\PSoC4/CapSense.c ****     *  CapSense_widgetResolution[] - used to store scan resolution of each widget.
 863:.\Generated_Source\PSoC4/CapSense.c ****     *
 864:.\Generated_Source\PSoC4/CapSense.c ****     * Side Effects:
 865:.\Generated_Source\PSoC4/CapSense.c ****     *  None
 866:.\Generated_Source\PSoC4/CapSense.c ****     *
 867:.\Generated_Source\PSoC4/CapSense.c ****     *******************************************************************************/
 868:.\Generated_Source\PSoC4/CapSense.c ****     void CapSense_SetScanResolution(uint32 widget, uint32 resolution)
 869:.\Generated_Source\PSoC4/CapSense.c ****     {
 319              		.loc 1 869 0
 320              		.cfi_startproc
 321              	.LVL31:
 870:.\Generated_Source\PSoC4/CapSense.c ****         CapSense_widgetResolution[widget] = resolution;
 322              		.loc 1 870 0
 323 0000 8000     		lsl	r0, r0, #2
 324              	.LVL32:
 325 0002 014B     		ldr	r3, .L20
 326 0004 C150     		str	r1, [r0, r3]
 871:.\Generated_Source\PSoC4/CapSense.c ****     }
ARM GAS  C:\Users\SHOZOK~1\AppData\Local\Temp\cc5HTLHa.s 			page 22


 327              		.loc 1 871 0
 328              		@ sp needed
 329 0006 7047     		bx	lr
 330              	.L21:
 331              		.align	2
 332              	.L20:
 333 0008 00000000 		.word	.LANCHOR1
 334              		.cfi_endproc
 335              	.LFE45:
 336              		.size	CapSense_SetScanResolution, .-CapSense_SetScanResolution
 337              		.section	.text.CapSense_GetScanResolution,"ax",%progbits
 338              		.align	2
 339              		.global	CapSense_GetScanResolution
 340              		.code	16
 341              		.thumb_func
 342              		.type	CapSense_GetScanResolution, %function
 343              	CapSense_GetScanResolution:
 344              	.LFB46:
 872:.\Generated_Source\PSoC4/CapSense.c **** #endif /* (CapSense_TUNING_METHOD != CapSense__TUNING_NONE) */
 873:.\Generated_Source\PSoC4/CapSense.c **** 
 874:.\Generated_Source\PSoC4/CapSense.c **** 
 875:.\Generated_Source\PSoC4/CapSense.c **** /*******************************************************************************
 876:.\Generated_Source\PSoC4/CapSense.c **** * Function Name: CapSense_GetScanResolution
 877:.\Generated_Source\PSoC4/CapSense.c **** ********************************************************************************
 878:.\Generated_Source\PSoC4/CapSense.c **** *
 879:.\Generated_Source\PSoC4/CapSense.c **** * Summary:
 880:.\Generated_Source\PSoC4/CapSense.c **** *  Returns the resolution value for the appropriate sensor.
 881:.\Generated_Source\PSoC4/CapSense.c **** *  This function is not available for tuning mode "None".
 882:.\Generated_Source\PSoC4/CapSense.c **** *
 883:.\Generated_Source\PSoC4/CapSense.c **** * Parameters:
 884:.\Generated_Source\PSoC4/CapSense.c **** *  widget:     Widget index.
 885:.\Generated_Source\PSoC4/CapSense.c **** *
 886:.\Generated_Source\PSoC4/CapSense.c **** * Return:
 887:.\Generated_Source\PSoC4/CapSense.c **** *  resolution: Returns the resolution value for the appropriate sensor.
 888:.\Generated_Source\PSoC4/CapSense.c **** *              The resolution values are defined in the CapSense.h file
 889:.\Generated_Source\PSoC4/CapSense.c **** *              The defines are encountered below:
 890:.\Generated_Source\PSoC4/CapSense.c **** *              CapSense_RESOLUTION_6_BITS
 891:.\Generated_Source\PSoC4/CapSense.c **** *              CapSense_RESOLUTION_7_BITS
 892:.\Generated_Source\PSoC4/CapSense.c **** *              CapSense_RESOLUTION_8_BITS
 893:.\Generated_Source\PSoC4/CapSense.c **** *              CapSense_RESOLUTION_9_BITS
 894:.\Generated_Source\PSoC4/CapSense.c **** *              CapSense_RESOLUTION_10_BITS
 895:.\Generated_Source\PSoC4/CapSense.c **** *              CapSense_RESOLUTION_11_BITS
 896:.\Generated_Source\PSoC4/CapSense.c **** *              CapSense_RESOLUTION_12_BITS
 897:.\Generated_Source\PSoC4/CapSense.c **** *              CapSense_RESOLUTION_13_BITS
 898:.\Generated_Source\PSoC4/CapSense.c **** *              CapSense_RESOLUTION_14_BITS
 899:.\Generated_Source\PSoC4/CapSense.c **** *              CapSense_RESOLUTION_15_BITS
 900:.\Generated_Source\PSoC4/CapSense.c **** *              CapSense_RESOLUTION_16_BITS
 901:.\Generated_Source\PSoC4/CapSense.c **** *
 902:.\Generated_Source\PSoC4/CapSense.c **** * Global Variables:
 903:.\Generated_Source\PSoC4/CapSense.c **** *  CapSense_widgetResolution[] - used to store scan resolution of every widget.
 904:.\Generated_Source\PSoC4/CapSense.c **** *
 905:.\Generated_Source\PSoC4/CapSense.c **** * Side Effects:
 906:.\Generated_Source\PSoC4/CapSense.c **** *  None
 907:.\Generated_Source\PSoC4/CapSense.c **** *
 908:.\Generated_Source\PSoC4/CapSense.c **** *******************************************************************************/
 909:.\Generated_Source\PSoC4/CapSense.c **** uint32 CapSense_GetScanResolution(uint32 widget)
 910:.\Generated_Source\PSoC4/CapSense.c **** {
ARM GAS  C:\Users\SHOZOK~1\AppData\Local\Temp\cc5HTLHa.s 			page 23


 345              		.loc 1 910 0
 346              		.cfi_startproc
 347              	.LVL33:
 911:.\Generated_Source\PSoC4/CapSense.c ****     return(CapSense_widgetResolution[widget]);
 348              		.loc 1 911 0
 349 0000 8000     		lsl	r0, r0, #2
 350              	.LVL34:
 351 0002 014B     		ldr	r3, .L23
 352 0004 C058     		ldr	r0, [r0, r3]
 912:.\Generated_Source\PSoC4/CapSense.c **** }
 353              		.loc 1 912 0
 354              		@ sp needed
 355 0006 7047     		bx	lr
 356              	.L24:
 357              		.align	2
 358              	.L23:
 359 0008 00000000 		.word	.LANCHOR1
 360              		.cfi_endproc
 361              	.LFE46:
 362              		.size	CapSense_GetScanResolution, .-CapSense_GetScanResolution
 363              		.section	.text.CapSense_EnableSensor,"ax",%progbits
 364              		.align	2
 365              		.global	CapSense_EnableSensor
 366              		.code	16
 367              		.thumb_func
 368              		.type	CapSense_EnableSensor, %function
 369              	CapSense_EnableSensor:
 370              	.LFB48:
 913:.\Generated_Source\PSoC4/CapSense.c **** 
 914:.\Generated_Source\PSoC4/CapSense.c **** 
 915:.\Generated_Source\PSoC4/CapSense.c **** /*******************************************************************************
 916:.\Generated_Source\PSoC4/CapSense.c **** * Function Name: CapSense_ClearSensors
 917:.\Generated_Source\PSoC4/CapSense.c **** ********************************************************************************
 918:.\Generated_Source\PSoC4/CapSense.c **** *
 919:.\Generated_Source\PSoC4/CapSense.c **** * Summary:
 920:.\Generated_Source\PSoC4/CapSense.c **** *  Resets all the sensors to the non-sampling state by sequentially disconnecting
 921:.\Generated_Source\PSoC4/CapSense.c **** *  all the sensors from Analog MUX Bus and putting them to an inactive state.
 922:.\Generated_Source\PSoC4/CapSense.c **** *
 923:.\Generated_Source\PSoC4/CapSense.c **** * Parameters:
 924:.\Generated_Source\PSoC4/CapSense.c **** *  None
 925:.\Generated_Source\PSoC4/CapSense.c **** *
 926:.\Generated_Source\PSoC4/CapSense.c **** * Return:
 927:.\Generated_Source\PSoC4/CapSense.c **** *  None
 928:.\Generated_Source\PSoC4/CapSense.c **** *
 929:.\Generated_Source\PSoC4/CapSense.c **** * Global Variables:
 930:.\Generated_Source\PSoC4/CapSense.c **** *  None
 931:.\Generated_Source\PSoC4/CapSense.c **** *
 932:.\Generated_Source\PSoC4/CapSense.c **** * Side Effects:
 933:.\Generated_Source\PSoC4/CapSense.c **** *  None
 934:.\Generated_Source\PSoC4/CapSense.c **** *
 935:.\Generated_Source\PSoC4/CapSense.c **** *******************************************************************************/
 936:.\Generated_Source\PSoC4/CapSense.c **** void CapSense_ClearSensors(void)
 937:.\Generated_Source\PSoC4/CapSense.c **** {
 938:.\Generated_Source\PSoC4/CapSense.c ****     uint32 snsIndex;
 939:.\Generated_Source\PSoC4/CapSense.c **** 
 940:.\Generated_Source\PSoC4/CapSense.c ****     for (snsIndex = 0u; snsIndex < CapSense_TOTAL_SENSOR_COUNT; snsIndex++)
 941:.\Generated_Source\PSoC4/CapSense.c ****     {
ARM GAS  C:\Users\SHOZOK~1\AppData\Local\Temp\cc5HTLHa.s 			page 24


 942:.\Generated_Source\PSoC4/CapSense.c ****         CapSense_DisableScanSlot(snsIndex);
 943:.\Generated_Source\PSoC4/CapSense.c ****     }
 944:.\Generated_Source\PSoC4/CapSense.c **** }
 945:.\Generated_Source\PSoC4/CapSense.c **** 
 946:.\Generated_Source\PSoC4/CapSense.c **** 
 947:.\Generated_Source\PSoC4/CapSense.c **** #if (CapSense_IS_COMPLEX_SCANSLOTS)
 948:.\Generated_Source\PSoC4/CapSense.c ****     /*******************************************************************************
 949:.\Generated_Source\PSoC4/CapSense.c ****     * Function Name: CapSense_EnableScanSlot
 950:.\Generated_Source\PSoC4/CapSense.c ****     ********************************************************************************
 951:.\Generated_Source\PSoC4/CapSense.c ****     *
 952:.\Generated_Source\PSoC4/CapSense.c ****     * Summary:
 953:.\Generated_Source\PSoC4/CapSense.c ****     *  Configures the selected slot to measure during the next measurement
 954:.\Generated_Source\PSoC4/CapSense.c ****     *  cycle. The corresponding pin/pins are set to Analog High-Z mode and
 955:.\Generated_Source\PSoC4/CapSense.c ****     *  connected to the Analog Mux Bus. This also enables the comparator function.
 956:.\Generated_Source\PSoC4/CapSense.c ****     *
 957:.\Generated_Source\PSoC4/CapSense.c ****     * Parameters:
 958:.\Generated_Source\PSoC4/CapSense.c ****     *  slot:  Slot number.
 959:.\Generated_Source\PSoC4/CapSense.c ****     *
 960:.\Generated_Source\PSoC4/CapSense.c ****     * Return:
 961:.\Generated_Source\PSoC4/CapSense.c ****     *  None
 962:.\Generated_Source\PSoC4/CapSense.c ****     *
 963:.\Generated_Source\PSoC4/CapSense.c ****     * Global Constants:
 964:.\Generated_Source\PSoC4/CapSense.c ****     *  CapSense_portTable[]  - used to store the port number that pin
 965:.\Generated_Source\PSoC4/CapSense.c ****     *  belongs to for each sensor.
 966:.\Generated_Source\PSoC4/CapSense.c ****     *  CapSense_maskTable[]  - used to store the pin within the port for
 967:.\Generated_Source\PSoC4/CapSense.c ****     *  each sensor.
 968:.\Generated_Source\PSoC4/CapSense.c ****     *  CapSense_indexTable[] - used to store indexes of complex sensors.
 969:.\Generated_Source\PSoC4/CapSense.c ****     *  The offset and position in this array are stored in a port and mask table for
 970:.\Generated_Source\PSoC4/CapSense.c ****     *  complex sensors.
 971:.\Generated_Source\PSoC4/CapSense.c ****     *  Bit 7 (msb) is used to define the sensor type: single or complex.
 972:.\Generated_Source\PSoC4/CapSense.c ****     *
 973:.\Generated_Source\PSoC4/CapSense.c ****     * Side Effects:
 974:.\Generated_Source\PSoC4/CapSense.c ****     *  None
 975:.\Generated_Source\PSoC4/CapSense.c ****     *
 976:.\Generated_Source\PSoC4/CapSense.c ****     *******************************************************************************/
 977:.\Generated_Source\PSoC4/CapSense.c ****     void CapSense_EnableScanSlot(uint32 slot)
 978:.\Generated_Source\PSoC4/CapSense.c ****     {
 979:.\Generated_Source\PSoC4/CapSense.c ****         uint8 j;
 980:.\Generated_Source\PSoC4/CapSense.c ****         uint8 snsNumber;
 981:.\Generated_Source\PSoC4/CapSense.c ****         const uint8 *index;
 982:.\Generated_Source\PSoC4/CapSense.c ****         /* Read sensor type: single or complex */
 983:.\Generated_Source\PSoC4/CapSense.c ****         uint8 snsType = CapSense_portTable[slot];
 984:.\Generated_Source\PSoC4/CapSense.c **** 
 985:.\Generated_Source\PSoC4/CapSense.c ****         /* Check if sensor is complex */
 986:.\Generated_Source\PSoC4/CapSense.c ****         if ((snsType & CapSense_COMPLEX_SS_FLAG) == 0u)
 987:.\Generated_Source\PSoC4/CapSense.c ****         {
 988:.\Generated_Source\PSoC4/CapSense.c ****             /* Enable sensor (single) */
 989:.\Generated_Source\PSoC4/CapSense.c ****             CapSense_EnableSensor(slot);
 990:.\Generated_Source\PSoC4/CapSense.c ****         }
 991:.\Generated_Source\PSoC4/CapSense.c ****         else
 992:.\Generated_Source\PSoC4/CapSense.c ****         {
 993:.\Generated_Source\PSoC4/CapSense.c ****             /* Enable complex sensor */
 994:.\Generated_Source\PSoC4/CapSense.c ****             snsType &= ~CapSense_COMPLEX_SS_FLAG;
 995:.\Generated_Source\PSoC4/CapSense.c ****             index = &CapSense_indexTable[snsType];
 996:.\Generated_Source\PSoC4/CapSense.c ****             snsNumber = CapSense_maskTable[slot];
 997:.\Generated_Source\PSoC4/CapSense.c **** 
 998:.\Generated_Source\PSoC4/CapSense.c ****             for (j = 0u; j < snsNumber; j++)
ARM GAS  C:\Users\SHOZOK~1\AppData\Local\Temp\cc5HTLHa.s 			page 25


 999:.\Generated_Source\PSoC4/CapSense.c ****             {
1000:.\Generated_Source\PSoC4/CapSense.c ****                 CapSense_EnableSensor(index[j]);
1001:.\Generated_Source\PSoC4/CapSense.c ****             }
1002:.\Generated_Source\PSoC4/CapSense.c ****         }
1003:.\Generated_Source\PSoC4/CapSense.c ****     }
1004:.\Generated_Source\PSoC4/CapSense.c **** 
1005:.\Generated_Source\PSoC4/CapSense.c **** 
1006:.\Generated_Source\PSoC4/CapSense.c ****     /*******************************************************************************
1007:.\Generated_Source\PSoC4/CapSense.c ****     * Function Name: CapSense_DisableScanSlot
1008:.\Generated_Source\PSoC4/CapSense.c ****     ********************************************************************************
1009:.\Generated_Source\PSoC4/CapSense.c ****     *
1010:.\Generated_Source\PSoC4/CapSense.c ****     * Summary:
1011:.\Generated_Source\PSoC4/CapSense.c ****     *  Disables the selected slot. The corresponding pin/pins is/are disconnected
1012:.\Generated_Source\PSoC4/CapSense.c ****     *  from the Analog Mux Bus and connected to GND, High_Z or Shield electrode.
1013:.\Generated_Source\PSoC4/CapSense.c ****     *
1014:.\Generated_Source\PSoC4/CapSense.c ****     * Parameters:
1015:.\Generated_Source\PSoC4/CapSense.c ****     *  slot:  Slot number.
1016:.\Generated_Source\PSoC4/CapSense.c ****     *
1017:.\Generated_Source\PSoC4/CapSense.c ****     * Return:
1018:.\Generated_Source\PSoC4/CapSense.c ****     *  None
1019:.\Generated_Source\PSoC4/CapSense.c ****     *
1020:.\Generated_Source\PSoC4/CapSense.c ****     * Global Variables:
1021:.\Generated_Source\PSoC4/CapSense.c ****     *  CapSense_portTable[]  - used to store the port number that pin
1022:.\Generated_Source\PSoC4/CapSense.c ****     *  belongs to for each sensor.
1023:.\Generated_Source\PSoC4/CapSense.c ****     *  CapSense_maskTable[]  - used to store the pin within the port for
1024:.\Generated_Source\PSoC4/CapSense.c ****     *  each sensor.
1025:.\Generated_Source\PSoC4/CapSense.c ****     *  CapSense_indexTable[] - used to store indexes of complex sensors.
1026:.\Generated_Source\PSoC4/CapSense.c ****     *  The offset and position in this array are stored in a port and mask table for
1027:.\Generated_Source\PSoC4/CapSense.c ****     *  complex sensors.
1028:.\Generated_Source\PSoC4/CapSense.c ****     *  7bit(msb) is used to define the sensor type: single or complex.
1029:.\Generated_Source\PSoC4/CapSense.c ****     *
1030:.\Generated_Source\PSoC4/CapSense.c ****     * Side Effects:
1031:.\Generated_Source\PSoC4/CapSense.c ****     *  None
1032:.\Generated_Source\PSoC4/CapSense.c ****     *
1033:.\Generated_Source\PSoC4/CapSense.c ****     *******************************************************************************/
1034:.\Generated_Source\PSoC4/CapSense.c ****     void CapSense_DisableScanSlot(uint32 slot)
1035:.\Generated_Source\PSoC4/CapSense.c ****     {
1036:.\Generated_Source\PSoC4/CapSense.c ****         uint8 j;
1037:.\Generated_Source\PSoC4/CapSense.c ****         uint8 snsNumber;
1038:.\Generated_Source\PSoC4/CapSense.c ****         const uint8 *index;
1039:.\Generated_Source\PSoC4/CapSense.c **** 
1040:.\Generated_Source\PSoC4/CapSense.c ****         /* Read sensor type: single or complex */
1041:.\Generated_Source\PSoC4/CapSense.c ****         uint8 snsType = CapSense_portTable[slot];
1042:.\Generated_Source\PSoC4/CapSense.c **** 
1043:.\Generated_Source\PSoC4/CapSense.c ****         /* Check if sensor is complex */
1044:.\Generated_Source\PSoC4/CapSense.c ****         if ((snsType & CapSense_COMPLEX_SS_FLAG) == 0u)
1045:.\Generated_Source\PSoC4/CapSense.c ****         {
1046:.\Generated_Source\PSoC4/CapSense.c ****             /* Disable sensor (single) */
1047:.\Generated_Source\PSoC4/CapSense.c ****             CapSense_DisableSensor(slot);
1048:.\Generated_Source\PSoC4/CapSense.c ****         }
1049:.\Generated_Source\PSoC4/CapSense.c ****         else
1050:.\Generated_Source\PSoC4/CapSense.c ****         {
1051:.\Generated_Source\PSoC4/CapSense.c ****             /* Disable complex sensor */
1052:.\Generated_Source\PSoC4/CapSense.c ****             snsType &= ~CapSense_COMPLEX_SS_FLAG;
1053:.\Generated_Source\PSoC4/CapSense.c ****             index = &CapSense_indexTable[snsType];
1054:.\Generated_Source\PSoC4/CapSense.c ****             snsNumber = CapSense_maskTable[slot];
1055:.\Generated_Source\PSoC4/CapSense.c **** 
ARM GAS  C:\Users\SHOZOK~1\AppData\Local\Temp\cc5HTLHa.s 			page 26


1056:.\Generated_Source\PSoC4/CapSense.c ****             for (j=0; j < snsNumber; j++)
1057:.\Generated_Source\PSoC4/CapSense.c ****             {
1058:.\Generated_Source\PSoC4/CapSense.c ****                 CapSense_DisableSensor(index[j]);
1059:.\Generated_Source\PSoC4/CapSense.c ****             }
1060:.\Generated_Source\PSoC4/CapSense.c ****         }
1061:.\Generated_Source\PSoC4/CapSense.c ****     }
1062:.\Generated_Source\PSoC4/CapSense.c **** #endif  /* CapSense_IS_COMPLEX_SCANSLOTS */
1063:.\Generated_Source\PSoC4/CapSense.c **** 
1064:.\Generated_Source\PSoC4/CapSense.c **** 
1065:.\Generated_Source\PSoC4/CapSense.c **** /*******************************************************************************
1066:.\Generated_Source\PSoC4/CapSense.c **** * Function Name: CapSense_EnableSensor
1067:.\Generated_Source\PSoC4/CapSense.c **** ********************************************************************************
1068:.\Generated_Source\PSoC4/CapSense.c **** *
1069:.\Generated_Source\PSoC4/CapSense.c **** * Summary:
1070:.\Generated_Source\PSoC4/CapSense.c **** *  Configures the selected sensor to measure during the next measurement cycle.
1071:.\Generated_Source\PSoC4/CapSense.c **** *  The corresponding pins are set to Analog High-Z mode and connected to the
1072:.\Generated_Source\PSoC4/CapSense.c **** *  Analog Mux Bus. This also enables the comparator function.
1073:.\Generated_Source\PSoC4/CapSense.c **** *
1074:.\Generated_Source\PSoC4/CapSense.c **** * Parameters:
1075:.\Generated_Source\PSoC4/CapSense.c **** *  sensor:  Sensor number.
1076:.\Generated_Source\PSoC4/CapSense.c **** *
1077:.\Generated_Source\PSoC4/CapSense.c **** * Return:
1078:.\Generated_Source\PSoC4/CapSense.c **** *  None
1079:.\Generated_Source\PSoC4/CapSense.c **** *
1080:.\Generated_Source\PSoC4/CapSense.c **** * Global Variables:
1081:.\Generated_Source\PSoC4/CapSense.c **** *  CapSense_portTable[] - used to store the port number that pin
1082:.\Generated_Source\PSoC4/CapSense.c **** *  belongs to for each sensor.
1083:.\Generated_Source\PSoC4/CapSense.c **** *  CapSense_pinShiftTbl[] - used to store position of pin that
1084:.\Generated_Source\PSoC4/CapSense.c **** *  configured as sensor in port.
1085:.\Generated_Source\PSoC4/CapSense.c **** *  CapSense_prtSelTbl[] - Contains pointers to the HSIOM
1086:.\Generated_Source\PSoC4/CapSense.c **** *  registers for each port.
1087:.\Generated_Source\PSoC4/CapSense.c **** *  CapSense_PrtCfgTb[] - Contains pointers to the port config
1088:.\Generated_Source\PSoC4/CapSense.c **** *  registers for each port.
1089:.\Generated_Source\PSoC4/CapSense.c **** *
1090:.\Generated_Source\PSoC4/CapSense.c **** * Side Effects:
1091:.\Generated_Source\PSoC4/CapSense.c **** *  None
1092:.\Generated_Source\PSoC4/CapSense.c **** *
1093:.\Generated_Source\PSoC4/CapSense.c **** *******************************************************************************/
1094:.\Generated_Source\PSoC4/CapSense.c **** void CapSense_EnableSensor(uint32 sensor)
1095:.\Generated_Source\PSoC4/CapSense.c **** {
 371              		.loc 1 1095 0
 372              		.cfi_startproc
 373              	.LVL35:
 374 0000 F8B5     		push	{r3, r4, r5, r6, r7, lr}
 375              		.cfi_def_cfa_offset 24
 376              		.cfi_offset 3, -24
 377              		.cfi_offset 4, -20
 378              		.cfi_offset 5, -16
 379              		.cfi_offset 6, -12
 380              		.cfi_offset 7, -8
 381              		.cfi_offset 14, -4
1096:.\Generated_Source\PSoC4/CapSense.c ****     uint8  pinModeShift;
1097:.\Generated_Source\PSoC4/CapSense.c ****     uint8  pinHSIOMShift;
1098:.\Generated_Source\PSoC4/CapSense.c ****     uint8 interruptState;
1099:.\Generated_Source\PSoC4/CapSense.c ****     uint32 newRegisterValue;
1100:.\Generated_Source\PSoC4/CapSense.c ****     uint32 port;
1101:.\Generated_Source\PSoC4/CapSense.c **** 
ARM GAS  C:\Users\SHOZOK~1\AppData\Local\Temp\cc5HTLHa.s 			page 27


1102:.\Generated_Source\PSoC4/CapSense.c ****     port = (uint32) CapSense_portTable[sensor];
 382              		.loc 1 1102 0
 383 0002 104F     		ldr	r7, .L26
 384 0004 3C5C     		ldrb	r4, [r7, r0]
 385              	.LVL36:
1103:.\Generated_Source\PSoC4/CapSense.c ****     pinModeShift = CapSense_pinShiftTbl[sensor]  * CapSense_PC_PIN_CFG_SIZE;
 386              		.loc 1 1103 0
 387 0006 3818     		add	r0, r7, r0
 388              	.LVL37:
 389 0008 027C     		ldrb	r2, [r0, #16]
 390 000a 5500     		lsl	r5, r2, #1
 391 000c 5519     		add	r5, r2, r5
 392 000e EDB2     		uxtb	r5, r5
 393              	.LVL38:
1104:.\Generated_Source\PSoC4/CapSense.c ****     pinHSIOMShift = CapSense_pinShiftTbl[sensor] * CapSense_HSIOM_PIN_CFG_SIZE;
 394              		.loc 1 1104 0
 395 0010 9200     		lsl	r2, r2, #2
 396 0012 D6B2     		uxtb	r6, r2
 397              	.LVL39:
1105:.\Generated_Source\PSoC4/CapSense.c **** 
1106:.\Generated_Source\PSoC4/CapSense.c ****     interruptState = CyEnterCriticalSection();
 398              		.loc 1 1106 0
 399 0014 FFF7FEFF 		bl	CyEnterCriticalSection
 400              	.LVL40:
1107:.\Generated_Source\PSoC4/CapSense.c **** 
1108:.\Generated_Source\PSoC4/CapSense.c ****     newRegisterValue = *CapSense_prtSelTbl[port];
 401              		.loc 1 1108 0
 402 0018 A400     		lsl	r4, r4, #2
 403              	.LVL41:
 404 001a 3B19     		add	r3, r7, r4
 405 001c 1C6A     		ldr	r4, [r3, #32]
 406 001e 2268     		ldr	r2, [r4]
 407              	.LVL42:
1109:.\Generated_Source\PSoC4/CapSense.c ****     newRegisterValue &= ~(CapSense_CSD_HSIOM_MASK << pinHSIOMShift);
 408              		.loc 1 1109 0
 409 0020 0F21     		mov	r1, #15
 410 0022 B140     		lsl	r1, r1, r6
 411 0024 8A43     		bic	r2, r1
 412              	.LVL43:
 413 0026 111C     		mov	r1, r2
 414              	.LVL44:
1110:.\Generated_Source\PSoC4/CapSense.c ****     newRegisterValue |= (uint32)((uint32)CapSense_CSD_SENSE_PORT_MODE << pinHSIOMShift);
 415              		.loc 1 1110 0
 416 0028 0422     		mov	r2, #4
 417 002a B240     		lsl	r2, r2, r6
 418 002c 0A43     		orr	r2, r1
 419              	.LVL45:
1111:.\Generated_Source\PSoC4/CapSense.c **** 
1112:.\Generated_Source\PSoC4/CapSense.c ****     *CapSense_prtCfgTbl[port] &= (uint32)~((uint32)CapSense_CSD_PIN_MODE_MASK << pinModeShift);
 420              		.loc 1 1112 0
 421 002e 5E6B     		ldr	r6, [r3, #52]
 422              	.LVL46:
 423 0030 3368     		ldr	r3, [r6]
 424 0032 0721     		mov	r1, #7
 425 0034 A940     		lsl	r1, r1, r5
 426 0036 8B43     		bic	r3, r1
 427 0038 3360     		str	r3, [r6]
ARM GAS  C:\Users\SHOZOK~1\AppData\Local\Temp\cc5HTLHa.s 			page 28


1113:.\Generated_Source\PSoC4/CapSense.c ****     *CapSense_prtSelTbl[port] = newRegisterValue;
 428              		.loc 1 1113 0
 429 003a 2260     		str	r2, [r4]
1114:.\Generated_Source\PSoC4/CapSense.c **** 
1115:.\Generated_Source\PSoC4/CapSense.c ****     CyExitCriticalSection(interruptState);
 430              		.loc 1 1115 0
 431 003c FFF7FEFF 		bl	CyExitCriticalSection
 432              	.LVL47:
1116:.\Generated_Source\PSoC4/CapSense.c **** }
 433              		.loc 1 1116 0
 434              		@ sp needed
 435              	.LVL48:
 436              	.LVL49:
 437 0040 F8BD     		pop	{r3, r4, r5, r6, r7, pc}
 438              	.L27:
 439 0042 C046     		.align	2
 440              	.L26:
 441 0044 00000000 		.word	.LANCHOR2
 442              		.cfi_endproc
 443              	.LFE48:
 444              		.size	CapSense_EnableSensor, .-CapSense_EnableSensor
 445              		.section	.text.CapSense_DisableSensor,"ax",%progbits
 446              		.align	2
 447              		.global	CapSense_DisableSensor
 448              		.code	16
 449              		.thumb_func
 450              		.type	CapSense_DisableSensor, %function
 451              	CapSense_DisableSensor:
 452              	.LFB49:
1117:.\Generated_Source\PSoC4/CapSense.c **** 
1118:.\Generated_Source\PSoC4/CapSense.c **** 
1119:.\Generated_Source\PSoC4/CapSense.c **** /*******************************************************************************
1120:.\Generated_Source\PSoC4/CapSense.c **** * Function Name: CapSense_DisableSensor
1121:.\Generated_Source\PSoC4/CapSense.c **** ********************************************************************************
1122:.\Generated_Source\PSoC4/CapSense.c **** *
1123:.\Generated_Source\PSoC4/CapSense.c **** * Summary:
1124:.\Generated_Source\PSoC4/CapSense.c **** *  Disables the selected sensor. The corresponding pin is disconnected from the
1125:.\Generated_Source\PSoC4/CapSense.c **** *  Analog Mux Bus and connected to GND, High_Z or Shield electrode.
1126:.\Generated_Source\PSoC4/CapSense.c **** *
1127:.\Generated_Source\PSoC4/CapSense.c **** * Parameters:
1128:.\Generated_Source\PSoC4/CapSense.c **** *  sensor:  Sensor number
1129:.\Generated_Source\PSoC4/CapSense.c **** *
1130:.\Generated_Source\PSoC4/CapSense.c **** * Return:
1131:.\Generated_Source\PSoC4/CapSense.c **** *  None
1132:.\Generated_Source\PSoC4/CapSense.c **** *
1133:.\Generated_Source\PSoC4/CapSense.c **** * Global Variables:
1134:.\Generated_Source\PSoC4/CapSense.c **** *  CapSense_portTable[] - used to store the port number that pin
1135:.\Generated_Source\PSoC4/CapSense.c **** *  belongs to for each sensor.
1136:.\Generated_Source\PSoC4/CapSense.c **** *  CapSense_pinShiftTbl[] - used to store position of pin that
1137:.\Generated_Source\PSoC4/CapSense.c **** *  configured as a sensor in the port.
1138:.\Generated_Source\PSoC4/CapSense.c **** *  CapSense_prtSelTbl[] - Contains pointers to the HSIOM
1139:.\Generated_Source\PSoC4/CapSense.c **** *  registers for each port.
1140:.\Generated_Source\PSoC4/CapSense.c **** *  CapSense_PrtCfgTb[] - Contains pointers to the port config
1141:.\Generated_Source\PSoC4/CapSense.c **** *  registers for each port.
1142:.\Generated_Source\PSoC4/CapSense.c **** *
1143:.\Generated_Source\PSoC4/CapSense.c **** * Side Effects:
1144:.\Generated_Source\PSoC4/CapSense.c **** *  None
ARM GAS  C:\Users\SHOZOK~1\AppData\Local\Temp\cc5HTLHa.s 			page 29


1145:.\Generated_Source\PSoC4/CapSense.c **** *
1146:.\Generated_Source\PSoC4/CapSense.c **** *******************************************************************************/
1147:.\Generated_Source\PSoC4/CapSense.c **** void CapSense_DisableSensor(uint32 sensor)
1148:.\Generated_Source\PSoC4/CapSense.c **** {
 453              		.loc 1 1148 0
 454              		.cfi_startproc
 455              	.LVL50:
 456 0000 F8B5     		push	{r3, r4, r5, r6, r7, lr}
 457              		.cfi_def_cfa_offset 24
 458              		.cfi_offset 3, -24
 459              		.cfi_offset 4, -20
 460              		.cfi_offset 5, -16
 461              		.cfi_offset 6, -12
 462              		.cfi_offset 7, -8
 463              		.cfi_offset 14, -4
1149:.\Generated_Source\PSoC4/CapSense.c ****     uint8 interruptState;
1150:.\Generated_Source\PSoC4/CapSense.c ****     uint32 newRegisterValue;
1151:.\Generated_Source\PSoC4/CapSense.c **** 
1152:.\Generated_Source\PSoC4/CapSense.c ****     uint32 port = (uint32) CapSense_portTable[sensor];
 464              		.loc 1 1152 0
 465 0002 1949     		ldr	r1, .L33
 466 0004 0C5C     		ldrb	r4, [r1, r0]
 467              	.LVL51:
1153:.\Generated_Source\PSoC4/CapSense.c ****     uint8  pinHSIOMShift = CapSense_pinShiftTbl[sensor] * CapSense_HSIOM_PIN_CFG_SIZE;
 468              		.loc 1 1153 0
 469 0006 0B18     		add	r3, r1, r0
 470 0008 1E7C     		ldrb	r6, [r3, #16]
 471 000a B200     		lsl	r2, r6, #2
 472 000c D2B2     		uxtb	r2, r2
 473              	.LVL52:
1154:.\Generated_Source\PSoC4/CapSense.c ****     uint8  pinModeShift = CapSense_pinShiftTbl[sensor]  * CapSense_PC_PIN_CFG_SIZE;
 474              		.loc 1 1154 0
 475 000e 7500     		lsl	r5, r6, #1
 476 0010 7519     		add	r5, r6, r5
 477 0012 EDB2     		uxtb	r5, r5
 478              	.LVL53:
1155:.\Generated_Source\PSoC4/CapSense.c **** 
1156:.\Generated_Source\PSoC4/CapSense.c ****     uint32 inactiveConnect = CapSense_SNS_HIZANALOG_CONNECT;
1157:.\Generated_Source\PSoC4/CapSense.c ****     uint32 sensorState = CapSense_unscannedSnsDriveMode[sensor];
 479              		.loc 1 1157 0
 480 0014 154B     		ldr	r3, .L33+4
 481 0016 185C     		ldrb	r0, [r3, r0]
 482              	.LVL54:
1158:.\Generated_Source\PSoC4/CapSense.c **** 
1159:.\Generated_Source\PSoC4/CapSense.c ****     *CapSense_prtSelTbl[port] &= ~(CapSense_CSD_HSIOM_MASK << pinHSIOMShift);
 483              		.loc 1 1159 0
 484 0018 A300     		lsl	r3, r4, #2
 485 001a CB18     		add	r3, r1, r3
 486 001c 1F6A     		ldr	r7, [r3, #32]
 487 001e 3B68     		ldr	r3, [r7]
 488 0020 0F21     		mov	r1, #15
 489 0022 9140     		lsl	r1, r1, r2
 490 0024 8B43     		bic	r3, r1
 491 0026 3B60     		str	r3, [r7]
1160:.\Generated_Source\PSoC4/CapSense.c **** 
1161:.\Generated_Source\PSoC4/CapSense.c ****     #if(CapSense_IS_SHIELD_ENABLE != 0)
1162:.\Generated_Source\PSoC4/CapSense.c ****     if(sensorState != (uint32)CapSense__SHIELD)
ARM GAS  C:\Users\SHOZOK~1\AppData\Local\Temp\cc5HTLHa.s 			page 30


1163:.\Generated_Source\PSoC4/CapSense.c ****     {
1164:.\Generated_Source\PSoC4/CapSense.c ****     #else
1165:.\Generated_Source\PSoC4/CapSense.c ****         /* Connected to Ground if shield is disabled */
1166:.\Generated_Source\PSoC4/CapSense.c ****         if(sensorState == (uint32)CapSense__SHIELD)
 492              		.loc 1 1166 0
 493 0028 0228     		cmp	r0, #2
 494 002a 00D1     		bne	.L29
1167:.\Generated_Source\PSoC4/CapSense.c ****         {
1168:.\Generated_Source\PSoC4/CapSense.c ****             sensorState = (uint32)CapSense__GROUND;
 495              		.loc 1 1168 0
 496 002c 0020     		mov	r0, #0
 497              	.LVL55:
 498              	.L29:
1169:.\Generated_Source\PSoC4/CapSense.c ****         }
1170:.\Generated_Source\PSoC4/CapSense.c ****     #endif /* (CapSense_IS_SHIELD_ENABLE) */
1171:.\Generated_Source\PSoC4/CapSense.c ****         if(sensorState != (uint32)CapSense__HIZ_ANALOG)
 499              		.loc 1 1171 0
 500 002e 0128     		cmp	r0, #1
 501 0030 01D1     		bne	.L32
1156:.\Generated_Source\PSoC4/CapSense.c ****     uint32 sensorState = CapSense_unscannedSnsDriveMode[sensor];
 502              		.loc 1 1156 0
 503 0032 0027     		mov	r7, #0
 504 0034 00E0     		b	.L30
 505              	.L32:
1172:.\Generated_Source\PSoC4/CapSense.c ****         {
1173:.\Generated_Source\PSoC4/CapSense.c ****             /* Connected to Ground */
1174:.\Generated_Source\PSoC4/CapSense.c ****             inactiveConnect = (uint32)CapSense_SNS_GROUND_CONNECT;
 506              		.loc 1 1174 0
 507 0036 0627     		mov	r7, #6
 508              	.L30:
 509              	.LVL56:
1175:.\Generated_Source\PSoC4/CapSense.c ****         }
1176:.\Generated_Source\PSoC4/CapSense.c **** 
1177:.\Generated_Source\PSoC4/CapSense.c ****         interruptState = CyEnterCriticalSection();
 510              		.loc 1 1177 0
 511 0038 FFF7FEFF 		bl	CyEnterCriticalSection
 512              	.LVL57:
1178:.\Generated_Source\PSoC4/CapSense.c **** 
1179:.\Generated_Source\PSoC4/CapSense.c ****         /* Set drive mode */
1180:.\Generated_Source\PSoC4/CapSense.c ****         newRegisterValue = *CapSense_prtCfgTbl[port];
 513              		.loc 1 1180 0
 514 003c A400     		lsl	r4, r4, #2
 515              	.LVL58:
 516 003e 0A4B     		ldr	r3, .L33
 517              	.LVL59:
 518 0040 1C19     		add	r4, r3, r4
 519 0042 616B     		ldr	r1, [r4, #52]
 520 0044 0B68     		ldr	r3, [r1]
 521              	.LVL60:
1181:.\Generated_Source\PSoC4/CapSense.c ****         newRegisterValue &= ~(CapSense_CSD_PIN_MODE_MASK << pinModeShift);
 522              		.loc 1 1181 0
 523 0046 0722     		mov	r2, #7
 524 0048 AA40     		lsl	r2, r2, r5
 525 004a 9343     		bic	r3, r2
 526              	.LVL61:
 527 004c 1A1C     		mov	r2, r3
 528              	.LVL62:
ARM GAS  C:\Users\SHOZOK~1\AppData\Local\Temp\cc5HTLHa.s 			page 31


1182:.\Generated_Source\PSoC4/CapSense.c ****         newRegisterValue |=  (uint32)(inactiveConnect << pinModeShift);
 529              		.loc 1 1182 0
 530 004e 3B1C     		mov	r3, r7
 531 0050 AB40     		lsl	r3, r3, r5
 532 0052 1343     		orr	r3, r2
 533              	.LVL63:
1183:.\Generated_Source\PSoC4/CapSense.c ****         *CapSense_prtCfgTbl[port] =  newRegisterValue;
 534              		.loc 1 1183 0
 535 0054 0B60     		str	r3, [r1]
1184:.\Generated_Source\PSoC4/CapSense.c **** 
1185:.\Generated_Source\PSoC4/CapSense.c ****         CyExitCriticalSection(interruptState);
 536              		.loc 1 1185 0
 537 0056 FFF7FEFF 		bl	CyExitCriticalSection
 538              	.LVL64:
1186:.\Generated_Source\PSoC4/CapSense.c **** 
1187:.\Generated_Source\PSoC4/CapSense.c ****         *CapSense_prtDRTbl[port]  &=  (uint32)~(uint32)((uint32)1u << CapSense_pinShiftTbl[sensor])
 539              		.loc 1 1187 0
 540 005a A16C     		ldr	r1, [r4, #72]
 541 005c 0B68     		ldr	r3, [r1]
 542 005e 0122     		mov	r2, #1
 543 0060 B240     		lsl	r2, r2, r6
 544 0062 9343     		bic	r3, r2
 545 0064 0B60     		str	r3, [r1]
1188:.\Generated_Source\PSoC4/CapSense.c ****     #if(CapSense_IS_SHIELD_ENABLE != 0)
1189:.\Generated_Source\PSoC4/CapSense.c ****     }
1190:.\Generated_Source\PSoC4/CapSense.c ****     else
1191:.\Generated_Source\PSoC4/CapSense.c ****     {
1192:.\Generated_Source\PSoC4/CapSense.c ****         /* Connect to Shield */
1193:.\Generated_Source\PSoC4/CapSense.c ****         *CapSense_prtSelTbl[port] |= (CapSense_CSD_SHIELD_PORT_MODE << pinHSIOMShift);
1194:.\Generated_Source\PSoC4/CapSense.c ****     }
1195:.\Generated_Source\PSoC4/CapSense.c ****     #endif /* (CapSense_IS_SHIELD_ENABLE) */
1196:.\Generated_Source\PSoC4/CapSense.c **** }
 546              		.loc 1 1196 0
 547              		@ sp needed
 548              	.LVL65:
 549              	.LVL66:
 550              	.LVL67:
 551 0066 F8BD     		pop	{r3, r4, r5, r6, r7, pc}
 552              	.L34:
 553              		.align	2
 554              	.L33:
 555 0068 00000000 		.word	.LANCHOR2
 556 006c 00000000 		.word	CapSense_unscannedSnsDriveMode
 557              		.cfi_endproc
 558              	.LFE49:
 559              		.size	CapSense_DisableSensor, .-CapSense_DisableSensor
 560              		.section	.text.CapSense_ClearSensors,"ax",%progbits
 561              		.align	2
 562              		.global	CapSense_ClearSensors
 563              		.code	16
 564              		.thumb_func
 565              		.type	CapSense_ClearSensors, %function
 566              	CapSense_ClearSensors:
 567              	.LFB47:
 937:.\Generated_Source\PSoC4/CapSense.c ****     uint32 snsIndex;
 568              		.loc 1 937 0
 569              		.cfi_startproc
ARM GAS  C:\Users\SHOZOK~1\AppData\Local\Temp\cc5HTLHa.s 			page 32


 570 0000 10B5     		push	{r4, lr}
 571              		.cfi_def_cfa_offset 8
 572              		.cfi_offset 4, -8
 573              		.cfi_offset 14, -4
 574              	.LVL68:
 940:.\Generated_Source\PSoC4/CapSense.c ****     {
 575              		.loc 1 940 0
 576 0002 0024     		mov	r4, #0
 577 0004 03E0     		b	.L36
 578              	.LVL69:
 579              	.L37:
 942:.\Generated_Source\PSoC4/CapSense.c ****     }
 580              		.loc 1 942 0 discriminator 3
 581 0006 201C     		mov	r0, r4
 582 0008 FFF7FEFF 		bl	CapSense_DisableSensor
 583              	.LVL70:
 940:.\Generated_Source\PSoC4/CapSense.c ****     {
 584              		.loc 1 940 0 discriminator 3
 585 000c 0134     		add	r4, r4, #1
 586              	.LVL71:
 587              	.L36:
 940:.\Generated_Source\PSoC4/CapSense.c ****     {
 588              		.loc 1 940 0 is_stmt 0 discriminator 1
 589 000e 0C2C     		cmp	r4, #12
 590 0010 F9D9     		bls	.L37
 944:.\Generated_Source\PSoC4/CapSense.c **** 
 591              		.loc 1 944 0 is_stmt 1
 592              		@ sp needed
 593              	.LVL72:
 594 0012 10BD     		pop	{r4, pc}
 595              		.cfi_endproc
 596              	.LFE47:
 597              		.size	CapSense_ClearSensors, .-CapSense_ClearSensors
 598              		.section	.text.CapSense_SetPinDriveMode,"ax",%progbits
 599              		.align	2
 600              		.global	CapSense_SetPinDriveMode
 601              		.code	16
 602              		.thumb_func
 603              		.type	CapSense_SetPinDriveMode, %function
 604              	CapSense_SetPinDriveMode:
 605              	.LFB52:
1197:.\Generated_Source\PSoC4/CapSense.c **** 
1198:.\Generated_Source\PSoC4/CapSense.c **** 
1199:.\Generated_Source\PSoC4/CapSense.c **** /*******************************************************************************
1200:.\Generated_Source\PSoC4/CapSense.c **** * Function Name: CapSense_SetDriveModeAllPins
1201:.\Generated_Source\PSoC4/CapSense.c **** ********************************************************************************
1202:.\Generated_Source\PSoC4/CapSense.c **** *
1203:.\Generated_Source\PSoC4/CapSense.c **** * Summary:
1204:.\Generated_Source\PSoC4/CapSense.c **** * This API sets the drive mode of port pins used by the CapSense
1205:.\Generated_Source\PSoC4/CapSense.c **** * component (sensors, guard, shield, shield tank and Cmod) to drive the
1206:.\Generated_Source\PSoC4/CapSense.c **** * mode specified by the argument.
1207:.\Generated_Source\PSoC4/CapSense.c **** *
1208:.\Generated_Source\PSoC4/CapSense.c **** * Parameters:
1209:.\Generated_Source\PSoC4/CapSense.c **** *  driveMode:  Drive mode definition.
1210:.\Generated_Source\PSoC4/CapSense.c **** *
1211:.\Generated_Source\PSoC4/CapSense.c **** * Return:
1212:.\Generated_Source\PSoC4/CapSense.c **** *  None
ARM GAS  C:\Users\SHOZOK~1\AppData\Local\Temp\cc5HTLHa.s 			page 33


1213:.\Generated_Source\PSoC4/CapSense.c **** *
1214:.\Generated_Source\PSoC4/CapSense.c **** * Global Variables:
1215:.\Generated_Source\PSoC4/CapSense.c **** *  CapSense_portTable[] - used to store the port number that pin
1216:.\Generated_Source\PSoC4/CapSense.c **** *  belongs to for each sensor.
1217:.\Generated_Source\PSoC4/CapSense.c **** *  CapSense_pinShiftTbl[] - used to store position of pin that
1218:.\Generated_Source\PSoC4/CapSense.c **** *  configured as a sensor in the port.
1219:.\Generated_Source\PSoC4/CapSense.c **** *
1220:.\Generated_Source\PSoC4/CapSense.c **** * Side Effects:
1221:.\Generated_Source\PSoC4/CapSense.c **** *  This API shall be called only after CapSense component is stopped.
1222:.\Generated_Source\PSoC4/CapSense.c **** *
1223:.\Generated_Source\PSoC4/CapSense.c **** *******************************************************************************/
1224:.\Generated_Source\PSoC4/CapSense.c **** void CapSense_SetDriveModeAllPins(uint32 driveMode)
1225:.\Generated_Source\PSoC4/CapSense.c **** {
1226:.\Generated_Source\PSoC4/CapSense.c ****     uint8 curSensor;
1227:.\Generated_Source\PSoC4/CapSense.c ****     #if (CapSense_IS_COMPLEX_SCANSLOTS)
1228:.\Generated_Source\PSoC4/CapSense.c ****         uint8 snsNumber;
1229:.\Generated_Source\PSoC4/CapSense.c ****         uint8 snsType;
1230:.\Generated_Source\PSoC4/CapSense.c ****     #endif  /* CapSense_IS_COMPLEX_SCANSLOTS */
1231:.\Generated_Source\PSoC4/CapSense.c ****     uint32 prtNumberTmp;
1232:.\Generated_Source\PSoC4/CapSense.c ****     uint32 pinNumberTmp;
1233:.\Generated_Source\PSoC4/CapSense.c **** 
1234:.\Generated_Source\PSoC4/CapSense.c ****     for(curSensor = 0u; curSensor < CapSense_TOTAL_SENSOR_COUNT; curSensor++)
1235:.\Generated_Source\PSoC4/CapSense.c ****     {
1236:.\Generated_Source\PSoC4/CapSense.c ****         #if (CapSense_IS_COMPLEX_SCANSLOTS)
1237:.\Generated_Source\PSoC4/CapSense.c ****             /* Read sensor type: single or complex */
1238:.\Generated_Source\PSoC4/CapSense.c ****             snsType = CapSense_portTable[curSensor];
1239:.\Generated_Source\PSoC4/CapSense.c **** 
1240:.\Generated_Source\PSoC4/CapSense.c ****             /* Check if sensor is complex */
1241:.\Generated_Source\PSoC4/CapSense.c ****             if ((snsType & CapSense_COMPLEX_SS_FLAG) == 0u)
1242:.\Generated_Source\PSoC4/CapSense.c ****             {
1243:.\Generated_Source\PSoC4/CapSense.c ****                 /* The sensor is not complex */
1244:.\Generated_Source\PSoC4/CapSense.c ****                 snsNumber = curSensor;
1245:.\Generated_Source\PSoC4/CapSense.c ****             }
1246:.\Generated_Source\PSoC4/CapSense.c ****             else
1247:.\Generated_Source\PSoC4/CapSense.c ****             {
1248:.\Generated_Source\PSoC4/CapSense.c ****                 /* Get dedicated sensor ID of the complex sensor */
1249:.\Generated_Source\PSoC4/CapSense.c ****                 snsType &= ~CapSense_COMPLEX_SS_FLAG;
1250:.\Generated_Source\PSoC4/CapSense.c ****                 snsNumber = CapSense_indexTable[snsType];
1251:.\Generated_Source\PSoC4/CapSense.c ****             }
1252:.\Generated_Source\PSoC4/CapSense.c **** 
1253:.\Generated_Source\PSoC4/CapSense.c ****             prtNumberTmp = CapSense_portTable[snsNumber];
1254:.\Generated_Source\PSoC4/CapSense.c ****             pinNumberTmp = CapSense_pinShiftTbl[snsNumber];
1255:.\Generated_Source\PSoC4/CapSense.c ****         #else
1256:.\Generated_Source\PSoC4/CapSense.c ****             prtNumberTmp = CapSense_portTable[curSensor];
1257:.\Generated_Source\PSoC4/CapSense.c ****             pinNumberTmp = CapSense_pinShiftTbl[curSensor];
1258:.\Generated_Source\PSoC4/CapSense.c ****         #endif  /* CapSense_IS_COMPLEX_SCANSLOTS */
1259:.\Generated_Source\PSoC4/CapSense.c **** 
1260:.\Generated_Source\PSoC4/CapSense.c ****         CapSense_SetPinDriveMode(driveMode, pinNumberTmp, prtNumberTmp);
1261:.\Generated_Source\PSoC4/CapSense.c ****     }
1262:.\Generated_Source\PSoC4/CapSense.c **** 
1263:.\Generated_Source\PSoC4/CapSense.c ****     CapSense_SetPinDriveMode(driveMode, (uint32)CapSense_CMOD_PIN_NUMBER, (uint32)CapSense_CMOD_PRT
1264:.\Generated_Source\PSoC4/CapSense.c **** 
1265:.\Generated_Source\PSoC4/CapSense.c ****     #if(0u != CapSense_CSH_TANK_ENABLE)
1266:.\Generated_Source\PSoC4/CapSense.c ****         CapSense_SetPinDriveMode(driveMode, (uint32)CapSense_CTANK_PIN_NUMBER, (uint32)CapSense_CTA
1267:.\Generated_Source\PSoC4/CapSense.c ****     #endif /* (0u != CapSense_CSH_TANK_ENABLE) */
1268:.\Generated_Source\PSoC4/CapSense.c **** 
1269:.\Generated_Source\PSoC4/CapSense.c ****     #if(0u != CapSense_IS_SHIELD_ENABLE)
ARM GAS  C:\Users\SHOZOK~1\AppData\Local\Temp\cc5HTLHa.s 			page 34


1270:.\Generated_Source\PSoC4/CapSense.c ****         CapSense_SetPinDriveMode(driveMode, (uint32)CapSense_SHIELD_PIN_NUMBER, (uint32)CapSense_SH
1271:.\Generated_Source\PSoC4/CapSense.c ****     #endif /* (0u != CapSense_IS_SHIELD_ENABLE) */
1272:.\Generated_Source\PSoC4/CapSense.c **** }
1273:.\Generated_Source\PSoC4/CapSense.c **** 
1274:.\Generated_Source\PSoC4/CapSense.c **** 
1275:.\Generated_Source\PSoC4/CapSense.c **** /*******************************************************************************
1276:.\Generated_Source\PSoC4/CapSense.c **** * Function Name: CapSense_RestoreDriveModeAllPins
1277:.\Generated_Source\PSoC4/CapSense.c **** ********************************************************************************
1278:.\Generated_Source\PSoC4/CapSense.c **** *
1279:.\Generated_Source\PSoC4/CapSense.c **** * Summary:
1280:.\Generated_Source\PSoC4/CapSense.c **** *  This API restores the drive for all the CapSense port pins to the original
1281:.\Generated_Source\PSoC4/CapSense.c **** *  state.
1282:.\Generated_Source\PSoC4/CapSense.c **** *
1283:.\Generated_Source\PSoC4/CapSense.c **** * Parameters:
1284:.\Generated_Source\PSoC4/CapSense.c **** *  None
1285:.\Generated_Source\PSoC4/CapSense.c **** *
1286:.\Generated_Source\PSoC4/CapSense.c **** * Return:
1287:.\Generated_Source\PSoC4/CapSense.c **** *  None
1288:.\Generated_Source\PSoC4/CapSense.c **** *
1289:.\Generated_Source\PSoC4/CapSense.c **** * Global Variables:
1290:.\Generated_Source\PSoC4/CapSense.c **** *  CapSense_prtSelTbl[] - Contains pointers to the HSIOM
1291:.\Generated_Source\PSoC4/CapSense.c **** *  registers for each port.
1292:.\Generated_Source\PSoC4/CapSense.c **** *
1293:.\Generated_Source\PSoC4/CapSense.c **** * Side Effects:
1294:.\Generated_Source\PSoC4/CapSense.c **** *  This API is called only after the CapSense component is stopped.
1295:.\Generated_Source\PSoC4/CapSense.c **** *
1296:.\Generated_Source\PSoC4/CapSense.c **** *******************************************************************************/
1297:.\Generated_Source\PSoC4/CapSense.c **** void CapSense_RestoreDriveModeAllPins(void)
1298:.\Generated_Source\PSoC4/CapSense.c **** {
1299:.\Generated_Source\PSoC4/CapSense.c ****     uint32 newRegisterValue;
1300:.\Generated_Source\PSoC4/CapSense.c **** 
1301:.\Generated_Source\PSoC4/CapSense.c ****     CapSense_SetDriveModeAllPins(CY_SYS_PINS_DM_ALG_HIZ);
1302:.\Generated_Source\PSoC4/CapSense.c **** 
1303:.\Generated_Source\PSoC4/CapSense.c ****     newRegisterValue = CapSense_CMOD_CONNECTION_REG;
1304:.\Generated_Source\PSoC4/CapSense.c ****     newRegisterValue &= ~(CapSense_CSD_CMOD_CONNECTION_MASK);
1305:.\Generated_Source\PSoC4/CapSense.c ****     newRegisterValue |= CapSense_CSD_CMOD_TO_AMUXBUS_A;
1306:.\Generated_Source\PSoC4/CapSense.c ****     CapSense_CMOD_CONNECTION_REG = newRegisterValue;
1307:.\Generated_Source\PSoC4/CapSense.c **** 
1308:.\Generated_Source\PSoC4/CapSense.c ****     #if(0u != CapSense_CSH_TANK_ENABLE)
1309:.\Generated_Source\PSoC4/CapSense.c ****         newRegisterValue = CapSense_CTANK_CONNECTION_REG;
1310:.\Generated_Source\PSoC4/CapSense.c ****         newRegisterValue &= ~(CapSense_CSD_CTANK_CONNECTION_MASK);
1311:.\Generated_Source\PSoC4/CapSense.c ****         newRegisterValue |= CapSense_CSD_CTANK_TO_AMUXBUS_B;
1312:.\Generated_Source\PSoC4/CapSense.c ****         CapSense_CTANK_CONNECTION_REG = newRegisterValue;
1313:.\Generated_Source\PSoC4/CapSense.c ****     #endif/* (0u != CapSense_CSH_TANK_ENABLE) */
1314:.\Generated_Source\PSoC4/CapSense.c **** 
1315:.\Generated_Source\PSoC4/CapSense.c ****     #if(0u != CapSense_IS_SHIELD_ENABLE)
1316:.\Generated_Source\PSoC4/CapSense.c ****         newRegisterValue = *CapSense_prtSelTbl[CapSense_SHIELD_PORT_NUMBER];
1317:.\Generated_Source\PSoC4/CapSense.c ****         newRegisterValue &= ~(CapSense_CSD_HSIOM_MASK << ((uint32)CapSense_SHIELD_PIN_NUMBER * CapS
1318:.\Generated_Source\PSoC4/CapSense.c ****         newRegisterValue |= (CapSense_CSD_SHIELD_PORT_MODE << ((uint32)CapSense_SHIELD_PIN_NUMBER *
1319:.\Generated_Source\PSoC4/CapSense.c ****         *CapSense_prtSelTbl[CapSense_SHIELD_PORT_NUMBER] = newRegisterValue;
1320:.\Generated_Source\PSoC4/CapSense.c ****     #endif /* (0u != CapSense_IS_SHIELD_ENABLE) */
1321:.\Generated_Source\PSoC4/CapSense.c **** }
1322:.\Generated_Source\PSoC4/CapSense.c **** 
1323:.\Generated_Source\PSoC4/CapSense.c **** 
1324:.\Generated_Source\PSoC4/CapSense.c **** /*******************************************************************************
1325:.\Generated_Source\PSoC4/CapSense.c **** * Function Name: CapSense_SetPinDriveMode
1326:.\Generated_Source\PSoC4/CapSense.c **** ********************************************************************************
ARM GAS  C:\Users\SHOZOK~1\AppData\Local\Temp\cc5HTLHa.s 			page 35


1327:.\Generated_Source\PSoC4/CapSense.c **** *
1328:.\Generated_Source\PSoC4/CapSense.c **** * Summary:
1329:.\Generated_Source\PSoC4/CapSense.c **** * This API sets the drive mode for the appropriate port/pin.
1330:.\Generated_Source\PSoC4/CapSense.c **** *
1331:.\Generated_Source\PSoC4/CapSense.c **** * Parameters:
1332:.\Generated_Source\PSoC4/CapSense.c **** *  driveMode:  Drive mode definition.
1333:.\Generated_Source\PSoC4/CapSense.c **** *  portNumber: contains port number (0, 1, 2).
1334:.\Generated_Source\PSoC4/CapSense.c **** *  pinNumber: contains pin number (0, 1, 2, ... , 7).
1335:.\Generated_Source\PSoC4/CapSense.c **** *
1336:.\Generated_Source\PSoC4/CapSense.c **** * Return:
1337:.\Generated_Source\PSoC4/CapSense.c **** *  None
1338:.\Generated_Source\PSoC4/CapSense.c **** *
1339:.\Generated_Source\PSoC4/CapSense.c **** * Global Variables:
1340:.\Generated_Source\PSoC4/CapSense.c **** *  CapSense_prtSelTbl[] - Contains pointers to the HSIOM
1341:.\Generated_Source\PSoC4/CapSense.c **** *  registers for each port.
1342:.\Generated_Source\PSoC4/CapSense.c **** *  CapSense_prtCfgTb[] - Contains pointers to the port config
1343:.\Generated_Source\PSoC4/CapSense.c **** *  registers for each port.
1344:.\Generated_Source\PSoC4/CapSense.c **** *
1345:.\Generated_Source\PSoC4/CapSense.c **** * Side Effects:
1346:.\Generated_Source\PSoC4/CapSense.c **** *  This API is called only after CapSense component is stopped.
1347:.\Generated_Source\PSoC4/CapSense.c **** *
1348:.\Generated_Source\PSoC4/CapSense.c **** *******************************************************************************/
1349:.\Generated_Source\PSoC4/CapSense.c **** void CapSense_SetPinDriveMode(uint32 driveMode, uint32 pinNumber, uint32 portNumber)
1350:.\Generated_Source\PSoC4/CapSense.c **** {
 606              		.loc 1 1350 0
 607              		.cfi_startproc
 608              	.LVL73:
 609 0000 10B5     		push	{r4, lr}
 610              		.cfi_def_cfa_offset 8
 611              		.cfi_offset 4, -8
 612              		.cfi_offset 14, -4
1351:.\Generated_Source\PSoC4/CapSense.c ****     uint32  pinModeShift;
1352:.\Generated_Source\PSoC4/CapSense.c ****     uint32 newRegisterValue;
1353:.\Generated_Source\PSoC4/CapSense.c **** 
1354:.\Generated_Source\PSoC4/CapSense.c ****     pinModeShift  = pinNumber * CapSense_PC_PIN_CFG_SIZE;
 613              		.loc 1 1354 0
 614 0002 4B00     		lsl	r3, r1, #1
 615 0004 5918     		add	r1, r3, r1
 616              	.LVL74:
1355:.\Generated_Source\PSoC4/CapSense.c **** 
1356:.\Generated_Source\PSoC4/CapSense.c ****     newRegisterValue = *CapSense_prtCfgTbl[portNumber];
 617              		.loc 1 1356 0
 618 0006 9200     		lsl	r2, r2, #2
 619              	.LVL75:
 620 0008 054B     		ldr	r3, .L39
 621 000a 9A18     		add	r2, r3, r2
 622 000c 546B     		ldr	r4, [r2, #52]
 623 000e 2368     		ldr	r3, [r4]
 624              	.LVL76:
1357:.\Generated_Source\PSoC4/CapSense.c ****     newRegisterValue &= ~(CapSense_CSD_PIN_MODE_MASK << pinModeShift);
 625              		.loc 1 1357 0
 626 0010 0722     		mov	r2, #7
 627 0012 8A40     		lsl	r2, r2, r1
 628 0014 9343     		bic	r3, r2
 629              	.LVL77:
1358:.\Generated_Source\PSoC4/CapSense.c ****     newRegisterValue |=  (uint32)((uint32)driveMode << pinModeShift);
 630              		.loc 1 1358 0
ARM GAS  C:\Users\SHOZOK~1\AppData\Local\Temp\cc5HTLHa.s 			page 36


 631 0016 8840     		lsl	r0, r0, r1
 632              	.LVL78:
 633 0018 1843     		orr	r0, r3
 634              	.LVL79:
1359:.\Generated_Source\PSoC4/CapSense.c ****     *CapSense_prtCfgTbl[portNumber] =  newRegisterValue;
 635              		.loc 1 1359 0
 636 001a 2060     		str	r0, [r4]
1360:.\Generated_Source\PSoC4/CapSense.c **** }
 637              		.loc 1 1360 0
 638              		@ sp needed
 639 001c 10BD     		pop	{r4, pc}
 640              	.L40:
 641 001e C046     		.align	2
 642              	.L39:
 643 0020 00000000 		.word	.LANCHOR2
 644              		.cfi_endproc
 645              	.LFE52:
 646              		.size	CapSense_SetPinDriveMode, .-CapSense_SetPinDriveMode
 647              		.section	.text.CapSense_SetDriveModeAllPins,"ax",%progbits
 648              		.align	2
 649              		.global	CapSense_SetDriveModeAllPins
 650              		.code	16
 651              		.thumb_func
 652              		.type	CapSense_SetDriveModeAllPins, %function
 653              	CapSense_SetDriveModeAllPins:
 654              	.LFB50:
1225:.\Generated_Source\PSoC4/CapSense.c ****     uint8 curSensor;
 655              		.loc 1 1225 0
 656              		.cfi_startproc
 657              	.LVL80:
 658 0000 38B5     		push	{r3, r4, r5, lr}
 659              		.cfi_def_cfa_offset 16
 660              		.cfi_offset 3, -16
 661              		.cfi_offset 4, -12
 662              		.cfi_offset 5, -8
 663              		.cfi_offset 14, -4
 664 0002 051C     		mov	r5, r0
 665              	.LVL81:
1234:.\Generated_Source\PSoC4/CapSense.c ****     {
 666              		.loc 1 1234 0
 667 0004 0024     		mov	r4, #0
 668 0006 08E0     		b	.L42
 669              	.LVL82:
 670              	.L43:
1256:.\Generated_Source\PSoC4/CapSense.c ****             pinNumberTmp = CapSense_pinShiftTbl[curSensor];
 671              		.loc 1 1256 0 discriminator 3
 672 0008 084B     		ldr	r3, .L44
 673 000a 1A5D     		ldrb	r2, [r3, r4]
 674              	.LVL83:
1257:.\Generated_Source\PSoC4/CapSense.c ****         #endif  /* CapSense_IS_COMPLEX_SCANSLOTS */
 675              		.loc 1 1257 0 discriminator 3
 676 000c 1B19     		add	r3, r3, r4
 677 000e 197C     		ldrb	r1, [r3, #16]
 678              	.LVL84:
1260:.\Generated_Source\PSoC4/CapSense.c ****     }
 679              		.loc 1 1260 0 discriminator 3
 680 0010 281C     		mov	r0, r5
ARM GAS  C:\Users\SHOZOK~1\AppData\Local\Temp\cc5HTLHa.s 			page 37


 681 0012 FFF7FEFF 		bl	CapSense_SetPinDriveMode
 682              	.LVL85:
1234:.\Generated_Source\PSoC4/CapSense.c ****     {
 683              		.loc 1 1234 0 discriminator 3
 684 0016 0134     		add	r4, r4, #1
 685              	.LVL86:
 686 0018 E4B2     		uxtb	r4, r4
 687              	.LVL87:
 688              	.L42:
1234:.\Generated_Source\PSoC4/CapSense.c ****     {
 689              		.loc 1 1234 0 is_stmt 0 discriminator 1
 690 001a 0C2C     		cmp	r4, #12
 691 001c F4D9     		bls	.L43
1263:.\Generated_Source\PSoC4/CapSense.c **** 
 692              		.loc 1 1263 0 is_stmt 1
 693 001e 281C     		mov	r0, r5
 694 0020 0221     		mov	r1, #2
 695 0022 0422     		mov	r2, #4
 696 0024 FFF7FEFF 		bl	CapSense_SetPinDriveMode
 697              	.LVL88:
1272:.\Generated_Source\PSoC4/CapSense.c **** 
 698              		.loc 1 1272 0
 699              		@ sp needed
 700              	.LVL89:
 701              	.LVL90:
 702 0028 38BD     		pop	{r3, r4, r5, pc}
 703              	.L45:
 704 002a C046     		.align	2
 705              	.L44:
 706 002c 00000000 		.word	.LANCHOR2
 707              		.cfi_endproc
 708              	.LFE50:
 709              		.size	CapSense_SetDriveModeAllPins, .-CapSense_SetDriveModeAllPins
 710              		.section	.text.CapSense_RestoreDriveModeAllPins,"ax",%progbits
 711              		.align	2
 712              		.global	CapSense_RestoreDriveModeAllPins
 713              		.code	16
 714              		.thumb_func
 715              		.type	CapSense_RestoreDriveModeAllPins, %function
 716              	CapSense_RestoreDriveModeAllPins:
 717              	.LFB51:
1298:.\Generated_Source\PSoC4/CapSense.c ****     uint32 newRegisterValue;
 718              		.loc 1 1298 0
 719              		.cfi_startproc
 720 0000 08B5     		push	{r3, lr}
 721              		.cfi_def_cfa_offset 8
 722              		.cfi_offset 3, -8
 723              		.cfi_offset 14, -4
1301:.\Generated_Source\PSoC4/CapSense.c **** 
 724              		.loc 1 1301 0
 725 0002 0020     		mov	r0, #0
 726 0004 FFF7FEFF 		bl	CapSense_SetDriveModeAllPins
 727              	.LVL91:
1303:.\Generated_Source\PSoC4/CapSense.c ****     newRegisterValue &= ~(CapSense_CSD_CMOD_CONNECTION_MASK);
 728              		.loc 1 1303 0
 729 0008 044A     		ldr	r2, .L47
 730 000a 1168     		ldr	r1, [r2]
ARM GAS  C:\Users\SHOZOK~1\AppData\Local\Temp\cc5HTLHa.s 			page 38


 731              	.LVL92:
1304:.\Generated_Source\PSoC4/CapSense.c ****     newRegisterValue |= CapSense_CSD_CMOD_TO_AMUXBUS_A;
 732              		.loc 1 1304 0
 733 000c 044B     		ldr	r3, .L47+4
 734 000e 0B40     		and	r3, r1
 735              	.LVL93:
1305:.\Generated_Source\PSoC4/CapSense.c ****     CapSense_CMOD_CONNECTION_REG = newRegisterValue;
 736              		.loc 1 1305 0
 737 0010 C021     		mov	r1, #192
 738 0012 C900     		lsl	r1, r1, #3
 739 0014 0B43     		orr	r3, r1
 740              	.LVL94:
1306:.\Generated_Source\PSoC4/CapSense.c **** 
 741              		.loc 1 1306 0
 742 0016 1360     		str	r3, [r2]
1321:.\Generated_Source\PSoC4/CapSense.c **** 
 743              		.loc 1 1321 0
 744              		@ sp needed
 745 0018 08BD     		pop	{r3, pc}
 746              	.L48:
 747 001a C046     		.align	2
 748              	.L47:
 749 001c 10000140 		.word	1073807376
 750 0020 FFF0FFFF 		.word	-3841
 751              		.cfi_endproc
 752              	.LFE51:
 753              		.size	CapSense_RestoreDriveModeAllPins, .-CapSense_RestoreDriveModeAllPins
 754              		.section	.text.CapSense_EnableShieldElectrode,"ax",%progbits
 755              		.align	2
 756              		.global	CapSense_EnableShieldElectrode
 757              		.code	16
 758              		.thumb_func
 759              		.type	CapSense_EnableShieldElectrode, %function
 760              	CapSense_EnableShieldElectrode:
 761              	.LFB55:
1361:.\Generated_Source\PSoC4/CapSense.c **** 
1362:.\Generated_Source\PSoC4/CapSense.c **** 
1363:.\Generated_Source\PSoC4/CapSense.c **** /*******************************************************************************
1364:.\Generated_Source\PSoC4/CapSense.c **** * Function Name: CapSense_PreScan
1365:.\Generated_Source\PSoC4/CapSense.c **** ********************************************************************************
1366:.\Generated_Source\PSoC4/CapSense.c **** *
1367:.\Generated_Source\PSoC4/CapSense.c **** * Summary:
1368:.\Generated_Source\PSoC4/CapSense.c **** *  Sets required settings, enables a sensor, removes Vref from AMUX and starts the
1369:.\Generated_Source\PSoC4/CapSense.c **** *  scanning process of the sensor.
1370:.\Generated_Source\PSoC4/CapSense.c **** *
1371:.\Generated_Source\PSoC4/CapSense.c **** * Parameters:
1372:.\Generated_Source\PSoC4/CapSense.c **** *  sensor:  Sensor number.
1373:.\Generated_Source\PSoC4/CapSense.c **** *
1374:.\Generated_Source\PSoC4/CapSense.c **** * Return:
1375:.\Generated_Source\PSoC4/CapSense.c **** *  None
1376:.\Generated_Source\PSoC4/CapSense.c **** *
1377:.\Generated_Source\PSoC4/CapSense.c **** * Global Variables:
1378:.\Generated_Source\PSoC4/CapSense.c **** * CapSense_widgetNumber[] - This array contains numbers of widgets for each sensor.
1379:.\Generated_Source\PSoC4/CapSense.c **** * CapSense_widgetResolution[] - Contains the widget resolution.
1380:.\Generated_Source\PSoC4/CapSense.c **** *
1381:.\Generated_Source\PSoC4/CapSense.c **** * Side Effects:
1382:.\Generated_Source\PSoC4/CapSense.c **** *  None
ARM GAS  C:\Users\SHOZOK~1\AppData\Local\Temp\cc5HTLHa.s 			page 39


1383:.\Generated_Source\PSoC4/CapSense.c **** *
1384:.\Generated_Source\PSoC4/CapSense.c **** *******************************************************************************/
1385:.\Generated_Source\PSoC4/CapSense.c **** void CapSense_PreScan(uint32 sensor)
1386:.\Generated_Source\PSoC4/CapSense.c **** {
1387:.\Generated_Source\PSoC4/CapSense.c ****     uint8 widget;
1388:.\Generated_Source\PSoC4/CapSense.c ****     uint8 interruptState;
1389:.\Generated_Source\PSoC4/CapSense.c ****     uint32 newRegValue;
1390:.\Generated_Source\PSoC4/CapSense.c ****     uint32 counterResolution;
1391:.\Generated_Source\PSoC4/CapSense.c **** 
1392:.\Generated_Source\PSoC4/CapSense.c ****     #if(CapSense_PRS_OPTIONS == CapSense__PRS_AUTO)
1393:.\Generated_Source\PSoC4/CapSense.c ****         uint8 senseClkDivMath;
1394:.\Generated_Source\PSoC4/CapSense.c ****         uint8 sampleClkDivMath;
1395:.\Generated_Source\PSoC4/CapSense.c ****     #endif /* (CapSense_PRS_OPTIONS == CapSense__PRS_AUTO) */
1396:.\Generated_Source\PSoC4/CapSense.c **** 
1397:.\Generated_Source\PSoC4/CapSense.c ****     #if ((CapSense_TUNING_METHOD == CapSense__TUNING_AUTO) &&\
1398:.\Generated_Source\PSoC4/CapSense.c ****          (0 != CapSense_IS_OVERSAMPLING_EN))
1399:.\Generated_Source\PSoC4/CapSense.c ****         uint32 oversamplingFactor;
1400:.\Generated_Source\PSoC4/CapSense.c ****     #endif /* ((CapSense_TUNING_METHOD == CapSense__TUNING_AUTO) &&\
1401:.\Generated_Source\PSoC4/CapSense.c ****                (0 != CapSense_IS_OVERSAMPLING_EN)) */
1402:.\Generated_Source\PSoC4/CapSense.c **** 
1403:.\Generated_Source\PSoC4/CapSense.c ****     /* Define widget sensor belongs to */
1404:.\Generated_Source\PSoC4/CapSense.c ****     widget = CapSense_widgetNumber[sensor];
1405:.\Generated_Source\PSoC4/CapSense.c **** 
1406:.\Generated_Source\PSoC4/CapSense.c ****     /* Recalculate Counter Resolution to MSB 16 bits */
1407:.\Generated_Source\PSoC4/CapSense.c ****     counterResolution = CapSense_widgetResolution[widget];
1408:.\Generated_Source\PSoC4/CapSense.c **** 
1409:.\Generated_Source\PSoC4/CapSense.c ****     #if ((CapSense_TUNING_METHOD == CapSense__TUNING_AUTO) &&\
1410:.\Generated_Source\PSoC4/CapSense.c ****          (0 != CapSense_IS_OVERSAMPLING_EN))
1411:.\Generated_Source\PSoC4/CapSense.c ****         oversamplingFactor = CapSense_GetBitValue(CapSense_scanSpeedTbl, sensor);
1412:.\Generated_Source\PSoC4/CapSense.c **** 
1413:.\Generated_Source\PSoC4/CapSense.c ****         if(counterResolution < CapSense_RESOLUTION_16_BITS)
1414:.\Generated_Source\PSoC4/CapSense.c ****         {
1415:.\Generated_Source\PSoC4/CapSense.c ****             counterResolution <<= oversamplingFactor;
1416:.\Generated_Source\PSoC4/CapSense.c ****             counterResolution |= (uint32)(CapSense_RESOLUTION_8_BITS);
1417:.\Generated_Source\PSoC4/CapSense.c ****         }
1418:.\Generated_Source\PSoC4/CapSense.c ****     #endif /* ((CapSense_TUNING_METHOD == CapSense__TUNING_AUTO) &&\
1419:.\Generated_Source\PSoC4/CapSense.c ****                (0 != CapSense_IS_OVERSAMPLING_EN)) */
1420:.\Generated_Source\PSoC4/CapSense.c **** 
1421:.\Generated_Source\PSoC4/CapSense.c ****     #if (0u != CapSense_IS_M0S8PERI_BLOCK)
1422:.\Generated_Source\PSoC4/CapSense.c ****         CapSense_SenseClk_Stop();
1423:.\Generated_Source\PSoC4/CapSense.c ****         CapSense_SampleClk_Stop();
1424:.\Generated_Source\PSoC4/CapSense.c ****     #endif /* (0u != CapSense_IS_M0S8PERI_BLOCK) */
1425:.\Generated_Source\PSoC4/CapSense.c **** 
1426:.\Generated_Source\PSoC4/CapSense.c ****     #if (0u != CapSense_MULTIPLE_FREQUENCY_SET)
1427:.\Generated_Source\PSoC4/CapSense.c ****         CapSense_SampleClk_SetDividerValue((uint16)CapSense_sampleClkDividerVal[sensor]);
1428:.\Generated_Source\PSoC4/CapSense.c ****         CapSense_SenseClk_SetDividerValue((uint16)CapSense_senseClkDividerVal[sensor]);
1429:.\Generated_Source\PSoC4/CapSense.c ****     #else
1430:.\Generated_Source\PSoC4/CapSense.c ****         CapSense_SampleClk_SetDividerValue((uint16)CapSense_sampleClkDividerVal);
1431:.\Generated_Source\PSoC4/CapSense.c ****         CapSense_SenseClk_SetDividerValue((uint16)CapSense_senseClkDividerVal);
1432:.\Generated_Source\PSoC4/CapSense.c ****     #endif /* (0u != CapSense_MULTIPLE_FREQUENCY_SET) */
1433:.\Generated_Source\PSoC4/CapSense.c **** 
1434:.\Generated_Source\PSoC4/CapSense.c ****     #if (0u != CapSense_IS_M0S8PERI_BLOCK)
1435:.\Generated_Source\PSoC4/CapSense.c ****         CapSense_SampleClk_Start();
1436:.\Generated_Source\PSoC4/CapSense.c ****         CapSense_SenseClk_StartEx(CapSense_SampleClk__DIV_ID);
1437:.\Generated_Source\PSoC4/CapSense.c **** 
1438:.\Generated_Source\PSoC4/CapSense.c ****         #if(CapSense_PRS_OPTIONS == CapSense__PRS_NONE)
1439:.\Generated_Source\PSoC4/CapSense.c ****             CyIntDisable(CapSense_ISR_NUMBER);
ARM GAS  C:\Users\SHOZOK~1\AppData\Local\Temp\cc5HTLHa.s 			page 40


1440:.\Generated_Source\PSoC4/CapSense.c ****             CapSense_CSD_CNT_REG = CapSense_ONE_CYCLE;
1441:.\Generated_Source\PSoC4/CapSense.c ****             while(0u != (CapSense_CSD_CNT_REG & CapSense_RESOLUTION_16_BITS))
1442:.\Generated_Source\PSoC4/CapSense.c ****             {
1443:.\Generated_Source\PSoC4/CapSense.c ****             /* Wait until scanning is complete */
1444:.\Generated_Source\PSoC4/CapSense.c ****             }
1445:.\Generated_Source\PSoC4/CapSense.c ****             CapSense_CSD_INTR_REG = 1u;
1446:.\Generated_Source\PSoC4/CapSense.c ****             CyIntClearPending(CapSense_ISR_NUMBER);
1447:.\Generated_Source\PSoC4/CapSense.c ****             CyIntEnable(CapSense_ISR_NUMBER);
1448:.\Generated_Source\PSoC4/CapSense.c ****         #endif /* CapSense_PRS_OPTIONS == CapSense__PRS_NONE */
1449:.\Generated_Source\PSoC4/CapSense.c ****     #endif /* (0u != CapSense_IS_M0S8PERI_BLOCK) */
1450:.\Generated_Source\PSoC4/CapSense.c **** 
1451:.\Generated_Source\PSoC4/CapSense.c **** #if(CapSense_PRS_OPTIONS != CapSense__PRS_NONE)
1452:.\Generated_Source\PSoC4/CapSense.c **** 
1453:.\Generated_Source\PSoC4/CapSense.c ****     #if(CapSense_TUNING_METHOD == CapSense__TUNING_AUTO)
1454:.\Generated_Source\PSoC4/CapSense.c ****         if(CapSense_prescalersTuningDone != 0u)
1455:.\Generated_Source\PSoC4/CapSense.c ****         {
1456:.\Generated_Source\PSoC4/CapSense.c ****     #endif /* (CapSense_TUNING_METHOD == CapSense__TUNING_AUTO) */
1457:.\Generated_Source\PSoC4/CapSense.c **** 
1458:.\Generated_Source\PSoC4/CapSense.c ****             CyIntDisable(CapSense_ISR_NUMBER);
1459:.\Generated_Source\PSoC4/CapSense.c **** 
1460:.\Generated_Source\PSoC4/CapSense.c ****             newRegValue = CapSense_CSD_CFG_REG;
1461:.\Generated_Source\PSoC4/CapSense.c ****             newRegValue |= CapSense_CSD_CFG_PRS_SELECT;
1462:.\Generated_Source\PSoC4/CapSense.c **** 
1463:.\Generated_Source\PSoC4/CapSense.c ****             #if(CapSense_PRS_OPTIONS == CapSense__PRS_AUTO)
1464:.\Generated_Source\PSoC4/CapSense.c **** 
1465:.\Generated_Source\PSoC4/CapSense.c ****                 newRegValue &= ~(CapSense_PRS_MODE_MASK);
1466:.\Generated_Source\PSoC4/CapSense.c **** 
1467:.\Generated_Source\PSoC4/CapSense.c ****                 #if (0u != CapSense_MULTIPLE_FREQUENCY_SET)
1468:.\Generated_Source\PSoC4/CapSense.c ****                     senseClkDivMath = CapSense_senseClkDividerVal[sensor];
1469:.\Generated_Source\PSoC4/CapSense.c ****                     sampleClkDivMath = CapSense_sampleClkDividerVal[sensor];
1470:.\Generated_Source\PSoC4/CapSense.c ****                 #else
1471:.\Generated_Source\PSoC4/CapSense.c ****                     senseClkDivMath = CapSense_senseClkDividerVal;
1472:.\Generated_Source\PSoC4/CapSense.c ****                     sampleClkDivMath = CapSense_sampleClkDividerVal;
1473:.\Generated_Source\PSoC4/CapSense.c ****                 #endif /* ( CapSense_MULTIPLE_FREQUENCY_SET) */
1474:.\Generated_Source\PSoC4/CapSense.c **** 
1475:.\Generated_Source\PSoC4/CapSense.c ****                 #if(0u == CapSense_IS_M0S8PERI_BLOCK)
1476:.\Generated_Source\PSoC4/CapSense.c ****                     senseClkDivMath *= sampleClkDivMath;
1477:.\Generated_Source\PSoC4/CapSense.c ****                 #endif /* (0u == CapSense_IS_M0S8PERI_BLOCK) */
1478:.\Generated_Source\PSoC4/CapSense.c **** 
1479:.\Generated_Source\PSoC4/CapSense.c ****                 if((senseClkDivMath * CapSense_RESOLUTION_12_BITS) <
1480:.\Generated_Source\PSoC4/CapSense.c ****                    (sampleClkDivMath * CapSense_widgetResolution[widget]))
1481:.\Generated_Source\PSoC4/CapSense.c ****                 {
1482:.\Generated_Source\PSoC4/CapSense.c ****                     newRegValue |= CapSense_CSD_PRS_12_BIT;
1483:.\Generated_Source\PSoC4/CapSense.c ****                 }
1484:.\Generated_Source\PSoC4/CapSense.c ****             #endif /* (CapSense_PRS_OPTIONS == CapSense__PRS_AUTO) */
1485:.\Generated_Source\PSoC4/CapSense.c **** 
1486:.\Generated_Source\PSoC4/CapSense.c ****             CapSense_CSD_CFG_REG = newRegValue;
1487:.\Generated_Source\PSoC4/CapSense.c **** 
1488:.\Generated_Source\PSoC4/CapSense.c ****             CyIntEnable(CapSense_ISR_NUMBER);
1489:.\Generated_Source\PSoC4/CapSense.c **** 
1490:.\Generated_Source\PSoC4/CapSense.c ****     #if(CapSense_TUNING_METHOD == CapSense__TUNING_AUTO)
1491:.\Generated_Source\PSoC4/CapSense.c ****         }
1492:.\Generated_Source\PSoC4/CapSense.c ****     #endif /* (CapSense_PRS_OPTIONS != CapSense__PRS_NONE) */
1493:.\Generated_Source\PSoC4/CapSense.c **** 
1494:.\Generated_Source\PSoC4/CapSense.c **** #endif /* (CapSense_PRS_OPTIONS == CapSense__PRS_NONE) */
1495:.\Generated_Source\PSoC4/CapSense.c **** 
1496:.\Generated_Source\PSoC4/CapSense.c ****     /* Set Idac Value */
ARM GAS  C:\Users\SHOZOK~1\AppData\Local\Temp\cc5HTLHa.s 			page 41


1497:.\Generated_Source\PSoC4/CapSense.c ****     CyIntDisable(CapSense_ISR_NUMBER);
1498:.\Generated_Source\PSoC4/CapSense.c ****     newRegValue = CapSense_CSD_IDAC_REG;
1499:.\Generated_Source\PSoC4/CapSense.c **** 
1500:.\Generated_Source\PSoC4/CapSense.c **** #if (CapSense_IDAC_CNT == 1u)
1501:.\Generated_Source\PSoC4/CapSense.c ****     newRegValue &= ~(CapSense_CSD_IDAC1_DATA_MASK);
1502:.\Generated_Source\PSoC4/CapSense.c ****     newRegValue |= CapSense_modulationIDAC[sensor];
1503:.\Generated_Source\PSoC4/CapSense.c **** #else
1504:.\Generated_Source\PSoC4/CapSense.c ****     newRegValue &= ~(CapSense_CSD_IDAC1_DATA_MASK | CapSense_CSD_IDAC2_DATA_MASK);
1505:.\Generated_Source\PSoC4/CapSense.c ****     newRegValue |= (CapSense_modulationIDAC[sensor] |
1506:.\Generated_Source\PSoC4/CapSense.c ****                             (uint32)((uint32)CapSense_compensationIDAC[sensor] <<
1507:.\Generated_Source\PSoC4/CapSense.c ****                             CapSense_CSD_IDAC2_DATA_OFFSET));
1508:.\Generated_Source\PSoC4/CapSense.c **** #endif /* (CapSense_IDAC_CNT == 1u) */
1509:.\Generated_Source\PSoC4/CapSense.c **** 
1510:.\Generated_Source\PSoC4/CapSense.c ****     CapSense_CSD_IDAC_REG = newRegValue;
1511:.\Generated_Source\PSoC4/CapSense.c **** 
1512:.\Generated_Source\PSoC4/CapSense.c **** #if(CapSense_CMOD_PREGARGE_OPTION == CapSense__CAPPRIOBUF)
1513:.\Generated_Source\PSoC4/CapSense.c ****     newRegValue = CapSense_CMOD_CONNECTION_REG;
1514:.\Generated_Source\PSoC4/CapSense.c ****     newRegValue &= ~(CapSense_CSD_CMOD_CONNECTION_MASK);
1515:.\Generated_Source\PSoC4/CapSense.c ****     newRegValue |= CapSense_CSD_CMOD_TO_AMUXBUS_A;
1516:.\Generated_Source\PSoC4/CapSense.c ****     CapSense_CMOD_CONNECTION_REG = newRegValue;
1517:.\Generated_Source\PSoC4/CapSense.c **** 
1518:.\Generated_Source\PSoC4/CapSense.c ****     newRegValue = CapSense_CMOD_PORT_PC_REG;
1519:.\Generated_Source\PSoC4/CapSense.c ****     newRegValue &= ~(CapSense_CSD_CMOD_PC_MASK);
1520:.\Generated_Source\PSoC4/CapSense.c ****     newRegValue |= CapSense_CMOD_PC_HIGH_Z_MODE;
1521:.\Generated_Source\PSoC4/CapSense.c ****     CapSense_CMOD_PORT_PC_REG = newRegValue;
1522:.\Generated_Source\PSoC4/CapSense.c **** #endif /* (CapSense_CMOD_PREGARGE_OPTION == CapSense__CAPPRIOBUF) */
1523:.\Generated_Source\PSoC4/CapSense.c **** 
1524:.\Generated_Source\PSoC4/CapSense.c ****     /* Disconnect Vref Buffer from AMUX */
1525:.\Generated_Source\PSoC4/CapSense.c ****     newRegValue = CapSense_CSD_CFG_REG;
1526:.\Generated_Source\PSoC4/CapSense.c ****     newRegValue &= ~(CapSense_PRECHARGE_CONFIG_MASK);
1527:.\Generated_Source\PSoC4/CapSense.c ****     newRegValue |= CapSense_CTANK_PRECHARGE_CONFIG;
1528:.\Generated_Source\PSoC4/CapSense.c **** 
1529:.\Generated_Source\PSoC4/CapSense.c ****     CyIntEnable(CapSense_ISR_NUMBER);
1530:.\Generated_Source\PSoC4/CapSense.c **** 
1531:.\Generated_Source\PSoC4/CapSense.c ****     /* Enable Sensor */
1532:.\Generated_Source\PSoC4/CapSense.c ****     CapSense_EnableScanSlot(sensor);
1533:.\Generated_Source\PSoC4/CapSense.c **** 
1534:.\Generated_Source\PSoC4/CapSense.c ****     interruptState = CyEnterCriticalSection();
1535:.\Generated_Source\PSoC4/CapSense.c ****     CapSense_CSD_CFG_REG = newRegValue;
1536:.\Generated_Source\PSoC4/CapSense.c **** 
1537:.\Generated_Source\PSoC4/CapSense.c ****     /* `#START CapSense_PreSettlingDelay_Debug` */
1538:.\Generated_Source\PSoC4/CapSense.c **** 
1539:.\Generated_Source\PSoC4/CapSense.c ****     /* `#END` */
1540:.\Generated_Source\PSoC4/CapSense.c ****     
1541:.\Generated_Source\PSoC4/CapSense.c **** #ifdef CapSense_PRE_SCAN_PRE_SETTLING_DELAY_DEBUG_CALLBACK
1542:.\Generated_Source\PSoC4/CapSense.c ****     CapSense_PreScan_Pre_SettlingDelay_Debug_Callback();
1543:.\Generated_Source\PSoC4/CapSense.c **** #endif /* CapSense_PRE_SCAN_PRE_SETTLING_DELAY_DEBUG_CALLBACK */
1544:.\Generated_Source\PSoC4/CapSense.c **** 
1545:.\Generated_Source\PSoC4/CapSense.c ****     CyDelayCycles(CapSense_GLITCH_ELIMINATION_CYCLES);
1546:.\Generated_Source\PSoC4/CapSense.c **** 
1547:.\Generated_Source\PSoC4/CapSense.c ****     /* `#START CapSense_PreScan_Debug` */
1548:.\Generated_Source\PSoC4/CapSense.c **** 
1549:.\Generated_Source\PSoC4/CapSense.c ****     /* `#END` */
1550:.\Generated_Source\PSoC4/CapSense.c ****     
1551:.\Generated_Source\PSoC4/CapSense.c **** #ifdef CapSense_PRE_SCAN_DEBUG_CALLBACK
1552:.\Generated_Source\PSoC4/CapSense.c ****     CapSense_PreScan_Debug_Callback();
1553:.\Generated_Source\PSoC4/CapSense.c **** #endif /* CapSense_PRE_SCAN_DEBUG_CALLBACK */
ARM GAS  C:\Users\SHOZOK~1\AppData\Local\Temp\cc5HTLHa.s 			page 42


1554:.\Generated_Source\PSoC4/CapSense.c **** 
1555:.\Generated_Source\PSoC4/CapSense.c ****     CapSense_CSD_CNT_REG = counterResolution;
1556:.\Generated_Source\PSoC4/CapSense.c ****     CyExitCriticalSection(interruptState);
1557:.\Generated_Source\PSoC4/CapSense.c **** }
1558:.\Generated_Source\PSoC4/CapSense.c **** 
1559:.\Generated_Source\PSoC4/CapSense.c **** 
1560:.\Generated_Source\PSoC4/CapSense.c **** /*******************************************************************************
1561:.\Generated_Source\PSoC4/CapSense.c **** * Function Name: CapSense_PostScan
1562:.\Generated_Source\PSoC4/CapSense.c **** ********************************************************************************
1563:.\Generated_Source\PSoC4/CapSense.c **** *
1564:.\Generated_Source\PSoC4/CapSense.c **** * Summary:
1565:.\Generated_Source\PSoC4/CapSense.c **** *  Stores the results of measurement in the CapSense_sensorRaw[] array,
1566:.\Generated_Source\PSoC4/CapSense.c **** *  sets the scanning sensor in the non-sampling state, turns off Idac(Current Source IDAC),
1567:.\Generated_Source\PSoC4/CapSense.c **** *  disconnects the IDAC(Sink mode), and applies Vref on AMUX.
1568:.\Generated_Source\PSoC4/CapSense.c **** *
1569:.\Generated_Source\PSoC4/CapSense.c **** * Parameters:
1570:.\Generated_Source\PSoC4/CapSense.c **** *  sensor:  Sensor number.
1571:.\Generated_Source\PSoC4/CapSense.c **** *
1572:.\Generated_Source\PSoC4/CapSense.c **** * Return:
1573:.\Generated_Source\PSoC4/CapSense.c **** *  None
1574:.\Generated_Source\PSoC4/CapSense.c **** *
1575:.\Generated_Source\PSoC4/CapSense.c **** * Global Variables:
1576:.\Generated_Source\PSoC4/CapSense.c **** *  CapSense_sensorRaw[] - used to store sensors raw data.
1577:.\Generated_Source\PSoC4/CapSense.c **** *
1578:.\Generated_Source\PSoC4/CapSense.c **** * Side Effects:
1579:.\Generated_Source\PSoC4/CapSense.c **** *  None
1580:.\Generated_Source\PSoC4/CapSense.c **** *
1581:.\Generated_Source\PSoC4/CapSense.c **** *******************************************************************************/
1582:.\Generated_Source\PSoC4/CapSense.c **** void CapSense_PostScan(uint32 sensor)
1583:.\Generated_Source\PSoC4/CapSense.c **** {
1584:.\Generated_Source\PSoC4/CapSense.c ****     uint32 newRegValue;
1585:.\Generated_Source\PSoC4/CapSense.c **** #if ((CapSense_TUNING_METHOD == CapSense__TUNING_AUTO) &&\
1586:.\Generated_Source\PSoC4/CapSense.c ****      (0 != CapSense_IS_OVERSAMPLING_EN))
1587:.\Generated_Source\PSoC4/CapSense.c ****     uint32 oversamplingFactor;
1588:.\Generated_Source\PSoC4/CapSense.c ****     uint32 widget;
1589:.\Generated_Source\PSoC4/CapSense.c **** #endif /* ((CapSense_TUNING_METHOD == CapSense__TUNING_AUTO) &&\
1590:.\Generated_Source\PSoC4/CapSense.c ****            (0 != CapSense_IS_OVERSAMPLING_EN)) */
1591:.\Generated_Source\PSoC4/CapSense.c **** 
1592:.\Generated_Source\PSoC4/CapSense.c ****     /* `#START CapSense_PostScan_Debug` */
1593:.\Generated_Source\PSoC4/CapSense.c **** 
1594:.\Generated_Source\PSoC4/CapSense.c ****     /* `#END` */
1595:.\Generated_Source\PSoC4/CapSense.c ****     
1596:.\Generated_Source\PSoC4/CapSense.c **** #ifdef CapSense_POST_SCAN_DEBUG_CALLBACK
1597:.\Generated_Source\PSoC4/CapSense.c ****     CapSense_PostScan_Debug_Callback();
1598:.\Generated_Source\PSoC4/CapSense.c **** #endif /* CapSense_POST_SCAN_DEBUG_Callback */
1599:.\Generated_Source\PSoC4/CapSense.c **** 
1600:.\Generated_Source\PSoC4/CapSense.c ****     /* Read SlotResult from Raw Counter */
1601:.\Generated_Source\PSoC4/CapSense.c ****     CapSense_sensorRaw[sensor]  = (uint16)CapSense_CSD_CNT_REG;
1602:.\Generated_Source\PSoC4/CapSense.c **** 
1603:.\Generated_Source\PSoC4/CapSense.c **** #if ((CapSense_TUNING_METHOD == CapSense__TUNING_AUTO) &&\
1604:.\Generated_Source\PSoC4/CapSense.c ****      (0 != CapSense_IS_OVERSAMPLING_EN))
1605:.\Generated_Source\PSoC4/CapSense.c ****     widget = CapSense_widgetNumber[sensor];
1606:.\Generated_Source\PSoC4/CapSense.c ****     if(CapSense_widgetResolution[widget] < CapSense_RESOLUTION_16_BITS)
1607:.\Generated_Source\PSoC4/CapSense.c ****     {
1608:.\Generated_Source\PSoC4/CapSense.c ****         oversamplingFactor = CapSense_GetBitValue(CapSense_scanSpeedTbl, sensor);
1609:.\Generated_Source\PSoC4/CapSense.c ****         CapSense_sensorRaw[sensor] >>= oversamplingFactor;
1610:.\Generated_Source\PSoC4/CapSense.c ****     }
ARM GAS  C:\Users\SHOZOK~1\AppData\Local\Temp\cc5HTLHa.s 			page 43


1611:.\Generated_Source\PSoC4/CapSense.c **** #endif /* ((CapSense_TUNING_METHOD == CapSense__TUNING_AUTO) &&\
1612:.\Generated_Source\PSoC4/CapSense.c ****            (0 != CapSense_IS_OVERSAMPLING_EN)) */
1613:.\Generated_Source\PSoC4/CapSense.c **** 
1614:.\Generated_Source\PSoC4/CapSense.c ****     /* Disable Sensor */
1615:.\Generated_Source\PSoC4/CapSense.c ****     CapSense_DisableScanSlot(sensor);
1616:.\Generated_Source\PSoC4/CapSense.c **** 
1617:.\Generated_Source\PSoC4/CapSense.c ****     CyIntDisable(CapSense_ISR_NUMBER);
1618:.\Generated_Source\PSoC4/CapSense.c **** 
1619:.\Generated_Source\PSoC4/CapSense.c **** #if(CapSense_CMOD_PREGARGE_OPTION == CapSense__CAPPRIOBUF)
1620:.\Generated_Source\PSoC4/CapSense.c ****     newRegValue = CapSense_CMOD_CONNECTION_REG;
1621:.\Generated_Source\PSoC4/CapSense.c ****     newRegValue &= ~(CapSense_CSD_CMOD_CONNECTION_MASK);
1622:.\Generated_Source\PSoC4/CapSense.c ****     newRegValue |= CapSense_CSD_CMOD_TO_AMUXBUS_B;
1623:.\Generated_Source\PSoC4/CapSense.c ****     CapSense_CMOD_CONNECTION_REG = newRegValue;
1624:.\Generated_Source\PSoC4/CapSense.c **** 
1625:.\Generated_Source\PSoC4/CapSense.c ****     newRegValue = CapSense_CMOD_PORT_PC_REG;
1626:.\Generated_Source\PSoC4/CapSense.c ****     newRegValue &= ~(CapSense_CSD_CMOD_PC_MASK);
1627:.\Generated_Source\PSoC4/CapSense.c ****     newRegValue |= CapSense_CMOD_PC_STRONG_MODE;
1628:.\Generated_Source\PSoC4/CapSense.c ****     CapSense_CMOD_PORT_PC_REG = newRegValue;
1629:.\Generated_Source\PSoC4/CapSense.c **** 
1630:.\Generated_Source\PSoC4/CapSense.c ****     newRegValue = CapSense_CMOD_PORT_DR_REG;
1631:.\Generated_Source\PSoC4/CapSense.c ****     newRegValue &= ~(CapSense_CMOD_DR_MASK);
1632:.\Generated_Source\PSoC4/CapSense.c ****     newRegValue |= CapSense_CMOD_DR_CONFIG;
1633:.\Generated_Source\PSoC4/CapSense.c ****     CapSense_CMOD_PORT_DR_REG = newRegValue;
1634:.\Generated_Source\PSoC4/CapSense.c **** #endif /* (CapSense_CMOD_PREGARGE_OPTION == CapSense__CAPPRIOBUF) */
1635:.\Generated_Source\PSoC4/CapSense.c **** 
1636:.\Generated_Source\PSoC4/CapSense.c ****     /* Connect Vref Buffer to AMUX bus  */
1637:.\Generated_Source\PSoC4/CapSense.c ****     newRegValue = CapSense_CSD_CFG_REG;
1638:.\Generated_Source\PSoC4/CapSense.c ****     newRegValue &= ~(CapSense_PRECHARGE_CONFIG_MASK);
1639:.\Generated_Source\PSoC4/CapSense.c ****     newRegValue |= CapSense_CMOD_PRECHARGE_CONFIG;
1640:.\Generated_Source\PSoC4/CapSense.c ****     CapSense_CSD_CFG_REG = newRegValue;
1641:.\Generated_Source\PSoC4/CapSense.c **** 
1642:.\Generated_Source\PSoC4/CapSense.c ****     /* Set Idac Value = 0 */
1643:.\Generated_Source\PSoC4/CapSense.c **** #if (CapSense_IDAC_CNT == 1u)
1644:.\Generated_Source\PSoC4/CapSense.c ****     CapSense_CSD_IDAC_REG &= ~(CapSense_CSD_IDAC1_DATA_MASK);
1645:.\Generated_Source\PSoC4/CapSense.c **** #else
1646:.\Generated_Source\PSoC4/CapSense.c ****     CapSense_CSD_IDAC_REG &= ~(CapSense_CSD_IDAC1_DATA_MASK | CapSense_CSD_IDAC2_DATA_MASK);
1647:.\Generated_Source\PSoC4/CapSense.c **** #endif /* (CapSense_IDAC_CNT == 1u) */
1648:.\Generated_Source\PSoC4/CapSense.c **** 
1649:.\Generated_Source\PSoC4/CapSense.c ****     CyIntEnable(CapSense_ISR_NUMBER);
1650:.\Generated_Source\PSoC4/CapSense.c **** }
1651:.\Generated_Source\PSoC4/CapSense.c **** 
1652:.\Generated_Source\PSoC4/CapSense.c **** 
1653:.\Generated_Source\PSoC4/CapSense.c **** /*******************************************************************************
1654:.\Generated_Source\PSoC4/CapSense.c **** * Function Name: CapSense_EnableShieldElectrode
1655:.\Generated_Source\PSoC4/CapSense.c **** ********************************************************************************
1656:.\Generated_Source\PSoC4/CapSense.c **** *
1657:.\Generated_Source\PSoC4/CapSense.c **** * Summary:
1658:.\Generated_Source\PSoC4/CapSense.c **** *  This API enables or disables the shield electrode on a specified port pin.
1659:.\Generated_Source\PSoC4/CapSense.c **** *
1660:.\Generated_Source\PSoC4/CapSense.c **** * Parameters:
1661:.\Generated_Source\PSoC4/CapSense.c **** *  portNumber: contains the shield electrode port number (0, 1, 2).
1662:.\Generated_Source\PSoC4/CapSense.c **** *  pinNumber: contains the shield electrode pin number (0, 1, 2, ... , 7).
1663:.\Generated_Source\PSoC4/CapSense.c **** *
1664:.\Generated_Source\PSoC4/CapSense.c **** * Return:
1665:.\Generated_Source\PSoC4/CapSense.c **** *  None
1666:.\Generated_Source\PSoC4/CapSense.c **** *
1667:.\Generated_Source\PSoC4/CapSense.c **** * Global Variables:
ARM GAS  C:\Users\SHOZOK~1\AppData\Local\Temp\cc5HTLHa.s 			page 44


1668:.\Generated_Source\PSoC4/CapSense.c **** *  CapSense_prtCfgTbl[] - Contains pointers to the port config registers for each port.
1669:.\Generated_Source\PSoC4/CapSense.c **** *  CapSense_prtSelTbl[] - Contains pointers to the HSIOM registers for each port.
1670:.\Generated_Source\PSoC4/CapSense.c **** *
1671:.\Generated_Source\PSoC4/CapSense.c **** * Side Effects:
1672:.\Generated_Source\PSoC4/CapSense.c **** *  None
1673:.\Generated_Source\PSoC4/CapSense.c **** *
1674:.\Generated_Source\PSoC4/CapSense.c **** *******************************************************************************/
1675:.\Generated_Source\PSoC4/CapSense.c **** void CapSense_EnableShieldElectrode(uint32 pinNumber, uint32 portNumber)
1676:.\Generated_Source\PSoC4/CapSense.c **** {
 762              		.loc 1 1676 0
 763              		.cfi_startproc
 764              	.LVL95:
 765 0000 30B5     		push	{r4, r5, lr}
 766              		.cfi_def_cfa_offset 12
 767              		.cfi_offset 4, -12
 768              		.cfi_offset 5, -8
 769              		.cfi_offset 14, -4
1677:.\Generated_Source\PSoC4/CapSense.c ****     uint32 newRegValue;
1678:.\Generated_Source\PSoC4/CapSense.c **** 
1679:.\Generated_Source\PSoC4/CapSense.c ****     *CapSense_prtCfgTbl[portNumber] &= ~(CapSense_CSD_PIN_MODE_MASK << (pinNumber * CapSense_PC_PIN
 770              		.loc 1 1679 0
 771 0002 8900     		lsl	r1, r1, #2
 772              	.LVL96:
 773 0004 0A4B     		ldr	r3, .L50
 774 0006 5918     		add	r1, r3, r1
 775 0008 4D6B     		ldr	r5, [r1, #52]
 776 000a 2B68     		ldr	r3, [r5]
 777 000c 4200     		lsl	r2, r0, #1
 778 000e 1218     		add	r2, r2, r0
 779 0010 0724     		mov	r4, #7
 780 0012 9440     		lsl	r4, r4, r2
 781 0014 A343     		bic	r3, r4
 782 0016 2B60     		str	r3, [r5]
1680:.\Generated_Source\PSoC4/CapSense.c ****     newRegValue = *CapSense_prtSelTbl[portNumber];
 783              		.loc 1 1680 0
 784 0018 096A     		ldr	r1, [r1, #32]
 785 001a 0B68     		ldr	r3, [r1]
 786              	.LVL97:
1681:.\Generated_Source\PSoC4/CapSense.c ****     newRegValue &= ~(CapSense_CSD_HSIOM_MASK << (pinNumber * CapSense_HSIOM_PIN_CFG_SIZE));
 787              		.loc 1 1681 0
 788 001c 8000     		lsl	r0, r0, #2
 789              	.LVL98:
 790 001e 0F22     		mov	r2, #15
 791 0020 8240     		lsl	r2, r2, r0
 792 0022 9343     		bic	r3, r2
 793              	.LVL99:
1682:.\Generated_Source\PSoC4/CapSense.c ****     newRegValue |= (CapSense_CSD_SHIELD_PORT_MODE << (pinNumber * CapSense_HSIOM_PIN_CFG_SIZE));
 794              		.loc 1 1682 0
 795 0024 0522     		mov	r2, #5
 796 0026 8240     		lsl	r2, r2, r0
 797 0028 101C     		mov	r0, r2
 798 002a 1843     		orr	r0, r3
 799              	.LVL100:
1683:.\Generated_Source\PSoC4/CapSense.c ****     *CapSense_prtSelTbl[portNumber] = newRegValue;
 800              		.loc 1 1683 0
 801 002c 0860     		str	r0, [r1]
1684:.\Generated_Source\PSoC4/CapSense.c **** }
ARM GAS  C:\Users\SHOZOK~1\AppData\Local\Temp\cc5HTLHa.s 			page 45


 802              		.loc 1 1684 0
 803              		@ sp needed
 804 002e 30BD     		pop	{r4, r5, pc}
 805              	.L51:
 806              		.align	2
 807              	.L50:
 808 0030 00000000 		.word	.LANCHOR2
 809              		.cfi_endproc
 810              	.LFE55:
 811              		.size	CapSense_EnableShieldElectrode, .-CapSense_EnableShieldElectrode
 812              		.section	.text.CapSense_SetShieldDelay,"ax",%progbits
 813              		.align	2
 814              		.global	CapSense_SetShieldDelay
 815              		.code	16
 816              		.thumb_func
 817              		.type	CapSense_SetShieldDelay, %function
 818              	CapSense_SetShieldDelay:
 819              	.LFB56:
1685:.\Generated_Source\PSoC4/CapSense.c **** 
1686:.\Generated_Source\PSoC4/CapSense.c **** 
1687:.\Generated_Source\PSoC4/CapSense.c **** /*******************************************************************************
1688:.\Generated_Source\PSoC4/CapSense.c **** * Function Name: CapSense_SetShieldDelay
1689:.\Generated_Source\PSoC4/CapSense.c **** ********************************************************************************
1690:.\Generated_Source\PSoC4/CapSense.c **** *
1691:.\Generated_Source\PSoC4/CapSense.c **** * Summary:
1692:.\Generated_Source\PSoC4/CapSense.c **** *  This API sets a shield delay.
1693:.\Generated_Source\PSoC4/CapSense.c **** *
1694:.\Generated_Source\PSoC4/CapSense.c **** * Parameters:
1695:.\Generated_Source\PSoC4/CapSense.c **** *  delay:  shield delay value:
1696:.\Generated_Source\PSoC4/CapSense.c **** *                               0 - no delay
1697:.\Generated_Source\PSoC4/CapSense.c **** *                               1 - 1 cycle delay
1698:.\Generated_Source\PSoC4/CapSense.c **** *                               2 - 2 cycles delay
1699:.\Generated_Source\PSoC4/CapSense.c **** *
1700:.\Generated_Source\PSoC4/CapSense.c **** * Return:
1701:.\Generated_Source\PSoC4/CapSense.c **** *  None
1702:.\Generated_Source\PSoC4/CapSense.c **** *
1703:.\Generated_Source\PSoC4/CapSense.c **** * Global Variables:
1704:.\Generated_Source\PSoC4/CapSense.c **** *  None
1705:.\Generated_Source\PSoC4/CapSense.c **** *
1706:.\Generated_Source\PSoC4/CapSense.c **** * Side Effects:
1707:.\Generated_Source\PSoC4/CapSense.c **** *  None
1708:.\Generated_Source\PSoC4/CapSense.c **** *
1709:.\Generated_Source\PSoC4/CapSense.c **** *******************************************************************************/
1710:.\Generated_Source\PSoC4/CapSense.c **** void CapSense_SetShieldDelay(uint32 delay)
1711:.\Generated_Source\PSoC4/CapSense.c **** {
 820              		.loc 1 1711 0
 821              		.cfi_startproc
 822              	.LVL101:
1712:.\Generated_Source\PSoC4/CapSense.c ****     uint32 newRegValue;
1713:.\Generated_Source\PSoC4/CapSense.c **** 
1714:.\Generated_Source\PSoC4/CapSense.c ****     delay &= 0x03u;
 823              		.loc 1 1714 0
 824 0000 0323     		mov	r3, #3
 825 0002 1840     		and	r0, r3
 826              	.LVL102:
1715:.\Generated_Source\PSoC4/CapSense.c **** 
1716:.\Generated_Source\PSoC4/CapSense.c ****     newRegValue = CapSense_CSD_CFG_REG;
ARM GAS  C:\Users\SHOZOK~1\AppData\Local\Temp\cc5HTLHa.s 			page 46


 827              		.loc 1 1716 0
 828 0004 024B     		ldr	r3, .L53
 829 0006 1A68     		ldr	r2, [r3]
 830              	.LVL103:
1717:.\Generated_Source\PSoC4/CapSense.c ****     newRegValue &= (uint32)(~(uint32)CapSense_SHIELD_DELAY);
1718:.\Generated_Source\PSoC4/CapSense.c ****     newRegValue |= (delay << CapSense_CSD_CFG_SHIELD_DELAY_POS);
 831              		.loc 1 1718 0
 832 0008 4002     		lsl	r0, r0, #9
 833              	.LVL104:
 834 000a 1043     		orr	r0, r2
 835              	.LVL105:
1719:.\Generated_Source\PSoC4/CapSense.c ****     CapSense_CSD_CFG_REG = newRegValue;
 836              		.loc 1 1719 0
 837 000c 1860     		str	r0, [r3]
1720:.\Generated_Source\PSoC4/CapSense.c **** }
 838              		.loc 1 1720 0
 839              		@ sp needed
 840 000e 7047     		bx	lr
 841              	.L54:
 842              		.align	2
 843              	.L53:
 844 0010 04000840 		.word	1074266116
 845              		.cfi_endproc
 846              	.LFE56:
 847              		.size	CapSense_SetShieldDelay, .-CapSense_SetShieldDelay
 848              		.section	.text.CapSense_Init,"ax",%progbits
 849              		.align	2
 850              		.global	CapSense_Init
 851              		.code	16
 852              		.thumb_func
 853              		.type	CapSense_Init, %function
 854              	CapSense_Init:
 855              	.LFB33:
 218:.\Generated_Source\PSoC4/CapSense.c ****     uint32 curSensor;
 856              		.loc 1 218 0
 857              		.cfi_startproc
 858 0000 08B5     		push	{r3, lr}
 859              		.cfi_def_cfa_offset 8
 860              		.cfi_offset 3, -8
 861              		.cfi_offset 14, -4
 862              	.LVL106:
 249:.\Generated_Source\PSoC4/CapSense.c ****     {
 863              		.loc 1 249 0
 864 0002 0023     		mov	r3, #0
 865 0004 03E0     		b	.L56
 866              	.LVL107:
 867              	.L57:
 251:.\Generated_Source\PSoC4/CapSense.c ****     }
 868              		.loc 1 251 0 discriminator 3
 869 0006 0021     		mov	r1, #0
 870 0008 064A     		ldr	r2, .L58
 871 000a D154     		strb	r1, [r2, r3]
 249:.\Generated_Source\PSoC4/CapSense.c ****     {
 872              		.loc 1 249 0 discriminator 3
 873 000c 0133     		add	r3, r3, #1
 874              	.LVL108:
 875              	.L56:
ARM GAS  C:\Users\SHOZOK~1\AppData\Local\Temp\cc5HTLHa.s 			page 47


 249:.\Generated_Source\PSoC4/CapSense.c ****     {
 876              		.loc 1 249 0 is_stmt 0 discriminator 1
 877 000e 0C2B     		cmp	r3, #12
 878 0010 F9D9     		bls	.L57
 254:.\Generated_Source\PSoC4/CapSense.c ****     CapSense_SetShieldDelay(CapSense_SHIELD_DELAY );
 879              		.loc 1 254 0 is_stmt 1
 880 0012 FFF7FEFF 		bl	CapSense_CsdHwBlockInit
 881              	.LVL109:
 255:.\Generated_Source\PSoC4/CapSense.c **** 
 882              		.loc 1 255 0
 883 0016 0020     		mov	r0, #0
 884 0018 FFF7FEFF 		bl	CapSense_SetShieldDelay
 885              	.LVL110:
 258:.\Generated_Source\PSoC4/CapSense.c **** }
 886              		.loc 1 258 0
 887 001c FFF7FEFF 		bl	CapSense_ClearSensors
 888              	.LVL111:
 259:.\Generated_Source\PSoC4/CapSense.c **** 
 889              		.loc 1 259 0
 890              		@ sp needed
 891 0020 08BD     		pop	{r3, pc}
 892              	.L59:
 893 0022 C046     		.align	2
 894              	.L58:
 895 0024 00000000 		.word	CapSense_unscannedSnsDriveMode
 896              		.cfi_endproc
 897              	.LFE33:
 898              		.size	CapSense_Init, .-CapSense_Init
 899              		.section	.text.CapSense_Start,"ax",%progbits
 900              		.align	2
 901              		.global	CapSense_Start
 902              		.code	16
 903              		.thumb_func
 904              		.type	CapSense_Start, %function
 905              	CapSense_Start:
 906              	.LFB36:
 427:.\Generated_Source\PSoC4/CapSense.c **** 
 907              		.loc 1 427 0
 908              		.cfi_startproc
 909 0000 08B5     		push	{r3, lr}
 910              		.cfi_def_cfa_offset 8
 911              		.cfi_offset 3, -8
 912              		.cfi_offset 14, -4
 437:.\Generated_Source\PSoC4/CapSense.c ****     {
 913              		.loc 1 437 0
 914 0002 0B4B     		ldr	r3, .L62
 915 0004 9B7F     		ldrb	r3, [r3, #30]
 916 0006 002B     		cmp	r3, #0
 917 0008 04D1     		bne	.L61
 439:.\Generated_Source\PSoC4/CapSense.c ****         CapSense_initVar = 1u;
 918              		.loc 1 439 0
 919 000a FFF7FEFF 		bl	CapSense_Init
 920              	.LVL112:
 440:.\Generated_Source\PSoC4/CapSense.c ****     }
 921              		.loc 1 440 0
 922 000e 0122     		mov	r2, #1
 923 0010 074B     		ldr	r3, .L62
ARM GAS  C:\Users\SHOZOK~1\AppData\Local\Temp\cc5HTLHa.s 			page 48


 924 0012 9A77     		strb	r2, [r3, #30]
 925              	.L61:
 442:.\Generated_Source\PSoC4/CapSense.c **** 
 926              		.loc 1 442 0
 927 0014 FFF7FEFF 		bl	CapSense_Enable
 928              	.LVL113:
 447:.\Generated_Source\PSoC4/CapSense.c ****             CapSense_lowLevelTuningDone = 1u;
 929              		.loc 1 447 0
 930 0018 FFF7FEFF 		bl	CapSense_AutoTune
 931              	.LVL114:
 448:.\Generated_Source\PSoC4/CapSense.c ****         #endif /* (0u != CapSense_CSHL_API_GENERATE) */
 932              		.loc 1 448 0
 933 001c 0122     		mov	r2, #1
 934 001e 044B     		ldr	r3, .L62
 935 0020 DA77     		strb	r2, [r3, #31]
 491:.\Generated_Source\PSoC4/CapSense.c **** }
 936              		.loc 1 491 0
 937 0022 044A     		ldr	r2, .L62+4
 938 0024 1368     		ldr	r3, [r2]
 939 0026 8021     		mov	r1, #128
 940 0028 C903     		lsl	r1, r1, #15
 941 002a 0B43     		orr	r3, r1
 942 002c 1360     		str	r3, [r2]
 492:.\Generated_Source\PSoC4/CapSense.c **** 
 943              		.loc 1 492 0
 944              		@ sp needed
 945 002e 08BD     		pop	{r3, pc}
 946              	.L63:
 947              		.align	2
 948              	.L62:
 949 0030 00000000 		.word	.LANCHOR0
 950 0034 04000840 		.word	1074266116
 951              		.cfi_endproc
 952              	.LFE36:
 953              		.size	CapSense_Start, .-CapSense_Start
 954              		.section	.text.CapSense_ReadCurrentScanningSensor,"ax",%progbits
 955              		.align	2
 956              		.global	CapSense_ReadCurrentScanningSensor
 957              		.code	16
 958              		.thumb_func
 959              		.type	CapSense_ReadCurrentScanningSensor, %function
 960              	CapSense_ReadCurrentScanningSensor:
 961              	.LFB57:
1721:.\Generated_Source\PSoC4/CapSense.c **** 
1722:.\Generated_Source\PSoC4/CapSense.c **** 
1723:.\Generated_Source\PSoC4/CapSense.c **** /*******************************************************************************
1724:.\Generated_Source\PSoC4/CapSense.c **** * Function Name: CapSense_ReadCurrentScanningSensor
1725:.\Generated_Source\PSoC4/CapSense.c **** ********************************************************************************
1726:.\Generated_Source\PSoC4/CapSense.c **** *
1727:.\Generated_Source\PSoC4/CapSense.c **** * Summary:
1728:.\Generated_Source\PSoC4/CapSense.c **** *  This API returns scanning sensor number when sensor scan is in progress.
1729:.\Generated_Source\PSoC4/CapSense.c **** *  When sensor scan is completed the API returns
1730:.\Generated_Source\PSoC4/CapSense.c **** *  $INSTANCE_NAME`_NOT_SENSOR (0xFFFFFFFF) (when no sensor is scanned).
1731:.\Generated_Source\PSoC4/CapSense.c **** *
1732:.\Generated_Source\PSoC4/CapSense.c **** * Parameters:
1733:.\Generated_Source\PSoC4/CapSense.c **** *   None.
1734:.\Generated_Source\PSoC4/CapSense.c **** *
ARM GAS  C:\Users\SHOZOK~1\AppData\Local\Temp\cc5HTLHa.s 			page 49


1735:.\Generated_Source\PSoC4/CapSense.c **** * Return:
1736:.\Generated_Source\PSoC4/CapSense.c **** *  Returns Sensor number if sensor is being scanned and
1737:.\Generated_Source\PSoC4/CapSense.c **** *  $INSTANCE_NAME`_NOT_SENSOR (0xFFFFFFFF) if scanning is complete.
1738:.\Generated_Source\PSoC4/CapSense.c **** *
1739:.\Generated_Source\PSoC4/CapSense.c **** * Global Variables:
1740:.\Generated_Source\PSoC4/CapSense.c **** *  CapSense_sensorIndex - the sensor number is being scanned.
1741:.\Generated_Source\PSoC4/CapSense.c **** *
1742:.\Generated_Source\PSoC4/CapSense.c **** * Side Effects:
1743:.\Generated_Source\PSoC4/CapSense.c **** *  None
1744:.\Generated_Source\PSoC4/CapSense.c **** *
1745:.\Generated_Source\PSoC4/CapSense.c **** *******************************************************************************/
1746:.\Generated_Source\PSoC4/CapSense.c **** uint32 CapSense_ReadCurrentScanningSensor(void)
1747:.\Generated_Source\PSoC4/CapSense.c **** {
 962              		.loc 1 1747 0
 963              		.cfi_startproc
1748:.\Generated_Source\PSoC4/CapSense.c ****     return ((uint32)(( 0u != (CapSense_csdStatusVar & CapSense_SW_STS_BUSY)) ?
 964              		.loc 1 1748 0
 965 0000 054B     		ldr	r3, .L67
 966 0002 1B78     		ldrb	r3, [r3]
 967 0004 DB07     		lsl	r3, r3, #31
 968 0006 04D5     		bpl	.L66
 969              		.loc 1 1748 0 is_stmt 0 discriminator 1
 970 0008 2023     		mov	r3, #32
 971 000a 034A     		ldr	r2, .L67
 972 000c D05C     		ldrb	r0, [r2, r3]
 973 000e C0B2     		uxtb	r0, r0
 974 0010 01E0     		b	.L65
 975              	.L66:
 976              		.loc 1 1748 0
 977 0012 0120     		mov	r0, #1
 978 0014 4042     		neg	r0, r0
 979              	.L65:
1749:.\Generated_Source\PSoC4/CapSense.c ****                      CapSense_sensorIndex : CapSense_NOT_SENSOR));
1750:.\Generated_Source\PSoC4/CapSense.c **** }
 980              		.loc 1 1750 0 is_stmt 1 discriminator 4
 981              		@ sp needed
 982 0016 7047     		bx	lr
 983              	.L68:
 984              		.align	2
 985              	.L67:
 986 0018 00000000 		.word	.LANCHOR0
 987              		.cfi_endproc
 988              	.LFE57:
 989              		.size	CapSense_ReadCurrentScanningSensor, .-CapSense_ReadCurrentScanningSensor
 990              		.section	.text.CapSense_GetBitValue,"ax",%progbits
 991              		.align	2
 992              		.global	CapSense_GetBitValue
 993              		.code	16
 994              		.thumb_func
 995              		.type	CapSense_GetBitValue, %function
 996              	CapSense_GetBitValue:
 997              	.LFB58:
1751:.\Generated_Source\PSoC4/CapSense.c **** 
1752:.\Generated_Source\PSoC4/CapSense.c **** 
1753:.\Generated_Source\PSoC4/CapSense.c **** /*******************************************************************************
1754:.\Generated_Source\PSoC4/CapSense.c **** * Function Name: CapSense_GetBitValue
1755:.\Generated_Source\PSoC4/CapSense.c **** ********************************************************************************
ARM GAS  C:\Users\SHOZOK~1\AppData\Local\Temp\cc5HTLHa.s 			page 50


1756:.\Generated_Source\PSoC4/CapSense.c **** *
1757:.\Generated_Source\PSoC4/CapSense.c **** * Summary:
1758:.\Generated_Source\PSoC4/CapSense.c **** *  The API returns a bit status of the bit in the table array which contains the masks.
1759:.\Generated_Source\PSoC4/CapSense.c **** *
1760:.\Generated_Source\PSoC4/CapSense.c **** * Parameters:
1761:.\Generated_Source\PSoC4/CapSense.c **** *  table[] - array with bit masks.
1762:.\Generated_Source\PSoC4/CapSense.c **** *  position - position of bit in the table[] array.
1763:.\Generated_Source\PSoC4/CapSense.c **** *
1764:.\Generated_Source\PSoC4/CapSense.c **** * Return:
1765:.\Generated_Source\PSoC4/CapSense.c **** *  0 - bit is not set; 1 - bit is set.
1766:.\Generated_Source\PSoC4/CapSense.c **** *
1767:.\Generated_Source\PSoC4/CapSense.c **** * Global Variables:
1768:.\Generated_Source\PSoC4/CapSense.c **** *  None
1769:.\Generated_Source\PSoC4/CapSense.c **** *
1770:.\Generated_Source\PSoC4/CapSense.c **** * Side Effects:
1771:.\Generated_Source\PSoC4/CapSense.c **** *  None
1772:.\Generated_Source\PSoC4/CapSense.c **** *
1773:.\Generated_Source\PSoC4/CapSense.c **** *******************************************************************************/
1774:.\Generated_Source\PSoC4/CapSense.c **** uint32 CapSense_GetBitValue(const uint8 table[], uint32 position)
1775:.\Generated_Source\PSoC4/CapSense.c **** {
 998              		.loc 1 1775 0
 999              		.cfi_startproc
 1000              	.LVL115:
1776:.\Generated_Source\PSoC4/CapSense.c ****     uint32 offset;
1777:.\Generated_Source\PSoC4/CapSense.c ****     uint8 enMask;
1778:.\Generated_Source\PSoC4/CapSense.c **** 
1779:.\Generated_Source\PSoC4/CapSense.c ****     /* position is divided by 8 to calculate the element of the
1780:.\Generated_Source\PSoC4/CapSense.c ****        table[] array that contains the enable bit
1781:.\Generated_Source\PSoC4/CapSense.c ****        for an appropriate sensor.
1782:.\Generated_Source\PSoC4/CapSense.c ****     */
1783:.\Generated_Source\PSoC4/CapSense.c ****     offset = (position >> 3u);
 1001              		.loc 1 1783 0
 1002 0000 CA08     		lsr	r2, r1, #3
 1003              	.LVL116:
1784:.\Generated_Source\PSoC4/CapSense.c **** 
1785:.\Generated_Source\PSoC4/CapSense.c ****     /* The enMask calculation for the appropriate sensor. Operation (position & 0x07u)
1786:.\Generated_Source\PSoC4/CapSense.c ****        intends to calculate the enable bit offset for the 8-bit element of the
1787:.\Generated_Source\PSoC4/CapSense.c ****        table[] array.
1788:.\Generated_Source\PSoC4/CapSense.c ****     */
1789:.\Generated_Source\PSoC4/CapSense.c ****     enMask = 0x01u << (position & 0x07u);
 1004              		.loc 1 1789 0
 1005 0002 0723     		mov	r3, #7
 1006 0004 1940     		and	r1, r3
 1007              	.LVL117:
 1008 0006 063B     		sub	r3, r3, #6
 1009 0008 8B40     		lsl	r3, r3, r1
 1010 000a 191C     		mov	r1, r3
 1011              	.LVL118:
1790:.\Generated_Source\PSoC4/CapSense.c **** 
1791:.\Generated_Source\PSoC4/CapSense.c ****     return ((0u !=(table[offset] & enMask)) ? 1Lu : 0Lu);
 1012              		.loc 1 1791 0
 1013 000c 835C     		ldrb	r3, [r0, r2]
 1014 000e 1942     		tst	r1, r3
 1015 0010 01D0     		beq	.L71
 1016 0012 0120     		mov	r0, #1
 1017              	.LVL119:
 1018 0014 00E0     		b	.L70
ARM GAS  C:\Users\SHOZOK~1\AppData\Local\Temp\cc5HTLHa.s 			page 51


 1019              	.LVL120:
 1020              	.L71:
 1021 0016 0020     		mov	r0, #0
 1022              	.LVL121:
 1023              	.L70:
1792:.\Generated_Source\PSoC4/CapSense.c **** }
 1024              		.loc 1 1792 0 discriminator 4
 1025              		@ sp needed
 1026 0018 7047     		bx	lr
 1027              		.cfi_endproc
 1028              	.LFE58:
 1029              		.size	CapSense_GetBitValue, .-CapSense_GetBitValue
 1030 001a C046     		.section	.text.CapSense_FindNextSensor,"ax",%progbits
 1031              		.align	2
 1032              		.global	CapSense_FindNextSensor
 1033              		.code	16
 1034              		.thumb_func
 1035              		.type	CapSense_FindNextSensor, %function
 1036              	CapSense_FindNextSensor:
 1037              	.LFB38:
 557:.\Generated_Source\PSoC4/CapSense.c ****     uint32 enableFlag;
 1038              		.loc 1 557 0
 1039              		.cfi_startproc
 1040              	.LVL122:
 1041 0000 10B5     		push	{r4, lr}
 1042              		.cfi_def_cfa_offset 8
 1043              		.cfi_offset 4, -8
 1044              		.cfi_offset 14, -4
 1045 0002 041C     		mov	r4, r0
 1046              	.LVL123:
 1047              	.L74:
 564:.\Generated_Source\PSoC4/CapSense.c ****         if(snsIndex == CapSense_TOTAL_SENSOR_COUNT)
 1048              		.loc 1 564 0
 1049 0004 0134     		add	r4, r4, #1
 1050              	.LVL124:
 1051 0006 E4B2     		uxtb	r4, r4
 1052              	.LVL125:
 565:.\Generated_Source\PSoC4/CapSense.c ****         {
 1053              		.loc 1 565 0
 1054 0008 0D2C     		cmp	r4, #13
 1055 000a 06D0     		beq	.L73
 569:.\Generated_Source\PSoC4/CapSense.c ****     }
 1056              		.loc 1 569 0
 1057 000c 0448     		ldr	r0, .L75
 1058 000e 3430     		add	r0, r0, #52
 1059 0010 211C     		mov	r1, r4
 1060 0012 FFF7FEFF 		bl	CapSense_GetBitValue
 1061              	.LVL126:
 571:.\Generated_Source\PSoC4/CapSense.c **** 
 1062              		.loc 1 571 0
 1063 0016 0028     		cmp	r0, #0
 1064 0018 F4D0     		beq	.L74
 1065              	.LVL127:
 1066              	.L73:
 574:.\Generated_Source\PSoC4/CapSense.c **** 
 1067              		.loc 1 574 0
 1068 001a 201C     		mov	r0, r4
ARM GAS  C:\Users\SHOZOK~1\AppData\Local\Temp\cc5HTLHa.s 			page 52


 1069              		@ sp needed
 1070              	.LVL128:
 1071 001c 10BD     		pop	{r4, pc}
 1072              	.L76:
 1073 001e C046     		.align	2
 1074              	.L75:
 1075 0020 00000000 		.word	.LANCHOR1
 1076              		.cfi_endproc
 1077              	.LFE38:
 1078              		.size	CapSense_FindNextSensor, .-CapSense_FindNextSensor
 1079              		.section	.text.CapSense_PreScan,"ax",%progbits
 1080              		.align	2
 1081              		.global	CapSense_PreScan
 1082              		.code	16
 1083              		.thumb_func
 1084              		.type	CapSense_PreScan, %function
 1085              	CapSense_PreScan:
 1086              	.LFB53:
1386:.\Generated_Source\PSoC4/CapSense.c ****     uint8 widget;
 1087              		.loc 1 1386 0
 1088              		.cfi_startproc
 1089              	.LVL129:
 1090 0000 F8B5     		push	{r3, r4, r5, r6, r7, lr}
 1091              		.cfi_def_cfa_offset 24
 1092              		.cfi_offset 3, -24
 1093              		.cfi_offset 4, -20
 1094              		.cfi_offset 5, -16
 1095              		.cfi_offset 6, -12
 1096              		.cfi_offset 7, -8
 1097              		.cfi_offset 14, -4
 1098 0002 041C     		mov	r4, r0
1404:.\Generated_Source\PSoC4/CapSense.c **** 
 1099              		.loc 1 1404 0
 1100 0004 354B     		ldr	r3, .L81
 1101 0006 5C33     		add	r3, r3, #92
 1102 0008 1D5C     		ldrb	r5, [r3, r0]
1407:.\Generated_Source\PSoC4/CapSense.c **** 
 1103              		.loc 1 1407 0
 1104 000a AA00     		lsl	r2, r5, #2
 1105 000c 344B     		ldr	r3, .L81+4
 1106 000e D658     		ldr	r6, [r2, r3]
 1107              	.LVL130:
1411:.\Generated_Source\PSoC4/CapSense.c **** 
 1108              		.loc 1 1411 0
 1109 0010 3448     		ldr	r0, .L81+8
 1110              	.LVL131:
 1111 0012 211C     		mov	r1, r4
 1112 0014 FFF7FEFF 		bl	CapSense_GetBitValue
 1113              	.LVL132:
1413:.\Generated_Source\PSoC4/CapSense.c ****         {
 1114              		.loc 1 1413 0
 1115 0018 334B     		ldr	r3, .L81+12
 1116 001a 9E42     		cmp	r6, r3
 1117 001c 03D8     		bhi	.L78
1415:.\Generated_Source\PSoC4/CapSense.c ****             counterResolution |= (uint32)(CapSense_RESOLUTION_8_BITS);
 1118              		.loc 1 1415 0
 1119 001e 8640     		lsl	r6, r6, r0
ARM GAS  C:\Users\SHOZOK~1\AppData\Local\Temp\cc5HTLHa.s 			page 53


 1120              	.LVL133:
1416:.\Generated_Source\PSoC4/CapSense.c ****         }
 1121              		.loc 1 1416 0
 1122 0020 FF20     		mov	r0, #255
 1123              	.LVL134:
 1124 0022 0004     		lsl	r0, r0, #16
 1125 0024 0643     		orr	r6, r0
 1126              	.LVL135:
 1127              	.L78:
1427:.\Generated_Source\PSoC4/CapSense.c ****         CapSense_SenseClk_SetDividerValue((uint16)CapSense_senseClkDividerVal[sensor]);
 1128              		.loc 1 1427 0
 1129 0026 314B     		ldr	r3, .L81+16
 1130 0028 185D     		ldrb	r0, [r3, r4]
 1131 002a 0138     		sub	r0, r0, #1
 1132 002c 80B2     		uxth	r0, r0
 1133 002e 0021     		mov	r1, #0
 1134 0030 FFF7FEFF 		bl	CapSense_SampleClk_SetFractionalDividerRegister
 1135              	.LVL136:
1428:.\Generated_Source\PSoC4/CapSense.c ****     #else
 1136              		.loc 1 1428 0
 1137 0034 2E4B     		ldr	r3, .L81+20
 1138 0036 185D     		ldrb	r0, [r3, r4]
 1139 0038 0138     		sub	r0, r0, #1
 1140 003a 80B2     		uxth	r0, r0
 1141 003c 0021     		mov	r1, #0
 1142 003e FFF7FEFF 		bl	CapSense_SenseClk_SetFractionalDividerRegister
 1143              	.LVL137:
1454:.\Generated_Source\PSoC4/CapSense.c ****         {
 1144              		.loc 1 1454 0
 1145 0042 2123     		mov	r3, #33
 1146 0044 2B4A     		ldr	r2, .L81+24
 1147 0046 D35C     		ldrb	r3, [r2, r3]
 1148 0048 002B     		cmp	r3, #0
 1149 004a 1ED0     		beq	.L79
1458:.\Generated_Source\PSoC4/CapSense.c **** 
 1150              		.loc 1 1458 0
 1151 004c 0F20     		mov	r0, #15
 1152 004e FFF7FEFF 		bl	CyIntDisable
 1153              	.LVL138:
1460:.\Generated_Source\PSoC4/CapSense.c ****             newRegValue |= CapSense_CSD_CFG_PRS_SELECT;
 1154              		.loc 1 1460 0
 1155 0052 294B     		ldr	r3, .L81+28
 1156 0054 1868     		ldr	r0, [r3]
 1157              	.LVL139:
1465:.\Generated_Source\PSoC4/CapSense.c **** 
 1158              		.loc 1 1465 0
 1159 0056 8023     		mov	r3, #128
 1160 0058 9843     		bic	r0, r3
 1161              	.LVL140:
 1162 005a 4021     		mov	r1, #64
 1163 005c 0143     		orr	r1, r0
 1164              	.LVL141:
1468:.\Generated_Source\PSoC4/CapSense.c ****                     sampleClkDivMath = CapSense_sampleClkDividerVal[sensor];
 1165              		.loc 1 1468 0
 1166 005e 244B     		ldr	r3, .L81+20
 1167 0060 1B5D     		ldrb	r3, [r3, r4]
 1168              	.LVL142:
ARM GAS  C:\Users\SHOZOK~1\AppData\Local\Temp\cc5HTLHa.s 			page 54


1469:.\Generated_Source\PSoC4/CapSense.c ****                 #else
 1169              		.loc 1 1469 0
 1170 0062 224A     		ldr	r2, .L81+16
 1171 0064 175D     		ldrb	r7, [r2, r4]
 1172              	.LVL143:
1476:.\Generated_Source\PSoC4/CapSense.c ****                 #endif /* (0u == CapSense_IS_M0S8PERI_BLOCK) */
 1173              		.loc 1 1476 0
 1174 0066 7B43     		mul	r3, r7
 1175              	.LVL144:
 1176 0068 DBB2     		uxtb	r3, r3
 1177              	.LVL145:
1479:.\Generated_Source\PSoC4/CapSense.c ****                    (sampleClkDivMath * CapSense_widgetResolution[widget]))
 1178              		.loc 1 1479 0
 1179 006a 1A03     		lsl	r2, r3, #12
 1180 006c D31A     		sub	r3, r2, r3
 1181              	.LVL146:
 1182 006e 1B04     		lsl	r3, r3, #16
1480:.\Generated_Source\PSoC4/CapSense.c ****                 {
 1183              		.loc 1 1480 0
 1184 0070 AD00     		lsl	r5, r5, #2
 1185 0072 1B4A     		ldr	r2, .L81+4
 1186 0074 AA58     		ldr	r2, [r5, r2]
 1187 0076 7A43     		mul	r2, r7
1479:.\Generated_Source\PSoC4/CapSense.c ****                    (sampleClkDivMath * CapSense_widgetResolution[widget]))
 1188              		.loc 1 1479 0
 1189 0078 9342     		cmp	r3, r2
 1190 007a 01D2     		bcs	.L80
1482:.\Generated_Source\PSoC4/CapSense.c ****                 }
 1191              		.loc 1 1482 0
 1192 007c C021     		mov	r1, #192
 1193              	.LVL147:
 1194 007e 0143     		orr	r1, r0
 1195              	.LVL148:
 1196              	.L80:
1486:.\Generated_Source\PSoC4/CapSense.c **** 
 1197              		.loc 1 1486 0
 1198 0080 1D4B     		ldr	r3, .L81+28
 1199 0082 1960     		str	r1, [r3]
 1200              	.LVL149:
1488:.\Generated_Source\PSoC4/CapSense.c **** 
 1201              		.loc 1 1488 0
 1202 0084 0F20     		mov	r0, #15
 1203 0086 FFF7FEFF 		bl	CyIntEnable
 1204              	.LVL150:
 1205              	.L79:
1497:.\Generated_Source\PSoC4/CapSense.c ****     newRegValue = CapSense_CSD_IDAC_REG;
 1206              		.loc 1 1497 0
 1207 008a 0F20     		mov	r0, #15
 1208 008c FFF7FEFF 		bl	CyIntDisable
 1209              	.LVL151:
1498:.\Generated_Source\PSoC4/CapSense.c **** 
 1210              		.loc 1 1498 0
 1211 0090 1A49     		ldr	r1, .L81+32
 1212 0092 0A68     		ldr	r2, [r1]
 1213              	.LVL152:
1504:.\Generated_Source\PSoC4/CapSense.c ****     newRegValue |= (CapSense_modulationIDAC[sensor] |
 1214              		.loc 1 1504 0
ARM GAS  C:\Users\SHOZOK~1\AppData\Local\Temp\cc5HTLHa.s 			page 55


 1215 0094 1A4B     		ldr	r3, .L81+36
 1216 0096 1A40     		and	r2, r3
 1217              	.LVL153:
1505:.\Generated_Source\PSoC4/CapSense.c ****                             (uint32)((uint32)CapSense_compensationIDAC[sensor] <<
 1218              		.loc 1 1505 0
 1219 0098 1A4B     		ldr	r3, .L81+40
 1220 009a 185D     		ldrb	r0, [r3, r4]
1506:.\Generated_Source\PSoC4/CapSense.c ****                             CapSense_CSD_IDAC2_DATA_OFFSET));
 1221              		.loc 1 1506 0
 1222 009c 1A4B     		ldr	r3, .L81+44
 1223 009e 1B5D     		ldrb	r3, [r3, r4]
 1224 00a0 1B04     		lsl	r3, r3, #16
1505:.\Generated_Source\PSoC4/CapSense.c ****                             (uint32)((uint32)CapSense_compensationIDAC[sensor] <<
 1225              		.loc 1 1505 0
 1226 00a2 0343     		orr	r3, r0
 1227 00a4 1343     		orr	r3, r2
 1228              	.LVL154:
1510:.\Generated_Source\PSoC4/CapSense.c **** 
 1229              		.loc 1 1510 0
 1230 00a6 0B60     		str	r3, [r1]
1525:.\Generated_Source\PSoC4/CapSense.c ****     newRegValue &= ~(CapSense_PRECHARGE_CONFIG_MASK);
 1231              		.loc 1 1525 0
 1232 00a8 134F     		ldr	r7, .L81+28
 1233 00aa 3D68     		ldr	r5, [r7]
 1234              	.LVL155:
1526:.\Generated_Source\PSoC4/CapSense.c ****     newRegValue |= CapSense_CTANK_PRECHARGE_CONFIG;
 1235              		.loc 1 1526 0
 1236 00ac 174B     		ldr	r3, .L81+48
 1237 00ae 1D40     		and	r5, r3
 1238              	.LVL156:
1527:.\Generated_Source\PSoC4/CapSense.c **** 
 1239              		.loc 1 1527 0
 1240 00b0 174B     		ldr	r3, .L81+52
 1241 00b2 1D43     		orr	r5, r3
 1242              	.LVL157:
1529:.\Generated_Source\PSoC4/CapSense.c **** 
 1243              		.loc 1 1529 0
 1244 00b4 0F20     		mov	r0, #15
 1245 00b6 FFF7FEFF 		bl	CyIntEnable
 1246              	.LVL158:
1532:.\Generated_Source\PSoC4/CapSense.c **** 
 1247              		.loc 1 1532 0
 1248 00ba 201C     		mov	r0, r4
 1249 00bc FFF7FEFF 		bl	CapSense_EnableSensor
 1250              	.LVL159:
1534:.\Generated_Source\PSoC4/CapSense.c ****     CapSense_CSD_CFG_REG = newRegValue;
 1251              		.loc 1 1534 0
 1252 00c0 FFF7FEFF 		bl	CyEnterCriticalSection
 1253              	.LVL160:
 1254 00c4 041C     		mov	r4, r0
 1255              	.LVL161:
1535:.\Generated_Source\PSoC4/CapSense.c **** 
 1256              		.loc 1 1535 0
 1257 00c6 3D60     		str	r5, [r7]
1545:.\Generated_Source\PSoC4/CapSense.c **** 
 1258              		.loc 1 1545 0
 1259 00c8 0020     		mov	r0, #0
ARM GAS  C:\Users\SHOZOK~1\AppData\Local\Temp\cc5HTLHa.s 			page 56


 1260 00ca FFF7FEFF 		bl	CyDelayCycles
 1261              	.LVL162:
1555:.\Generated_Source\PSoC4/CapSense.c ****     CyExitCriticalSection(interruptState);
 1262              		.loc 1 1555 0
 1263 00ce 114B     		ldr	r3, .L81+56
 1264 00d0 1E60     		str	r6, [r3]
1556:.\Generated_Source\PSoC4/CapSense.c **** }
 1265              		.loc 1 1556 0
 1266 00d2 201C     		mov	r0, r4
 1267 00d4 FFF7FEFF 		bl	CyExitCriticalSection
 1268              	.LVL163:
1557:.\Generated_Source\PSoC4/CapSense.c **** 
 1269              		.loc 1 1557 0
 1270              		@ sp needed
 1271              	.LVL164:
 1272              	.LVL165:
 1273              	.LVL166:
 1274 00d8 F8BD     		pop	{r3, r4, r5, r6, r7, pc}
 1275              	.L82:
 1276 00da C046     		.align	2
 1277              	.L81:
 1278 00dc 00000000 		.word	.LANCHOR2
 1279 00e0 00000000 		.word	.LANCHOR1
 1280 00e4 00000000 		.word	CapSense_scanSpeedTbl
 1281 00e8 FFFFFEFF 		.word	-65537
 1282 00ec 00000000 		.word	CapSense_sampleClkDividerVal
 1283 00f0 00000000 		.word	CapSense_senseClkDividerVal
 1284 00f4 00000000 		.word	.LANCHOR0
 1285 00f8 04000840 		.word	1074266116
 1286 00fc 08000840 		.word	1074266120
 1287 0100 00FF80FF 		.word	-8323328
 1288 0104 00000000 		.word	CapSense_modulationIDAC
 1289 0108 00000000 		.word	CapSense_compensationIDAC
 1290 010c FF1FDFFF 		.word	-2154497
 1291 0110 20E02000 		.word	2154528
 1292 0114 0C000840 		.word	1074266124
 1293              		.cfi_endproc
 1294              	.LFE53:
 1295              		.size	CapSense_PreScan, .-CapSense_PreScan
 1296              		.section	.text.CapSense_ScanSensor,"ax",%progbits
 1297              		.align	2
 1298              		.global	CapSense_ScanSensor
 1299              		.code	16
 1300              		.thumb_func
 1301              		.type	CapSense_ScanSensor, %function
 1302              	CapSense_ScanSensor:
 1303              	.LFB39:
 605:.\Generated_Source\PSoC4/CapSense.c ****     /* Clears status/control variable and set sensorIndex */
 1304              		.loc 1 605 0
 1305              		.cfi_startproc
 1306              	.LVL167:
 1307 0000 08B5     		push	{r3, lr}
 1308              		.cfi_def_cfa_offset 8
 1309              		.cfi_offset 3, -8
 1310              		.cfi_offset 14, -4
 607:.\Generated_Source\PSoC4/CapSense.c ****     CapSense_sensorIndex = (uint8)sensor;
 1311              		.loc 1 607 0
ARM GAS  C:\Users\SHOZOK~1\AppData\Local\Temp\cc5HTLHa.s 			page 57


 1312 0002 054B     		ldr	r3, .L84
 1313 0004 0022     		mov	r2, #0
 1314 0006 1A70     		strb	r2, [r3]
 608:.\Generated_Source\PSoC4/CapSense.c **** 
 1315              		.loc 1 608 0
 1316 0008 C1B2     		uxtb	r1, r0
 1317 000a 2032     		add	r2, r2, #32
 1318 000c 9954     		strb	r1, [r3, r2]
 611:.\Generated_Source\PSoC4/CapSense.c ****     CapSense_PreScan(sensor);
 1319              		.loc 1 611 0
 1320 000e 6132     		add	r2, r2, #97
 1321 0010 1A70     		strb	r2, [r3]
 612:.\Generated_Source\PSoC4/CapSense.c **** }
 1322              		.loc 1 612 0
 1323 0012 FFF7FEFF 		bl	CapSense_PreScan
 1324              	.LVL168:
 613:.\Generated_Source\PSoC4/CapSense.c **** 
 1325              		.loc 1 613 0
 1326              		@ sp needed
 1327 0016 08BD     		pop	{r3, pc}
 1328              	.L85:
 1329              		.align	2
 1330              	.L84:
 1331 0018 00000000 		.word	.LANCHOR0
 1332              		.cfi_endproc
 1333              	.LFE39:
 1334              		.size	CapSense_ScanSensor, .-CapSense_ScanSensor
 1335              		.section	.text.CapSense_ScanEnabledWidgets,"ax",%progbits
 1336              		.align	2
 1337              		.global	CapSense_ScanEnabledWidgets
 1338              		.code	16
 1339              		.thumb_func
 1340              		.type	CapSense_ScanEnabledWidgets, %function
 1341              	CapSense_ScanEnabledWidgets:
 1342              	.LFB41:
 729:.\Generated_Source\PSoC4/CapSense.c ****     /* Clears status/control variable and set sensorIndex */
 1343              		.loc 1 729 0
 1344              		.cfi_startproc
 1345 0000 38B5     		push	{r3, r4, r5, lr}
 1346              		.cfi_def_cfa_offset 16
 1347              		.cfi_offset 3, -16
 1348              		.cfi_offset 4, -12
 1349              		.cfi_offset 5, -8
 1350              		.cfi_offset 14, -4
 731:.\Generated_Source\PSoC4/CapSense.c ****     CapSense_sensorIndex = 0xFFu;
 1351              		.loc 1 731 0
 1352 0002 0C4C     		ldr	r4, .L88
 1353 0004 0023     		mov	r3, #0
 1354 0006 2370     		strb	r3, [r4]
 732:.\Generated_Source\PSoC4/CapSense.c **** 
 1355              		.loc 1 732 0
 1356 0008 2025     		mov	r5, #32
 1357 000a FF33     		add	r3, r3, #255
 1358 000c 6355     		strb	r3, [r4, r5]
 735:.\Generated_Source\PSoC4/CapSense.c **** 
 1359              		.loc 1 735 0
 1360 000e 605D     		ldrb	r0, [r4, r5]
ARM GAS  C:\Users\SHOZOK~1\AppData\Local\Temp\cc5HTLHa.s 			page 58


 1361 0010 C0B2     		uxtb	r0, r0
 1362 0012 FFF7FEFF 		bl	CapSense_FindNextSensor
 1363              	.LVL169:
 1364 0016 6055     		strb	r0, [r4, r5]
 738:.\Generated_Source\PSoC4/CapSense.c ****     {
 1365              		.loc 1 738 0
 1366 0018 635D     		ldrb	r3, [r4, r5]
 1367 001a DBB2     		uxtb	r3, r3
 1368 001c 0C2B     		cmp	r3, #12
 1369 001e 08D8     		bhi	.L86
 740:.\Generated_Source\PSoC4/CapSense.c ****         CapSense_PreScan((uint32)CapSense_sensorIndex);
 1370              		.loc 1 740 0
 1371 0020 2178     		ldrb	r1, [r4]
 1372 0022 0122     		mov	r2, #1
 1373 0024 0A43     		orr	r2, r1
 1374 0026 2270     		strb	r2, [r4]
 741:.\Generated_Source\PSoC4/CapSense.c ****     }
 1375              		.loc 1 741 0
 1376 0028 2022     		mov	r2, #32
 1377 002a A05C     		ldrb	r0, [r4, r2]
 1378 002c C0B2     		uxtb	r0, r0
 1379 002e FFF7FEFF 		bl	CapSense_PreScan
 1380              	.LVL170:
 1381              	.L86:
 743:.\Generated_Source\PSoC4/CapSense.c **** 
 1382              		.loc 1 743 0
 1383              		@ sp needed
 1384 0032 38BD     		pop	{r3, r4, r5, pc}
 1385              	.L89:
 1386              		.align	2
 1387              	.L88:
 1388 0034 00000000 		.word	.LANCHOR0
 1389              		.cfi_endproc
 1390              	.LFE41:
 1391              		.size	CapSense_ScanEnabledWidgets, .-CapSense_ScanEnabledWidgets
 1392              		.section	.text.CapSense_PostScan,"ax",%progbits
 1393              		.align	2
 1394              		.global	CapSense_PostScan
 1395              		.code	16
 1396              		.thumb_func
 1397              		.type	CapSense_PostScan, %function
 1398              	CapSense_PostScan:
 1399              	.LFB54:
1583:.\Generated_Source\PSoC4/CapSense.c ****     uint32 newRegValue;
 1400              		.loc 1 1583 0
 1401              		.cfi_startproc
 1402              	.LVL171:
 1403 0000 38B5     		push	{r3, r4, r5, lr}
 1404              		.cfi_def_cfa_offset 16
 1405              		.cfi_offset 3, -16
 1406              		.cfi_offset 4, -12
 1407              		.cfi_offset 5, -8
 1408              		.cfi_offset 14, -4
 1409 0002 051C     		mov	r5, r0
1601:.\Generated_Source\PSoC4/CapSense.c **** 
 1410              		.loc 1 1601 0
 1411 0004 174B     		ldr	r3, .L92
ARM GAS  C:\Users\SHOZOK~1\AppData\Local\Temp\cc5HTLHa.s 			page 59


 1412 0006 1C68     		ldr	r4, [r3]
 1413 0008 A4B2     		uxth	r4, r4
 1414 000a 4300     		lsl	r3, r0, #1
 1415 000c 164A     		ldr	r2, .L92+4
 1416 000e D318     		add	r3, r2, r3
 1417 0010 9C80     		strh	r4, [r3, #4]
1605:.\Generated_Source\PSoC4/CapSense.c ****     if(CapSense_widgetResolution[widget] < CapSense_RESOLUTION_16_BITS)
 1418              		.loc 1 1605 0
 1419 0012 164B     		ldr	r3, .L92+8
 1420 0014 5C33     		add	r3, r3, #92
 1421 0016 1B5C     		ldrb	r3, [r3, r0]
 1422              	.LVL172:
1606:.\Generated_Source\PSoC4/CapSense.c ****     {
 1423              		.loc 1 1606 0
 1424 0018 9B00     		lsl	r3, r3, #2
 1425              	.LVL173:
 1426 001a 154A     		ldr	r2, .L92+12
 1427 001c 9A58     		ldr	r2, [r3, r2]
 1428 001e 154B     		ldr	r3, .L92+16
 1429 0020 9A42     		cmp	r2, r3
 1430 0022 08D8     		bhi	.L91
1608:.\Generated_Source\PSoC4/CapSense.c ****         CapSense_sensorRaw[sensor] >>= oversamplingFactor;
 1431              		.loc 1 1608 0
 1432 0024 1448     		ldr	r0, .L92+20
 1433              	.LVL174:
 1434 0026 291C     		mov	r1, r5
 1435 0028 FFF7FEFF 		bl	CapSense_GetBitValue
 1436              	.LVL175:
1609:.\Generated_Source\PSoC4/CapSense.c ****     }
 1437              		.loc 1 1609 0
 1438 002c 6B00     		lsl	r3, r5, #1
 1439 002e 0E4A     		ldr	r2, .L92+4
 1440 0030 D318     		add	r3, r2, r3
 1441 0032 0441     		asr	r4, r4, r0
 1442 0034 9C80     		strh	r4, [r3, #4]
 1443              	.LVL176:
 1444              	.L91:
1615:.\Generated_Source\PSoC4/CapSense.c **** 
 1445              		.loc 1 1615 0
 1446 0036 281C     		mov	r0, r5
 1447 0038 FFF7FEFF 		bl	CapSense_DisableSensor
 1448              	.LVL177:
1617:.\Generated_Source\PSoC4/CapSense.c **** 
 1449              		.loc 1 1617 0
 1450 003c 0F20     		mov	r0, #15
 1451 003e FFF7FEFF 		bl	CyIntDisable
 1452              	.LVL178:
1637:.\Generated_Source\PSoC4/CapSense.c ****     newRegValue &= ~(CapSense_PRECHARGE_CONFIG_MASK);
 1453              		.loc 1 1637 0
 1454 0042 0E4A     		ldr	r2, .L92+24
 1455 0044 1168     		ldr	r1, [r2]
 1456              	.LVL179:
1638:.\Generated_Source\PSoC4/CapSense.c ****     newRegValue |= CapSense_CMOD_PRECHARGE_CONFIG;
 1457              		.loc 1 1638 0
 1458 0046 0E4B     		ldr	r3, .L92+28
 1459 0048 0B40     		and	r3, r1
 1460              	.LVL180:
ARM GAS  C:\Users\SHOZOK~1\AppData\Local\Temp\cc5HTLHa.s 			page 60


1639:.\Generated_Source\PSoC4/CapSense.c ****     CapSense_CSD_CFG_REG = newRegValue;
 1461              		.loc 1 1639 0
 1462 004a A021     		mov	r1, #160
 1463 004c 0902     		lsl	r1, r1, #8
 1464 004e 0B43     		orr	r3, r1
 1465              	.LVL181:
1640:.\Generated_Source\PSoC4/CapSense.c **** 
 1466              		.loc 1 1640 0
 1467 0050 1360     		str	r3, [r2]
1646:.\Generated_Source\PSoC4/CapSense.c **** #endif /* (CapSense_IDAC_CNT == 1u) */
 1468              		.loc 1 1646 0
 1469 0052 0C4A     		ldr	r2, .L92+32
 1470 0054 1168     		ldr	r1, [r2]
 1471 0056 0C4B     		ldr	r3, .L92+36
 1472              	.LVL182:
 1473 0058 0B40     		and	r3, r1
 1474 005a 1360     		str	r3, [r2]
 1475              	.LVL183:
1649:.\Generated_Source\PSoC4/CapSense.c **** }
 1476              		.loc 1 1649 0
 1477 005c 0F20     		mov	r0, #15
 1478 005e FFF7FEFF 		bl	CyIntEnable
 1479              	.LVL184:
1650:.\Generated_Source\PSoC4/CapSense.c **** 
 1480              		.loc 1 1650 0
 1481              		@ sp needed
 1482              	.LVL185:
 1483 0062 38BD     		pop	{r3, r4, r5, pc}
 1484              	.L93:
 1485              		.align	2
 1486              	.L92:
 1487 0064 0C000840 		.word	1074266124
 1488 0068 00000000 		.word	.LANCHOR0
 1489 006c 00000000 		.word	.LANCHOR2
 1490 0070 00000000 		.word	.LANCHOR1
 1491 0074 FFFFFEFF 		.word	-65537
 1492 0078 00000000 		.word	CapSense_scanSpeedTbl
 1493 007c 04000840 		.word	1074266116
 1494 0080 FF1FDFFF 		.word	-2154497
 1495 0084 08000840 		.word	1074266120
 1496 0088 00FF80FF 		.word	-8323328
 1497              		.cfi_endproc
 1498              	.LFE54:
 1499              		.size	CapSense_PostScan, .-CapSense_PostScan
 1500              		.section	.text.CapSense_SetBitValue,"ax",%progbits
 1501              		.align	2
 1502              		.global	CapSense_SetBitValue
 1503              		.code	16
 1504              		.thumb_func
 1505              		.type	CapSense_SetBitValue, %function
 1506              	CapSense_SetBitValue:
 1507              	.LFB59:
1793:.\Generated_Source\PSoC4/CapSense.c **** 
1794:.\Generated_Source\PSoC4/CapSense.c **** 
1795:.\Generated_Source\PSoC4/CapSense.c **** /*******************************************************************************
1796:.\Generated_Source\PSoC4/CapSense.c **** * Function Name: CapSense_SetBitValue
1797:.\Generated_Source\PSoC4/CapSense.c **** ********************************************************************************
ARM GAS  C:\Users\SHOZOK~1\AppData\Local\Temp\cc5HTLHa.s 			page 61


1798:.\Generated_Source\PSoC4/CapSense.c **** *
1799:.\Generated_Source\PSoC4/CapSense.c **** * Summary:
1800:.\Generated_Source\PSoC4/CapSense.c **** *  The API sets a bit status of the bit in the table array which contains masks.
1801:.\Generated_Source\PSoC4/CapSense.c **** *
1802:.\Generated_Source\PSoC4/CapSense.c **** * Parameters:
1803:.\Generated_Source\PSoC4/CapSense.c **** *  table[] - array with bit masks.
1804:.\Generated_Source\PSoC4/CapSense.c **** *  position - position of bit in the table[] array.
1805:.\Generated_Source\PSoC4/CapSense.c **** *  value: 0 - bit is not set; 1 - bit is set.
1806:.\Generated_Source\PSoC4/CapSense.c **** *
1807:.\Generated_Source\PSoC4/CapSense.c **** * Return:
1808:.\Generated_Source\PSoC4/CapSense.c **** *  None
1809:.\Generated_Source\PSoC4/CapSense.c **** *
1810:.\Generated_Source\PSoC4/CapSense.c **** * Global Variables:
1811:.\Generated_Source\PSoC4/CapSense.c **** *  None
1812:.\Generated_Source\PSoC4/CapSense.c **** *
1813:.\Generated_Source\PSoC4/CapSense.c **** * Side Effects:
1814:.\Generated_Source\PSoC4/CapSense.c **** *  None
1815:.\Generated_Source\PSoC4/CapSense.c **** *
1816:.\Generated_Source\PSoC4/CapSense.c **** *******************************************************************************/
1817:.\Generated_Source\PSoC4/CapSense.c **** void CapSense_SetBitValue(uint8 table[], uint32 position, uint32 value)
1818:.\Generated_Source\PSoC4/CapSense.c **** {
 1508              		.loc 1 1818 0
 1509              		.cfi_startproc
 1510              	.LVL186:
 1511 0000 10B5     		push	{r4, lr}
 1512              		.cfi_def_cfa_offset 8
 1513              		.cfi_offset 4, -8
 1514              		.cfi_offset 14, -4
1819:.\Generated_Source\PSoC4/CapSense.c ****     uint32 offset;
1820:.\Generated_Source\PSoC4/CapSense.c ****     uint8 enMask;
1821:.\Generated_Source\PSoC4/CapSense.c **** 
1822:.\Generated_Source\PSoC4/CapSense.c ****     /* position is divided by 8 to calculate the element of the
1823:.\Generated_Source\PSoC4/CapSense.c ****        table[] array that contains the enable bit
1824:.\Generated_Source\PSoC4/CapSense.c ****        for an appropriate sensor.
1825:.\Generated_Source\PSoC4/CapSense.c ****     */
1826:.\Generated_Source\PSoC4/CapSense.c ****     offset = (position >> 3u);
 1515              		.loc 1 1826 0
 1516 0002 CC08     		lsr	r4, r1, #3
 1517              	.LVL187:
1827:.\Generated_Source\PSoC4/CapSense.c **** 
1828:.\Generated_Source\PSoC4/CapSense.c ****     /* The enMask calculation for the appropriate sensor. Operation (position & 0x07u)
1829:.\Generated_Source\PSoC4/CapSense.c ****        intends to calculate the enable bit offset for the 8-bit element of the
1830:.\Generated_Source\PSoC4/CapSense.c ****        table[] array.
1831:.\Generated_Source\PSoC4/CapSense.c ****     */
1832:.\Generated_Source\PSoC4/CapSense.c ****     enMask = 0x01u << (position & 0x07u);
 1518              		.loc 1 1832 0
 1519 0004 0723     		mov	r3, #7
 1520 0006 1940     		and	r1, r3
 1521              	.LVL188:
 1522 0008 063B     		sub	r3, r3, #6
 1523 000a 8B40     		lsl	r3, r3, r1
 1524 000c D9B2     		uxtb	r1, r3
 1525              	.LVL189:
1833:.\Generated_Source\PSoC4/CapSense.c **** 
1834:.\Generated_Source\PSoC4/CapSense.c ****     if(0u != value)
 1526              		.loc 1 1834 0
 1527 000e 002A     		cmp	r2, #0
ARM GAS  C:\Users\SHOZOK~1\AppData\Local\Temp\cc5HTLHa.s 			page 62


 1528 0010 04D0     		beq	.L95
1835:.\Generated_Source\PSoC4/CapSense.c ****     {
1836:.\Generated_Source\PSoC4/CapSense.c ****         table[offset] |= enMask;
 1529              		.loc 1 1836 0
 1530 0012 0419     		add	r4, r0, r4
 1531              	.LVL190:
 1532 0014 2378     		ldrb	r3, [r4]
 1533 0016 1943     		orr	r1, r3
 1534              	.LVL191:
 1535 0018 2170     		strb	r1, [r4]
 1536 001a 03E0     		b	.L94
 1537              	.LVL192:
 1538              	.L95:
1837:.\Generated_Source\PSoC4/CapSense.c ****     }
1838:.\Generated_Source\PSoC4/CapSense.c ****     else
1839:.\Generated_Source\PSoC4/CapSense.c ****     {
1840:.\Generated_Source\PSoC4/CapSense.c ****         table[offset] &= (uint8)~(enMask);
 1539              		.loc 1 1840 0
 1540 001c 0419     		add	r4, r0, r4
 1541              	.LVL193:
 1542 001e 2378     		ldrb	r3, [r4]
 1543 0020 8B43     		bic	r3, r1
 1544 0022 2370     		strb	r3, [r4]
 1545              	.LVL194:
 1546              	.L94:
1841:.\Generated_Source\PSoC4/CapSense.c ****     }
1842:.\Generated_Source\PSoC4/CapSense.c **** }
 1547              		.loc 1 1842 0
 1548              		@ sp needed
 1549 0024 10BD     		pop	{r4, pc}
 1550              		.cfi_endproc
 1551              	.LFE59:
 1552              		.size	CapSense_SetBitValue, .-CapSense_SetBitValue
 1553 0026 C046     		.section	.text.CapSense_ScanWidget,"ax",%progbits
 1554              		.align	2
 1555              		.global	CapSense_ScanWidget
 1556              		.code	16
 1557              		.thumb_func
 1558              		.type	CapSense_ScanWidget, %function
 1559              	CapSense_ScanWidget:
 1560              	.LFB40:
 644:.\Generated_Source\PSoC4/CapSense.c ****     uint32 sensorsPerWidget;
 1561              		.loc 1 644 0
 1562              		.cfi_startproc
 1563              	.LVL195:
 1564 0000 38B5     		push	{r3, r4, r5, lr}
 1565              		.cfi_def_cfa_offset 16
 1566              		.cfi_offset 3, -16
 1567              		.cfi_offset 4, -12
 1568              		.cfi_offset 5, -8
 1569              		.cfi_offset 14, -4
 650:.\Generated_Source\PSoC4/CapSense.c **** 
 1570              		.loc 1 650 0
 1571 0002 1F4B     		ldr	r3, .L107
 1572 0004 1D5C     		ldrb	r5, [r3, r0]
 1573 0006 2023     		mov	r3, #32
 1574 0008 1E4A     		ldr	r2, .L107+4
ARM GAS  C:\Users\SHOZOK~1\AppData\Local\Temp\cc5HTLHa.s 			page 63


 1575 000a D554     		strb	r5, [r2, r3]
 653:.\Generated_Source\PSoC4/CapSense.c **** 
 1576              		.loc 1 653 0
 1577 000c 1E4B     		ldr	r3, .L107+8
 1578 000e 1B5C     		ldrb	r3, [r3, r0]
 1579              	.LVL196:
 656:.\Generated_Source\PSoC4/CapSense.c ****     {
 1580              		.loc 1 656 0
 1581 0010 002B     		cmp	r3, #0
 1582 0012 00D1     		bne	.L98
 658:.\Generated_Source\PSoC4/CapSense.c ****     }
 1583              		.loc 1 658 0
 1584 0014 0133     		add	r3, r3, #1
 1585              	.LVL197:
 1586              	.L98:
 662:.\Generated_Source\PSoC4/CapSense.c **** 
 1587              		.loc 1 662 0
 1588 0016 ED18     		add	r5, r5, r3
 1589 0018 013D     		sub	r5, r5, #1
 1590              	.LVL198:
 665:.\Generated_Source\PSoC4/CapSense.c ****     {
 1591              		.loc 1 665 0
 1592 001a 0023     		mov	r3, #0
 1593              	.LVL199:
 1594 001c 05E0     		b	.L99
 1595              	.LVL200:
 1596              	.L100:
 668:.\Generated_Source\PSoC4/CapSense.c ****     }
 1597              		.loc 1 668 0 discriminator 3
 1598 001e 1B4A     		ldr	r2, .L107+12
 1599 0020 3432     		add	r2, r2, #52
 1600 0022 D15C     		ldrb	r1, [r2, r3]
 1601 0024 1A4A     		ldr	r2, .L107+16
 1602 0026 D154     		strb	r1, [r2, r3]
 665:.\Generated_Source\PSoC4/CapSense.c ****     {
 1603              		.loc 1 665 0 discriminator 3
 1604 0028 0133     		add	r3, r3, #1
 1605              	.LVL201:
 1606              	.L99:
 665:.\Generated_Source\PSoC4/CapSense.c ****     {
 1607              		.loc 1 665 0 is_stmt 0 discriminator 1
 1608 002a 012B     		cmp	r3, #1
 1609 002c F7D9     		bls	.L100
 1610 002e 0024     		mov	r4, #0
 1611 0030 15E0     		b	.L101
 1612              	.LVL202:
 1613              	.L104:
 675:.\Generated_Source\PSoC4/CapSense.c ****         {
 1614              		.loc 1 675 0 is_stmt 1
 1615 0032 2023     		mov	r3, #32
 1616 0034 134A     		ldr	r2, .L107+4
 1617 0036 D35C     		ldrb	r3, [r2, r3]
 1618 0038 DBB2     		uxtb	r3, r3
 1619 003a A342     		cmp	r3, r4
 1620 003c 08D8     		bhi	.L102
 675:.\Generated_Source\PSoC4/CapSense.c ****         {
 1621              		.loc 1 675 0 is_stmt 0 discriminator 1
ARM GAS  C:\Users\SHOZOK~1\AppData\Local\Temp\cc5HTLHa.s 			page 64


 1622 003e AC42     		cmp	r4, r5
 1623 0040 06D8     		bhi	.L102
 678:.\Generated_Source\PSoC4/CapSense.c ****         }
 1624              		.loc 1 678 0 is_stmt 1
 1625 0042 1248     		ldr	r0, .L107+12
 1626 0044 3430     		add	r0, r0, #52
 1627 0046 211C     		mov	r1, r4
 1628 0048 0122     		mov	r2, #1
 1629 004a FFF7FEFF 		bl	CapSense_SetBitValue
 1630              	.LVL203:
 1631 004e 05E0     		b	.L103
 1632              	.L102:
 683:.\Generated_Source\PSoC4/CapSense.c ****         }
 1633              		.loc 1 683 0
 1634 0050 0E48     		ldr	r0, .L107+12
 1635 0052 3430     		add	r0, r0, #52
 1636 0054 211C     		mov	r1, r4
 1637 0056 0022     		mov	r2, #0
 1638 0058 FFF7FEFF 		bl	CapSense_SetBitValue
 1639              	.LVL204:
 1640              	.L103:
 672:.\Generated_Source\PSoC4/CapSense.c ****     {
 1641              		.loc 1 672 0 discriminator 2
 1642 005c 0134     		add	r4, r4, #1
 1643              	.LVL205:
 1644              	.L101:
 672:.\Generated_Source\PSoC4/CapSense.c ****     {
 1645              		.loc 1 672 0 is_stmt 0 discriminator 1
 1646 005e 0C2C     		cmp	r4, #12
 1647 0060 E7D9     		bls	.L104
 688:.\Generated_Source\PSoC4/CapSense.c ****     {
 1648              		.loc 1 688 0 is_stmt 1
 1649 0062 2023     		mov	r3, #32
 1650 0064 074A     		ldr	r2, .L107+4
 1651 0066 D35C     		ldrb	r3, [r2, r3]
 1652 0068 DBB2     		uxtb	r3, r3
 1653 006a 0C2B     		cmp	r3, #12
 1654 006c 07D8     		bhi	.L97
 691:.\Generated_Source\PSoC4/CapSense.c ****         /* Scan first sensor of widget*/
 1655              		.loc 1 691 0
 1656 006e 131C     		mov	r3, r2
 1657 0070 4122     		mov	r2, #65
 1658 0072 1A70     		strb	r2, [r3]
 693:.\Generated_Source\PSoC4/CapSense.c ****     }
 1659              		.loc 1 693 0
 1660 0074 213A     		sub	r2, r2, #33
 1661 0076 985C     		ldrb	r0, [r3, r2]
 1662 0078 C0B2     		uxtb	r0, r0
 1663 007a FFF7FEFF 		bl	CapSense_PreScan
 1664              	.LVL206:
 1665              	.L97:
 695:.\Generated_Source\PSoC4/CapSense.c **** #endif /* (0u != CapSense_CSHL_API_GENERATE) */
 1666              		.loc 1 695 0
 1667              		@ sp needed
 1668              	.LVL207:
 1669              	.LVL208:
 1670 007e 38BD     		pop	{r3, r4, r5, pc}
ARM GAS  C:\Users\SHOZOK~1\AppData\Local\Temp\cc5HTLHa.s 			page 65


 1671              	.L108:
 1672              		.align	2
 1673              	.L107:
 1674 0080 00000000 		.word	CapSense_rawDataIndex
 1675 0084 00000000 		.word	.LANCHOR0
 1676 0088 00000000 		.word	CapSense_numberOfSensors
 1677 008c 00000000 		.word	.LANCHOR1
 1678 0090 00000000 		.word	CapSense_sensorEnableMaskBackup
 1679              		.cfi_endproc
 1680              	.LFE40:
 1681              		.size	CapSense_ScanWidget, .-CapSense_ScanWidget
 1682              		.section	.text.CapSense_GetSenseClkDivider,"ax",%progbits
 1683              		.align	2
 1684              		.global	CapSense_GetSenseClkDivider
 1685              		.code	16
 1686              		.thumb_func
 1687              		.type	CapSense_GetSenseClkDivider, %function
 1688              	CapSense_GetSenseClkDivider:
 1689              	.LFB60:
1843:.\Generated_Source\PSoC4/CapSense.c **** 
1844:.\Generated_Source\PSoC4/CapSense.c **** 
1845:.\Generated_Source\PSoC4/CapSense.c **** 
1846:.\Generated_Source\PSoC4/CapSense.c **** /*******************************************************************************
1847:.\Generated_Source\PSoC4/CapSense.c **** * Function Name: CapSense_GetSenseClkDivider
1848:.\Generated_Source\PSoC4/CapSense.c **** ********************************************************************************
1849:.\Generated_Source\PSoC4/CapSense.c **** *
1850:.\Generated_Source\PSoC4/CapSense.c **** * Summary:
1851:.\Generated_Source\PSoC4/CapSense.c **** *  This API returns a value of the sense clock divider for the  sensor.
1852:.\Generated_Source\PSoC4/CapSense.c **** *
1853:.\Generated_Source\PSoC4/CapSense.c **** * Parameters:
1854:.\Generated_Source\PSoC4/CapSense.c **** *  sensor: sensor index. The index value can be
1855:.\Generated_Source\PSoC4/CapSense.c **** *  from 0 to (CapSense_TOTAL_SENSOR_COUNT-1).
1856:.\Generated_Source\PSoC4/CapSense.c **** *
1857:.\Generated_Source\PSoC4/CapSense.c **** * Return:
1858:.\Generated_Source\PSoC4/CapSense.c **** *  This API returns the sense clock divider of the sensor.
1859:.\Generated_Source\PSoC4/CapSense.c **** *
1860:.\Generated_Source\PSoC4/CapSense.c **** * Global Variables:
1861:.\Generated_Source\PSoC4/CapSense.c **** *  CapSense_senseClkDividerVal[] - stores the sense clock divider values.
1862:.\Generated_Source\PSoC4/CapSense.c **** *
1863:.\Generated_Source\PSoC4/CapSense.c **** * Side Effects:
1864:.\Generated_Source\PSoC4/CapSense.c **** *  None
1865:.\Generated_Source\PSoC4/CapSense.c **** *
1866:.\Generated_Source\PSoC4/CapSense.c **** *******************************************************************************/
1867:.\Generated_Source\PSoC4/CapSense.c **** uint32 CapSense_GetSenseClkDivider(uint32 sensor)
1868:.\Generated_Source\PSoC4/CapSense.c **** {
 1690              		.loc 1 1868 0
 1691              		.cfi_startproc
 1692              	.LVL209:
1869:.\Generated_Source\PSoC4/CapSense.c ****     #if(0u != CapSense_MULTIPLE_FREQUENCY_SET)
1870:.\Generated_Source\PSoC4/CapSense.c ****         return((uint32)CapSense_senseClkDividerVal[sensor]);
 1693              		.loc 1 1870 0
 1694 0000 014B     		ldr	r3, .L110
 1695 0002 185C     		ldrb	r0, [r3, r0]
 1696              	.LVL210:
1871:.\Generated_Source\PSoC4/CapSense.c ****     #else
1872:.\Generated_Source\PSoC4/CapSense.c ****         return((uint32)CapSense_senseClkDividerVal);
1873:.\Generated_Source\PSoC4/CapSense.c ****     #endif /* (0u != CapSense_MULTIPLE_FREQUENCY_SET) */
ARM GAS  C:\Users\SHOZOK~1\AppData\Local\Temp\cc5HTLHa.s 			page 66


1874:.\Generated_Source\PSoC4/CapSense.c **** }
 1697              		.loc 1 1874 0
 1698              		@ sp needed
 1699 0004 7047     		bx	lr
 1700              	.L111:
 1701 0006 C046     		.align	2
 1702              	.L110:
 1703 0008 00000000 		.word	CapSense_senseClkDividerVal
 1704              		.cfi_endproc
 1705              	.LFE60:
 1706              		.size	CapSense_GetSenseClkDivider, .-CapSense_GetSenseClkDivider
 1707              		.section	.text.CapSense_SetSenseClkDivider,"ax",%progbits
 1708              		.align	2
 1709              		.global	CapSense_SetSenseClkDivider
 1710              		.code	16
 1711              		.thumb_func
 1712              		.type	CapSense_SetSenseClkDivider, %function
 1713              	CapSense_SetSenseClkDivider:
 1714              	.LFB61:
1875:.\Generated_Source\PSoC4/CapSense.c **** 
1876:.\Generated_Source\PSoC4/CapSense.c **** #if (CapSense_TUNING_METHOD != CapSense__TUNING_NONE)
1877:.\Generated_Source\PSoC4/CapSense.c ****     /*******************************************************************************
1878:.\Generated_Source\PSoC4/CapSense.c ****     * Function Name: CapSense_SetSenseClkDivider
1879:.\Generated_Source\PSoC4/CapSense.c ****     ********************************************************************************
1880:.\Generated_Source\PSoC4/CapSense.c ****     *
1881:.\Generated_Source\PSoC4/CapSense.c ****     * Summary:
1882:.\Generated_Source\PSoC4/CapSense.c ****     *  This API sets a value of the sense clock divider for the  sensor.
1883:.\Generated_Source\PSoC4/CapSense.c ****     *
1884:.\Generated_Source\PSoC4/CapSense.c ****     * Parameters:
1885:.\Generated_Source\PSoC4/CapSense.c ****     *  sensor:  Sensor index.
1886:.\Generated_Source\PSoC4/CapSense.c ****     *  senseClk: represents the sense clock value.
1887:.\Generated_Source\PSoC4/CapSense.c ****     *
1888:.\Generated_Source\PSoC4/CapSense.c ****     * Return:
1889:.\Generated_Source\PSoC4/CapSense.c ****     *  None.
1890:.\Generated_Source\PSoC4/CapSense.c ****     *
1891:.\Generated_Source\PSoC4/CapSense.c ****     * Global Variables:
1892:.\Generated_Source\PSoC4/CapSense.c ****     *  CapSense_senseClkDividerVal[] - stores the sense clock divider values.
1893:.\Generated_Source\PSoC4/CapSense.c ****     *
1894:.\Generated_Source\PSoC4/CapSense.c ****     * Side Effects:
1895:.\Generated_Source\PSoC4/CapSense.c ****     *  None
1896:.\Generated_Source\PSoC4/CapSense.c ****     *
1897:.\Generated_Source\PSoC4/CapSense.c ****     *******************************************************************************/
1898:.\Generated_Source\PSoC4/CapSense.c ****     void CapSense_SetSenseClkDivider(uint32 sensor, uint32 senseClk)
1899:.\Generated_Source\PSoC4/CapSense.c ****     {
 1715              		.loc 1 1899 0
 1716              		.cfi_startproc
 1717              	.LVL211:
1900:.\Generated_Source\PSoC4/CapSense.c ****         #if(0u != CapSense_MULTIPLE_FREQUENCY_SET)
1901:.\Generated_Source\PSoC4/CapSense.c ****             CapSense_senseClkDividerVal[sensor] = (uint8)senseClk;
 1718              		.loc 1 1901 0
 1719 0000 014B     		ldr	r3, .L113
 1720 0002 1954     		strb	r1, [r3, r0]
1902:.\Generated_Source\PSoC4/CapSense.c ****         #else
1903:.\Generated_Source\PSoC4/CapSense.c ****             CapSense_senseClkDividerVal = (uint8)senseClk;
1904:.\Generated_Source\PSoC4/CapSense.c ****         #endif /* (0u != CapSense_MULTIPLE_FREQUENCY_SET) */
1905:.\Generated_Source\PSoC4/CapSense.c ****     }
 1721              		.loc 1 1905 0
ARM GAS  C:\Users\SHOZOK~1\AppData\Local\Temp\cc5HTLHa.s 			page 67


 1722              		@ sp needed
 1723 0004 7047     		bx	lr
 1724              	.L114:
 1725 0006 C046     		.align	2
 1726              	.L113:
 1727 0008 00000000 		.word	CapSense_senseClkDividerVal
 1728              		.cfi_endproc
 1729              	.LFE61:
 1730              		.size	CapSense_SetSenseClkDivider, .-CapSense_SetSenseClkDivider
 1731              		.section	.text.CapSense_GetModulatorClkDivider,"ax",%progbits
 1732              		.align	2
 1733              		.global	CapSense_GetModulatorClkDivider
 1734              		.code	16
 1735              		.thumb_func
 1736              		.type	CapSense_GetModulatorClkDivider, %function
 1737              	CapSense_GetModulatorClkDivider:
 1738              	.LFB62:
1906:.\Generated_Source\PSoC4/CapSense.c **** #endif /* (CapSense_TUNING_METHOD != CapSense__TUNING_NONE) */
1907:.\Generated_Source\PSoC4/CapSense.c **** 
1908:.\Generated_Source\PSoC4/CapSense.c **** 
1909:.\Generated_Source\PSoC4/CapSense.c **** /*******************************************************************************
1910:.\Generated_Source\PSoC4/CapSense.c **** * Function Name: CapSense_GetModulatorClkDivider
1911:.\Generated_Source\PSoC4/CapSense.c **** ********************************************************************************
1912:.\Generated_Source\PSoC4/CapSense.c **** *
1913:.\Generated_Source\PSoC4/CapSense.c **** * Summary:
1914:.\Generated_Source\PSoC4/CapSense.c **** *  This API returns a value of the modulator sample clock divider for the  sensor.
1915:.\Generated_Source\PSoC4/CapSense.c **** *
1916:.\Generated_Source\PSoC4/CapSense.c **** * Parameters:
1917:.\Generated_Source\PSoC4/CapSense.c **** *  sensor: sensor index. The value of index can be
1918:.\Generated_Source\PSoC4/CapSense.c **** *  from 0 to (CapSense_TOTAL_SENSOR_COUNT-1).
1919:.\Generated_Source\PSoC4/CapSense.c **** *
1920:.\Generated_Source\PSoC4/CapSense.c **** * Return:
1921:.\Generated_Source\PSoC4/CapSense.c **** *  This API returns the modulator sample clock divider for the  sensor.
1922:.\Generated_Source\PSoC4/CapSense.c **** *
1923:.\Generated_Source\PSoC4/CapSense.c **** * Global Variables:
1924:.\Generated_Source\PSoC4/CapSense.c **** *  CapSense_sampleClkDividerVal[] - stores the modulator sample divider values.
1925:.\Generated_Source\PSoC4/CapSense.c **** *
1926:.\Generated_Source\PSoC4/CapSense.c **** * Side Effects:
1927:.\Generated_Source\PSoC4/CapSense.c **** *  None
1928:.\Generated_Source\PSoC4/CapSense.c **** *
1929:.\Generated_Source\PSoC4/CapSense.c **** *******************************************************************************/
1930:.\Generated_Source\PSoC4/CapSense.c **** uint32 CapSense_GetModulatorClkDivider(uint32 sensor)
1931:.\Generated_Source\PSoC4/CapSense.c **** {
 1739              		.loc 1 1931 0
 1740              		.cfi_startproc
 1741              	.LVL212:
1932:.\Generated_Source\PSoC4/CapSense.c ****     #if(0u != CapSense_MULTIPLE_FREQUENCY_SET)
1933:.\Generated_Source\PSoC4/CapSense.c ****         return((uint32)CapSense_sampleClkDividerVal[sensor]);
 1742              		.loc 1 1933 0
 1743 0000 014B     		ldr	r3, .L116
 1744 0002 185C     		ldrb	r0, [r3, r0]
 1745              	.LVL213:
1934:.\Generated_Source\PSoC4/CapSense.c ****     #else
1935:.\Generated_Source\PSoC4/CapSense.c ****         return((uint32)CapSense_sampleClkDividerVal);
1936:.\Generated_Source\PSoC4/CapSense.c ****     #endif /* (0u != CapSense_MULTIPLE_FREQUENCY_SET) */
1937:.\Generated_Source\PSoC4/CapSense.c **** }
 1746              		.loc 1 1937 0
ARM GAS  C:\Users\SHOZOK~1\AppData\Local\Temp\cc5HTLHa.s 			page 68


 1747              		@ sp needed
 1748 0004 7047     		bx	lr
 1749              	.L117:
 1750 0006 C046     		.align	2
 1751              	.L116:
 1752 0008 00000000 		.word	CapSense_sampleClkDividerVal
 1753              		.cfi_endproc
 1754              	.LFE62:
 1755              		.size	CapSense_GetModulatorClkDivider, .-CapSense_GetModulatorClkDivider
 1756              		.section	.text.CapSense_SetModulatorClkDivider,"ax",%progbits
 1757              		.align	2
 1758              		.global	CapSense_SetModulatorClkDivider
 1759              		.code	16
 1760              		.thumb_func
 1761              		.type	CapSense_SetModulatorClkDivider, %function
 1762              	CapSense_SetModulatorClkDivider:
 1763              	.LFB63:
1938:.\Generated_Source\PSoC4/CapSense.c **** 
1939:.\Generated_Source\PSoC4/CapSense.c **** #if (CapSense_TUNING_METHOD != CapSense__TUNING_NONE)
1940:.\Generated_Source\PSoC4/CapSense.c ****     /*******************************************************************************
1941:.\Generated_Source\PSoC4/CapSense.c ****     * Function Name: CapSense_SetModulatorClkDivider
1942:.\Generated_Source\PSoC4/CapSense.c ****     ********************************************************************************
1943:.\Generated_Source\PSoC4/CapSense.c ****     *
1944:.\Generated_Source\PSoC4/CapSense.c ****     * Summary:
1945:.\Generated_Source\PSoC4/CapSense.c ****     *  This API sets a value of the modulator sample clock divider for the  sensor.
1946:.\Generated_Source\PSoC4/CapSense.c ****     *
1947:.\Generated_Source\PSoC4/CapSense.c ****     * Parameters:
1948:.\Generated_Source\PSoC4/CapSense.c ****     *  sensor:  Sensor index.
1949:.\Generated_Source\PSoC4/CapSense.c ****     *  modulatorClk: represents the modulator sample clock value.
1950:.\Generated_Source\PSoC4/CapSense.c ****     *
1951:.\Generated_Source\PSoC4/CapSense.c ****     * Return:
1952:.\Generated_Source\PSoC4/CapSense.c ****     *  None.
1953:.\Generated_Source\PSoC4/CapSense.c ****     *
1954:.\Generated_Source\PSoC4/CapSense.c ****     * Global Variables:
1955:.\Generated_Source\PSoC4/CapSense.c ****     *  CapSense_sampleClkDividerVal[] - stores the modulator sample divider values.
1956:.\Generated_Source\PSoC4/CapSense.c ****     *
1957:.\Generated_Source\PSoC4/CapSense.c ****     * Side Effects:
1958:.\Generated_Source\PSoC4/CapSense.c ****     *  None
1959:.\Generated_Source\PSoC4/CapSense.c ****     *
1960:.\Generated_Source\PSoC4/CapSense.c ****     *******************************************************************************/
1961:.\Generated_Source\PSoC4/CapSense.c ****     void CapSense_SetModulatorClkDivider(uint32 sensor, uint32 modulatorClk)
1962:.\Generated_Source\PSoC4/CapSense.c ****     {
 1764              		.loc 1 1962 0
 1765              		.cfi_startproc
 1766              	.LVL214:
1963:.\Generated_Source\PSoC4/CapSense.c ****         #if(0u != CapSense_MULTIPLE_FREQUENCY_SET)
1964:.\Generated_Source\PSoC4/CapSense.c ****             CapSense_sampleClkDividerVal[sensor] = (uint8)modulatorClk;
 1767              		.loc 1 1964 0
 1768 0000 014B     		ldr	r3, .L119
 1769 0002 1954     		strb	r1, [r3, r0]
1965:.\Generated_Source\PSoC4/CapSense.c ****         #else
1966:.\Generated_Source\PSoC4/CapSense.c ****             CapSense_sampleClkDividerVal = (uint8)modulatorClk;
1967:.\Generated_Source\PSoC4/CapSense.c ****         #endif /* (0u != CapSense_MULTIPLE_FREQUENCY_SET) */
1968:.\Generated_Source\PSoC4/CapSense.c ****     }
 1770              		.loc 1 1968 0
 1771              		@ sp needed
 1772 0004 7047     		bx	lr
ARM GAS  C:\Users\SHOZOK~1\AppData\Local\Temp\cc5HTLHa.s 			page 69


 1773              	.L120:
 1774 0006 C046     		.align	2
 1775              	.L119:
 1776 0008 00000000 		.word	CapSense_sampleClkDividerVal
 1777              		.cfi_endproc
 1778              	.LFE63:
 1779              		.size	CapSense_SetModulatorClkDivider, .-CapSense_SetModulatorClkDivider
 1780              		.section	.text.CapSense_GetModulationIDAC,"ax",%progbits
 1781              		.align	2
 1782              		.global	CapSense_GetModulationIDAC
 1783              		.code	16
 1784              		.thumb_func
 1785              		.type	CapSense_GetModulationIDAC, %function
 1786              	CapSense_GetModulationIDAC:
 1787              	.LFB64:
1969:.\Generated_Source\PSoC4/CapSense.c **** #endif /* (CapSense_TUNING_METHOD != CapSense__TUNING_NONE) */
1970:.\Generated_Source\PSoC4/CapSense.c **** 
1971:.\Generated_Source\PSoC4/CapSense.c **** /*******************************************************************************
1972:.\Generated_Source\PSoC4/CapSense.c **** * Function Name: CapSense_GetModulationIDAC
1973:.\Generated_Source\PSoC4/CapSense.c **** ********************************************************************************
1974:.\Generated_Source\PSoC4/CapSense.c **** *
1975:.\Generated_Source\PSoC4/CapSense.c **** * Summary:
1976:.\Generated_Source\PSoC4/CapSense.c **** *  This API returns a value of the modulation IDAC for the  sensor.
1977:.\Generated_Source\PSoC4/CapSense.c **** *
1978:.\Generated_Source\PSoC4/CapSense.c **** * Parameters:
1979:.\Generated_Source\PSoC4/CapSense.c **** *  sensor: sensor index. The index value can be
1980:.\Generated_Source\PSoC4/CapSense.c **** *  from 0 to (CapSense_TOTAL_SENSOR_COUNT-1).
1981:.\Generated_Source\PSoC4/CapSense.c **** *
1982:.\Generated_Source\PSoC4/CapSense.c **** * Return:
1983:.\Generated_Source\PSoC4/CapSense.c **** *  This API returns the modulation IDAC of the sensor.
1984:.\Generated_Source\PSoC4/CapSense.c **** *
1985:.\Generated_Source\PSoC4/CapSense.c **** * Global Variables:
1986:.\Generated_Source\PSoC4/CapSense.c **** *  CapSense_modulationIDAC[] - stores modulation IDAC values.
1987:.\Generated_Source\PSoC4/CapSense.c **** *
1988:.\Generated_Source\PSoC4/CapSense.c **** * Side Effects:
1989:.\Generated_Source\PSoC4/CapSense.c **** *  None
1990:.\Generated_Source\PSoC4/CapSense.c **** *
1991:.\Generated_Source\PSoC4/CapSense.c **** *******************************************************************************/
1992:.\Generated_Source\PSoC4/CapSense.c **** uint32 CapSense_GetModulationIDAC(uint32 sensor)
1993:.\Generated_Source\PSoC4/CapSense.c **** {
 1788              		.loc 1 1993 0
 1789              		.cfi_startproc
 1790              	.LVL215:
1994:.\Generated_Source\PSoC4/CapSense.c ****         return((uint32)CapSense_modulationIDAC[sensor]);
 1791              		.loc 1 1994 0
 1792 0000 014B     		ldr	r3, .L122
 1793 0002 185C     		ldrb	r0, [r3, r0]
 1794              	.LVL216:
1995:.\Generated_Source\PSoC4/CapSense.c **** }
 1795              		.loc 1 1995 0
 1796              		@ sp needed
 1797 0004 7047     		bx	lr
 1798              	.L123:
 1799 0006 C046     		.align	2
 1800              	.L122:
 1801 0008 00000000 		.word	CapSense_modulationIDAC
 1802              		.cfi_endproc
ARM GAS  C:\Users\SHOZOK~1\AppData\Local\Temp\cc5HTLHa.s 			page 70


 1803              	.LFE64:
 1804              		.size	CapSense_GetModulationIDAC, .-CapSense_GetModulationIDAC
 1805              		.section	.text.CapSense_SetModulationIDAC,"ax",%progbits
 1806              		.align	2
 1807              		.global	CapSense_SetModulationIDAC
 1808              		.code	16
 1809              		.thumb_func
 1810              		.type	CapSense_SetModulationIDAC, %function
 1811              	CapSense_SetModulationIDAC:
 1812              	.LFB65:
1996:.\Generated_Source\PSoC4/CapSense.c **** 
1997:.\Generated_Source\PSoC4/CapSense.c **** #if (CapSense_TUNING_METHOD != CapSense__TUNING_NONE)
1998:.\Generated_Source\PSoC4/CapSense.c ****     /*******************************************************************************
1999:.\Generated_Source\PSoC4/CapSense.c ****     * Function Name: CapSense_SetModulationIDAC
2000:.\Generated_Source\PSoC4/CapSense.c ****     ********************************************************************************
2001:.\Generated_Source\PSoC4/CapSense.c ****     *
2002:.\Generated_Source\PSoC4/CapSense.c ****     * Summary:
2003:.\Generated_Source\PSoC4/CapSense.c ****     *  This API sets a value of the modulation IDAC for the  sensor.
2004:.\Generated_Source\PSoC4/CapSense.c ****     *
2005:.\Generated_Source\PSoC4/CapSense.c ****     * Parameters:
2006:.\Generated_Source\PSoC4/CapSense.c ****     *  sensor:  Sensor index.
2007:.\Generated_Source\PSoC4/CapSense.c ****     *  compIdacValue: represents the modulation IDAC data register value.
2008:.\Generated_Source\PSoC4/CapSense.c ****     *
2009:.\Generated_Source\PSoC4/CapSense.c ****     * Return:
2010:.\Generated_Source\PSoC4/CapSense.c ****     *  None.
2011:.\Generated_Source\PSoC4/CapSense.c ****     *
2012:.\Generated_Source\PSoC4/CapSense.c ****     * Global Variables:
2013:.\Generated_Source\PSoC4/CapSense.c ****     *  CapSense_modulationIDAC[] - array with modulation IDAC values
2014:.\Generated_Source\PSoC4/CapSense.c ****     *
2015:.\Generated_Source\PSoC4/CapSense.c ****     * Side Effects:
2016:.\Generated_Source\PSoC4/CapSense.c ****     *  None
2017:.\Generated_Source\PSoC4/CapSense.c ****     *
2018:.\Generated_Source\PSoC4/CapSense.c ****     *******************************************************************************/
2019:.\Generated_Source\PSoC4/CapSense.c ****     void CapSense_SetModulationIDAC(uint32 sensor, uint32 modIdacValue)
2020:.\Generated_Source\PSoC4/CapSense.c ****     {
 1813              		.loc 1 2020 0
 1814              		.cfi_startproc
 1815              	.LVL217:
2021:.\Generated_Source\PSoC4/CapSense.c ****         CapSense_modulationIDAC[sensor] = (uint8)modIdacValue;
 1816              		.loc 1 2021 0
 1817 0000 014B     		ldr	r3, .L125
 1818 0002 1954     		strb	r1, [r3, r0]
2022:.\Generated_Source\PSoC4/CapSense.c ****     }
 1819              		.loc 1 2022 0
 1820              		@ sp needed
 1821 0004 7047     		bx	lr
 1822              	.L126:
 1823 0006 C046     		.align	2
 1824              	.L125:
 1825 0008 00000000 		.word	CapSense_modulationIDAC
 1826              		.cfi_endproc
 1827              	.LFE65:
 1828              		.size	CapSense_SetModulationIDAC, .-CapSense_SetModulationIDAC
 1829              		.section	.text.CapSense_GetCompensationIDAC,"ax",%progbits
 1830              		.align	2
 1831              		.global	CapSense_GetCompensationIDAC
 1832              		.code	16
ARM GAS  C:\Users\SHOZOK~1\AppData\Local\Temp\cc5HTLHa.s 			page 71


 1833              		.thumb_func
 1834              		.type	CapSense_GetCompensationIDAC, %function
 1835              	CapSense_GetCompensationIDAC:
 1836              	.LFB66:
2023:.\Generated_Source\PSoC4/CapSense.c **** #endif /* (CapSense_TUNING_METHOD != CapSense__TUNING_NONE) */
2024:.\Generated_Source\PSoC4/CapSense.c **** 
2025:.\Generated_Source\PSoC4/CapSense.c **** 
2026:.\Generated_Source\PSoC4/CapSense.c **** #if(CapSense_IDAC_CNT > 1u)
2027:.\Generated_Source\PSoC4/CapSense.c ****     /*******************************************************************************
2028:.\Generated_Source\PSoC4/CapSense.c ****     * Function Name: CapSense_GetCompensationIDAC
2029:.\Generated_Source\PSoC4/CapSense.c ****     ********************************************************************************
2030:.\Generated_Source\PSoC4/CapSense.c ****     *
2031:.\Generated_Source\PSoC4/CapSense.c ****     * Summary:
2032:.\Generated_Source\PSoC4/CapSense.c ****     *  This API returns a value of the compensation IDAC for the  sensor.
2033:.\Generated_Source\PSoC4/CapSense.c ****     *
2034:.\Generated_Source\PSoC4/CapSense.c ****     * Parameters:
2035:.\Generated_Source\PSoC4/CapSense.c ****     *  sensor: sensor index. The index value can be
2036:.\Generated_Source\PSoC4/CapSense.c ****     *  from 0 to (CapSense_TOTAL_SENSOR_COUNT-1).
2037:.\Generated_Source\PSoC4/CapSense.c ****     *
2038:.\Generated_Source\PSoC4/CapSense.c ****     * Return:
2039:.\Generated_Source\PSoC4/CapSense.c ****     *  This API returns the compensation IDAC of the sensor.
2040:.\Generated_Source\PSoC4/CapSense.c ****     *
2041:.\Generated_Source\PSoC4/CapSense.c ****     * Global Variables:
2042:.\Generated_Source\PSoC4/CapSense.c ****     *  CapSense_compensationIDAC[] - stores the compensation IDAC values.
2043:.\Generated_Source\PSoC4/CapSense.c ****     *
2044:.\Generated_Source\PSoC4/CapSense.c ****     * Side Effects:
2045:.\Generated_Source\PSoC4/CapSense.c ****     *  None
2046:.\Generated_Source\PSoC4/CapSense.c ****     *
2047:.\Generated_Source\PSoC4/CapSense.c ****     *******************************************************************************/
2048:.\Generated_Source\PSoC4/CapSense.c ****     uint32 CapSense_GetCompensationIDAC(uint32 sensor)
2049:.\Generated_Source\PSoC4/CapSense.c ****     {
 1837              		.loc 1 2049 0
 1838              		.cfi_startproc
 1839              	.LVL218:
2050:.\Generated_Source\PSoC4/CapSense.c ****         return((uint32)CapSense_compensationIDAC[sensor]);
 1840              		.loc 1 2050 0
 1841 0000 014B     		ldr	r3, .L128
 1842 0002 185C     		ldrb	r0, [r3, r0]
 1843              	.LVL219:
2051:.\Generated_Source\PSoC4/CapSense.c ****     }
 1844              		.loc 1 2051 0
 1845              		@ sp needed
 1846 0004 7047     		bx	lr
 1847              	.L129:
 1848 0006 C046     		.align	2
 1849              	.L128:
 1850 0008 00000000 		.word	CapSense_compensationIDAC
 1851              		.cfi_endproc
 1852              	.LFE66:
 1853              		.size	CapSense_GetCompensationIDAC, .-CapSense_GetCompensationIDAC
 1854              		.section	.text.CapSense_SetCompensationIDAC,"ax",%progbits
 1855              		.align	2
 1856              		.global	CapSense_SetCompensationIDAC
 1857              		.code	16
 1858              		.thumb_func
 1859              		.type	CapSense_SetCompensationIDAC, %function
 1860              	CapSense_SetCompensationIDAC:
ARM GAS  C:\Users\SHOZOK~1\AppData\Local\Temp\cc5HTLHa.s 			page 72


 1861              	.LFB67:
2052:.\Generated_Source\PSoC4/CapSense.c **** #endif /* (CapSense_IDAC_CNT > 1u) */
2053:.\Generated_Source\PSoC4/CapSense.c **** 
2054:.\Generated_Source\PSoC4/CapSense.c **** 
2055:.\Generated_Source\PSoC4/CapSense.c **** #if((CapSense_TUNING_METHOD != CapSense__TUNING_NONE) && (CapSense_IDAC_CNT > 1u))
2056:.\Generated_Source\PSoC4/CapSense.c ****     /*******************************************************************************
2057:.\Generated_Source\PSoC4/CapSense.c ****     * Function Name: CapSense_SetCompensationIDAC
2058:.\Generated_Source\PSoC4/CapSense.c ****     ********************************************************************************
2059:.\Generated_Source\PSoC4/CapSense.c ****     *
2060:.\Generated_Source\PSoC4/CapSense.c ****     * Summary:
2061:.\Generated_Source\PSoC4/CapSense.c ****     *  This API sets a value of compensation IDAC for the  sensor.
2062:.\Generated_Source\PSoC4/CapSense.c ****     *
2063:.\Generated_Source\PSoC4/CapSense.c ****     * Parameters:
2064:.\Generated_Source\PSoC4/CapSense.c ****     *  sensor:  Sensor index.
2065:.\Generated_Source\PSoC4/CapSense.c ****     *  compIdacValue: represents the compensation IDAC data register value.
2066:.\Generated_Source\PSoC4/CapSense.c ****     *
2067:.\Generated_Source\PSoC4/CapSense.c ****     * Return:
2068:.\Generated_Source\PSoC4/CapSense.c ****     *  None.
2069:.\Generated_Source\PSoC4/CapSense.c ****     *
2070:.\Generated_Source\PSoC4/CapSense.c ****     * Global Variables:
2071:.\Generated_Source\PSoC4/CapSense.c ****     *  CapSense_compensationIDAC[] - an array with compensation IDAC values
2072:.\Generated_Source\PSoC4/CapSense.c ****     *
2073:.\Generated_Source\PSoC4/CapSense.c ****     * Side Effects:
2074:.\Generated_Source\PSoC4/CapSense.c ****     *  None
2075:.\Generated_Source\PSoC4/CapSense.c ****     *
2076:.\Generated_Source\PSoC4/CapSense.c ****     *******************************************************************************/
2077:.\Generated_Source\PSoC4/CapSense.c ****     void CapSense_SetCompensationIDAC(uint32 sensor, uint32 compIdacValue)
2078:.\Generated_Source\PSoC4/CapSense.c ****     {
 1862              		.loc 1 2078 0
 1863              		.cfi_startproc
 1864              	.LVL220:
2079:.\Generated_Source\PSoC4/CapSense.c ****         CapSense_compensationIDAC[sensor] = (uint8)compIdacValue;
 1865              		.loc 1 2079 0
 1866 0000 014B     		ldr	r3, .L131
 1867 0002 1954     		strb	r1, [r3, r0]
2080:.\Generated_Source\PSoC4/CapSense.c ****     }
 1868              		.loc 1 2080 0
 1869              		@ sp needed
 1870 0004 7047     		bx	lr
 1871              	.L132:
 1872 0006 C046     		.align	2
 1873              	.L131:
 1874 0008 00000000 		.word	CapSense_compensationIDAC
 1875              		.cfi_endproc
 1876              	.LFE67:
 1877              		.size	CapSense_SetCompensationIDAC, .-CapSense_SetCompensationIDAC
 1878              		.section	.text.CapSense_GetIDACRange,"ax",%progbits
 1879              		.align	2
 1880              		.global	CapSense_GetIDACRange
 1881              		.code	16
 1882              		.thumb_func
 1883              		.type	CapSense_GetIDACRange, %function
 1884              	CapSense_GetIDACRange:
 1885              	.LFB68:
2081:.\Generated_Source\PSoC4/CapSense.c **** #endif /* ((CapSense_TUNING_METHOD != CapSense__TUNING_NONE) && (CapSense_IDAC_CNT > 1u)) */
2082:.\Generated_Source\PSoC4/CapSense.c **** 
2083:.\Generated_Source\PSoC4/CapSense.c **** /*******************************************************************************
ARM GAS  C:\Users\SHOZOK~1\AppData\Local\Temp\cc5HTLHa.s 			page 73


2084:.\Generated_Source\PSoC4/CapSense.c **** * Function Name: CapSense_GetIDACRange
2085:.\Generated_Source\PSoC4/CapSense.c **** ********************************************************************************
2086:.\Generated_Source\PSoC4/CapSense.c **** *
2087:.\Generated_Source\PSoC4/CapSense.c **** * Summary:
2088:.\Generated_Source\PSoC4/CapSense.c **** *  This API returns a value that indicates the IDAC range used by the
2089:.\Generated_Source\PSoC4/CapSense.c **** *  component to scan sensors. The IDAC range is common for all the sensors.
2090:.\Generated_Source\PSoC4/CapSense.c **** *
2091:.\Generated_Source\PSoC4/CapSense.c **** * Parameters:
2092:.\Generated_Source\PSoC4/CapSense.c **** *  None
2093:.\Generated_Source\PSoC4/CapSense.c **** *
2094:.\Generated_Source\PSoC4/CapSense.c **** * Return:
2095:.\Generated_Source\PSoC4/CapSense.c **** *  This API Returns a value that indicates the IDAC range:
2096:.\Generated_Source\PSoC4/CapSense.c **** *      0 - IDAC range set to 4x
