ARM GAS  C:\Users\SHOZOK~1\AppData\Local\Temp\ccMshwqj.s 			page 1


   1              		.cpu cortex-m0
   2              		.fpu softvfp
   3              		.eabi_attribute 20, 1
   4              		.eabi_attribute 21, 1
   5              		.eabi_attribute 23, 3
   6              		.eabi_attribute 24, 1
   7              		.eabi_attribute 25, 1
   8              		.eabi_attribute 26, 1
   9              		.eabi_attribute 30, 1
  10              		.eabi_attribute 34, 0
  11              		.eabi_attribute 18, 4
  12              		.code	16
  13              		.file	"main.c"
  14              		.text
  15              	.Ltext0:
  16              		.cfi_sections	.debug_frame
  17              		.global	__aeabi_i2d
  18              		.global	__aeabi_dmul
  19              		.global	__aeabi_d2iz
  20              		.section	.text.main,"ax",%progbits
  21              		.align	2
  22              		.global	main
  23              		.code	16
  24              		.thumb_func
  25              		.type	main, %function
  26              	main:
  27              	.LFB33:
  28              		.file 1 ".\\main.c"
   1:.\main.c      **** /* ========================================
   2:.\main.c      ****  *
   3:.\main.c      ****  * Copyright YOUR COMPANY, THE YEAR
   4:.\main.c      ****  * All Rights Reserved
   5:.\main.c      ****  * UNPUBLISHED, LICENSED SOFTWARE.
   6:.\main.c      ****  *
   7:.\main.c      ****  * CONFIDENTIAL AND PROPRIETARY INFORMATION
   8:.\main.c      ****  * WHICH IS THE PROPERTY OF your company.
   9:.\main.c      ****  *
  10:.\main.c      ****  * ========================================
  11:.\main.c      **** */
  12:.\main.c      **** #include <project.h>
  13:.\main.c      **** 
  14:.\main.c      **** 
  15:.\main.c      **** #define NO_FINGER 0xFFFFu
  16:.\main.c      **** #define SLIDER_RESOLUTION 100
  17:.\main.c      **** 
  18:.\main.c      **** int Button[13] = {0,0,0,0,0,0,0,0,0,0,0,0,0};
  19:.\main.c      **** int Status[13] = {0,0,0,0,0,0,0,0,0,0,0,0,0};
  20:.\main.c      **** int bright;
  21:.\main.c      **** 
  22:.\main.c      **** //PROTOTYPE
  23:.\main.c      **** 
  24:.\main.c      **** int main()
  25:.\main.c      **** {
  29              		.loc 1 25 0
  30              		.cfi_startproc
  31 0000 38B5     		push	{r3, r4, r5, lr}
  32              		.cfi_def_cfa_offset 16
ARM GAS  C:\Users\SHOZOK~1\AppData\Local\Temp\ccMshwqj.s 			page 2


  33              		.cfi_offset 3, -16
  34              		.cfi_offset 4, -12
  35              		.cfi_offset 5, -8
  36              		.cfi_offset 14, -4
  26:.\main.c      ****     int i;
  27:.\main.c      ****     
  28:.\main.c      ****     CyGlobalIntEnable;      /* Enable global interrupts */
  37              		.loc 1 28 0
  38              	@ 28 ".\main.c" 1
  39 0002 62B6     		CPSIE   i
  40              	@ 0 "" 2
  29:.\main.c      ****     CapSense_Start();	
  41              		.loc 1 29 0
  42              		.code	16
  43 0004 FFF7FEFF 		bl	CapSense_Start
  44              	.LVL0:
  30:.\main.c      ****     SW_Tx_UART_1_Start();
  45              		.loc 1 30 0
  46 0008 FFF7FEFF 		bl	SW_Tx_UART_1_Start
  47              	.LVL1:
  31:.\main.c      ****     LED_CONTROL_Start();
  48              		.loc 1 31 0
  49 000c FFF7FEFF 		bl	LED_CONTROL_Start
  50              	.LVL2:
  32:.\main.c      ****     /* Initialize baselines */ 
  33:.\main.c      ****     CapSense_InitializeAllBaselines();
  51              		.loc 1 33 0
  52 0010 FFF7FEFF 		bl	CapSense_InitializeAllBaselines
  53              	.LVL3:
  54              	.L9:
  34:.\main.c      ****     /* Place your initialization/startup code here (e.g. MyInst_Start()) */
  35:.\main.c      **** 
  36:.\main.c      **** 
  37:.\main.c      ****     
  38:.\main.c      ****     for(;;)
  39:.\main.c      ****     {
  40:.\main.c      ****         /* Update all baselines */
  41:.\main.c      ****         CapSense_UpdateEnabledBaselines();
  55              		.loc 1 41 0
  56 0014 FFF7FEFF 		bl	CapSense_UpdateEnabledBaselines
  57              	.LVL4:
  42:.\main.c      ****         
  43:.\main.c      ****    		/* Start scanning all enabled sensors */
  44:.\main.c      ****     	CapSense_ScanEnabledWidgets();
  58              		.loc 1 44 0
  59 0018 FFF7FEFF 		bl	CapSense_ScanEnabledWidgets
  60              	.LVL5:
  45:.\main.c      ****         
  46:.\main.c      ****         /* Place your application code here */
  47:.\main.c      ****         while(CapSense_IsBusy() != 0)
  61              		.loc 1 47 0
  62 001c 70E0     		b	.L7
  63              	.L8:
  48:.\main.c      **** 		{
  49:.\main.c      **** 			/* Loop until condition true */
  50:.\main.c      **** 
  51:.\main.c      **** 
ARM GAS  C:\Users\SHOZOK~1\AppData\Local\Temp\ccMshwqj.s 			page 3


  52:.\main.c      ****         
  53:.\main.c      ****         Button[0] = CapSense_CheckIsWidgetActive(CapSense_SENSOR_BUTTON0__BTN);
  64              		.loc 1 53 0
  65 001e 0020     		mov	r0, #0
  66 0020 FFF7FEFF 		bl	CapSense_CheckIsWidgetActive
  67              	.LVL6:
  68 0024 394C     		ldr	r4, .L10
  69 0026 2060     		str	r0, [r4]
  54:.\main.c      ****         Button[1] = CapSense_CheckIsWidgetActive(CapSense_SENSOR_BUTTON1__BTN);
  70              		.loc 1 54 0
  71 0028 0120     		mov	r0, #1
  72 002a FFF7FEFF 		bl	CapSense_CheckIsWidgetActive
  73              	.LVL7:
  74 002e 6060     		str	r0, [r4, #4]
  55:.\main.c      ****         Button[2] = CapSense_CheckIsWidgetActive(CapSense_SENSOR_BUTTON2__BTN);
  75              		.loc 1 55 0
  76 0030 0220     		mov	r0, #2
  77 0032 FFF7FEFF 		bl	CapSense_CheckIsWidgetActive
  78              	.LVL8:
  79 0036 A060     		str	r0, [r4, #8]
  56:.\main.c      ****         Button[3] = CapSense_CheckIsWidgetActive(CapSense_SENSOR_BUTTON3__BTN);
  80              		.loc 1 56 0
  81 0038 0320     		mov	r0, #3
  82 003a FFF7FEFF 		bl	CapSense_CheckIsWidgetActive
  83              	.LVL9:
  84 003e E060     		str	r0, [r4, #12]
  57:.\main.c      ****         Button[4] = CapSense_CheckIsWidgetActive(CapSense_SENSOR_BUTTON4__BTN);
  85              		.loc 1 57 0
  86 0040 0420     		mov	r0, #4
  87 0042 FFF7FEFF 		bl	CapSense_CheckIsWidgetActive
  88              	.LVL10:
  89 0046 2061     		str	r0, [r4, #16]
  58:.\main.c      ****         Button[5] = CapSense_CheckIsWidgetActive(CapSense_SENSOR_BUTTON5__BTN);
  90              		.loc 1 58 0
  91 0048 0520     		mov	r0, #5
  92 004a FFF7FEFF 		bl	CapSense_CheckIsWidgetActive
  93              	.LVL11:
  94 004e 6061     		str	r0, [r4, #20]
  59:.\main.c      ****         Button[6] = CapSense_CheckIsWidgetActive(CapSense_SENSOR_BUTTON6__BTN);
  95              		.loc 1 59 0
  96 0050 0620     		mov	r0, #6
  97 0052 FFF7FEFF 		bl	CapSense_CheckIsWidgetActive
  98              	.LVL12:
  99 0056 A061     		str	r0, [r4, #24]
  60:.\main.c      ****         Button[7] = CapSense_CheckIsWidgetActive(CapSense_SENSOR_BUTTON7__BTN);
 100              		.loc 1 60 0
 101 0058 0720     		mov	r0, #7
 102 005a FFF7FEFF 		bl	CapSense_CheckIsWidgetActive
 103              	.LVL13:
 104 005e E061     		str	r0, [r4, #28]
  61:.\main.c      ****         Button[8] = CapSense_CheckIsWidgetActive(CapSense_SENSOR_BUTTON8__BTN);
 105              		.loc 1 61 0
 106 0060 0820     		mov	r0, #8
 107 0062 FFF7FEFF 		bl	CapSense_CheckIsWidgetActive
 108              	.LVL14:
 109 0066 2062     		str	r0, [r4, #32]
  62:.\main.c      ****         Button[9] = CapSense_CheckIsWidgetActive(CapSense_SENSOR_BUTTON9__BTN);
ARM GAS  C:\Users\SHOZOK~1\AppData\Local\Temp\ccMshwqj.s 			page 4


 110              		.loc 1 62 0
 111 0068 0920     		mov	r0, #9
 112 006a FFF7FEFF 		bl	CapSense_CheckIsWidgetActive
 113              	.LVL15:
 114 006e 6062     		str	r0, [r4, #36]
  63:.\main.c      ****         Button[10] = CapSense_CheckIsWidgetActive(CapSense_SENSOR_BUTTON10__BTN);
 115              		.loc 1 63 0
 116 0070 0A20     		mov	r0, #10
 117 0072 FFF7FEFF 		bl	CapSense_CheckIsWidgetActive
 118              	.LVL16:
 119 0076 A062     		str	r0, [r4, #40]
  64:.\main.c      ****         Button[11] = CapSense_CheckIsWidgetActive(CapSense_SENSOR_BUTTON11__BTN);
 120              		.loc 1 64 0
 121 0078 0B20     		mov	r0, #11
 122 007a FFF7FEFF 		bl	CapSense_CheckIsWidgetActive
 123              	.LVL17:
 124 007e E062     		str	r0, [r4, #44]
  65:.\main.c      ****         Button[12] = CapSense_CheckIsWidgetActive(CapSense_SENSOR_BUTTON12__BTN);
 125              		.loc 1 65 0
 126 0080 0C20     		mov	r0, #12
 127 0082 FFF7FEFF 		bl	CapSense_CheckIsWidgetActive
 128              	.LVL18:
 129 0086 2063     		str	r0, [r4, #48]
 130              	.LVL19:
  66:.\main.c      ****         
  67:.\main.c      ****  
  68:.\main.c      **** 
  69:.\main.c      ****         
  70:.\main.c      **** 
  71:.\main.c      ****         for(i=0; i<13; i++){
 131              		.loc 1 71 0
 132 0088 0024     		mov	r4, #0
 133 008a 2BE0     		b	.L3
 134              	.LVL20:
 135              	.L6:
  72:.\main.c      ****             if(Button[i]==1){
 136              		.loc 1 72 0
 137 008c A300     		lsl	r3, r4, #2
 138 008e 1F4A     		ldr	r2, .L10
 139 0090 9B58     		ldr	r3, [r3, r2]
 140 0092 012B     		cmp	r3, #1
 141 0094 1BD1     		bne	.L4
  73:.\main.c      ****                 //Pin_1_Write(0);
  74:.\main.c      ****                 bright*=0.9;
 142              		.loc 1 74 0
 143 0096 1E4D     		ldr	r5, .L10+4
 144 0098 2868     		ldr	r0, [r5]
 145 009a FFF7FEFF 		bl	__aeabi_i2d
 146              	.LVL21:
 147 009e 1D4A     		ldr	r2, .L10+8
 148 00a0 1D4B     		ldr	r3, .L10+12
 149 00a2 FFF7FEFF 		bl	__aeabi_dmul
 150              	.LVL22:
 151 00a6 FFF7FEFF 		bl	__aeabi_d2iz
 152              	.LVL23:
 153 00aa 2860     		str	r0, [r5]
  75:.\main.c      ****                 if(Status[i]==0){
ARM GAS  C:\Users\SHOZOK~1\AppData\Local\Temp\ccMshwqj.s 			page 5


 154              		.loc 1 75 0
 155 00ac A300     		lsl	r3, r4, #2
 156 00ae 174A     		ldr	r2, .L10
 157 00b0 D318     		add	r3, r2, r3
 158 00b2 5B6B     		ldr	r3, [r3, #52]
 159 00b4 002B     		cmp	r3, #0
 160 00b6 14D1     		bne	.L5
  76:.\main.c      ****                     Status[i]=1;
 161              		.loc 1 76 0
 162 00b8 A300     		lsl	r3, r4, #2
 163 00ba D318     		add	r3, r2, r3
 164 00bc 0122     		mov	r2, #1
 165 00be 5A63     		str	r2, [r3, #52]
  77:.\main.c      ****                     SW_Tx_UART_1_PutChar((i)*10);
 166              		.loc 1 77 0
 167 00c0 A300     		lsl	r3, r4, #2
 168 00c2 E318     		add	r3, r4, r3
 169 00c4 5800     		lsl	r0, r3, #1
 170 00c6 C0B2     		uxtb	r0, r0
 171 00c8 FFF7FEFF 		bl	SW_Tx_UART_1_PutChar
 172              	.LVL24:
 173 00cc 09E0     		b	.L5
 174              	.L4:
  78:.\main.c      ****             //        SW_Tx_UART_1_PutChar(0xFF);   
  79:.\main.c      ****                 }
  80:.\main.c      ****             }else{
  81:.\main.c      ****                 if(Status[i]==1){
 175              		.loc 1 81 0
 176 00ce A300     		lsl	r3, r4, #2
 177 00d0 0E4A     		ldr	r2, .L10
 178 00d2 D318     		add	r3, r2, r3
 179 00d4 5B6B     		ldr	r3, [r3, #52]
 180 00d6 012B     		cmp	r3, #1
 181 00d8 03D1     		bne	.L5
  82:.\main.c      ****                     Status[i]=0;
 182              		.loc 1 82 0
 183 00da A300     		lsl	r3, r4, #2
 184 00dc D318     		add	r3, r2, r3
 185 00de 0022     		mov	r2, #0
 186 00e0 5A63     		str	r2, [r3, #52]
 187              	.L5:
  71:.\main.c      ****             if(Button[i]==1){
 188              		.loc 1 71 0 discriminator 2
 189 00e2 0134     		add	r4, r4, #1
 190              	.LVL25:
 191              	.L3:
  71:.\main.c      ****             if(Button[i]==1){
 192              		.loc 1 71 0 is_stmt 0 discriminator 1
 193 00e4 0C2C     		cmp	r4, #12
 194 00e6 D1DD     		ble	.L6
  83:.\main.c      **** //                    SW_Tx_UART_1_PutChar(0);
  84:.\main.c      **** //                    SW_Tx_UART_1_PutChar(0xFF);
  85:.\main.c      ****                 }
  86:.\main.c      ****             }
  87:.\main.c      ****         }
  88:.\main.c      ****         LED_CONTROL_WriteCompare((uint32)bright);
 195              		.loc 1 88 0 is_stmt 1
ARM GAS  C:\Users\SHOZOK~1\AppData\Local\Temp\ccMshwqj.s 			page 6


 196 00e8 094C     		ldr	r4, .L10+4
 197              	.LVL26:
 198 00ea 2068     		ldr	r0, [r4]
 199 00ec FFF7FEFF 		bl	LED_CONTROL_WriteCompare
 200              	.LVL27:
  89:.\main.c      ****         bright+=100;
 201              		.loc 1 89 0
 202 00f0 2368     		ldr	r3, [r4]
 203 00f2 6433     		add	r3, r3, #100
 204 00f4 2360     		str	r3, [r4]
  90:.\main.c      ****         if(bright>65535)bright=65535;
 205              		.loc 1 90 0
 206 00f6 094A     		ldr	r2, .L10+16
 207 00f8 9342     		cmp	r3, r2
 208 00fa 01DD     		ble	.L7
 209              		.loc 1 90 0 is_stmt 0 discriminator 1
 210 00fc 044B     		ldr	r3, .L10+4
 211 00fe 1A60     		str	r2, [r3]
 212              	.L7:
  47:.\main.c      **** 		{
 213              		.loc 1 47 0 is_stmt 1
 214 0100 FFF7FEFF 		bl	CapSense_IsBusy
 215              	.LVL28:
 216 0104 0028     		cmp	r0, #0
 217 0106 8AD1     		bne	.L8
 218 0108 84E7     		b	.L9
 219              	.L11:
 220 010a C046     		.align	2
 221              	.L10:
 222 010c 00000000 		.word	.LANCHOR0
 223 0110 00000000 		.word	bright
 224 0114 CDCCCCCC 		.word	-858993459
 225 0118 CCCCEC3F 		.word	1072483532
 226 011c FFFF0000 		.word	65535
 227              		.cfi_endproc
 228              	.LFE33:
 229              		.size	main, .-main
 230              		.comm	bright,4,4
 231              		.global	Status
 232              		.global	Button
 233              		.bss
 234              		.align	2
 235              		.set	.LANCHOR0,. + 0
 236              		.type	Button, %object
 237              		.size	Button, 52
 238              	Button:
 239 0000 00000000 		.space	52
 239      00000000 
 239      00000000 
 239      00000000 
 239      00000000 
 240              		.type	Status, %object
 241              		.size	Status, 52
 242              	Status:
 243 0034 00000000 		.space	52
 243      00000000 
 243      00000000 
ARM GAS  C:\Users\SHOZOK~1\AppData\Local\Temp\ccMshwqj.s 			page 7


 243      00000000 
 243      00000000 
 244              		.text
 245              	.Letext0:
 246              		.file 2 "Generated_Source\\PSoC4/cytypes.h"
 247              		.file 3 "Generated_Source\\PSoC4/CapSense.h"
 248              		.file 4 "Generated_Source\\PSoC4/SW_Tx_UART_1.h"
 249              		.file 5 "Generated_Source\\PSoC4/LED_CONTROL.h"
 250              		.file 6 "Generated_Source\\PSoC4/CapSense_CSHL.h"