ARM GAS  C:\Users\SHOZO\AppData\Local\Temp\cc3BkmVy.s 			page 1


   1              		.syntax unified
   2              		.cpu cortex-m0
   3              		.fpu softvfp
   4              		.eabi_attribute 20, 1
   5              		.eabi_attribute 21, 1
   6              		.eabi_attribute 23, 3
   7              		.eabi_attribute 24, 1
   8              		.eabi_attribute 25, 1
   9              		.eabi_attribute 26, 1
  10              		.eabi_attribute 30, 1
  11              		.eabi_attribute 34, 0
  12              		.eabi_attribute 18, 4
  13              		.thumb
  14              		.syntax unified
  15              		.file	"CapSense_CSHL.c"
  16              		.text
  17              	.Ltext0:
  18              		.cfi_sections	.debug_frame
  19              		.section	.text.CapSense_BaseInit,"ax",%progbits
  20              		.align	2
  21              		.global	CapSense_BaseInit
  22              		.code	16
  23              		.thumb_func
  24              		.type	CapSense_BaseInit, %function
  25              	CapSense_BaseInit:
  26              	.LFB32:
  27              		.file 1 "Generated_Source\\PSoC4\\CapSense_CSHL.c"
   1:Generated_Source\PSoC4/CapSense_CSHL.c **** /*******************************************************************************
   2:Generated_Source\PSoC4/CapSense_CSHL.c **** * File Name: CapSense_CSHL.c
   3:Generated_Source\PSoC4/CapSense_CSHL.c **** * Version 2.60
   4:Generated_Source\PSoC4/CapSense_CSHL.c **** *
   5:Generated_Source\PSoC4/CapSense_CSHL.c **** * Description:
   6:Generated_Source\PSoC4/CapSense_CSHL.c **** *  This file provides the source code to the High Level APIs for the CapSesne
   7:Generated_Source\PSoC4/CapSense_CSHL.c **** *  CSD component.
   8:Generated_Source\PSoC4/CapSense_CSHL.c **** *
   9:Generated_Source\PSoC4/CapSense_CSHL.c **** * Note:
  10:Generated_Source\PSoC4/CapSense_CSHL.c **** *
  11:Generated_Source\PSoC4/CapSense_CSHL.c **** ********************************************************************************
  12:Generated_Source\PSoC4/CapSense_CSHL.c **** * Copyright 2013-2016, Cypress Semiconductor Corporation.  All rights reserved.
  13:Generated_Source\PSoC4/CapSense_CSHL.c **** * You may use this file only in accordance with the license, terms, conditions,
  14:Generated_Source\PSoC4/CapSense_CSHL.c **** * disclaimers, and limitations in the end user license agreement accompanying
  15:Generated_Source\PSoC4/CapSense_CSHL.c **** * the software package with which this file was provided.
  16:Generated_Source\PSoC4/CapSense_CSHL.c **** *******************************************************************************/
  17:Generated_Source\PSoC4/CapSense_CSHL.c **** 
  18:Generated_Source\PSoC4/CapSense_CSHL.c **** #include "CapSense_CSHL.h"
  19:Generated_Source\PSoC4/CapSense_CSHL.c **** #include "CapSense_PVT.h"
  20:Generated_Source\PSoC4/CapSense_CSHL.c **** 
  21:Generated_Source\PSoC4/CapSense_CSHL.c **** /* SmartSense functions */
  22:Generated_Source\PSoC4/CapSense_CSHL.c **** #if (CapSense_TUNING_METHOD == CapSense__TUNING_AUTO)
  23:Generated_Source\PSoC4/CapSense_CSHL.c ****     extern void CapSense_UpdateThresholds(uint32 sensor);
  24:Generated_Source\PSoC4/CapSense_CSHL.c **** #endif /* (CapSense_TUNING_METHOD == CapSense__TUNING_AUTO) */
  25:Generated_Source\PSoC4/CapSense_CSHL.c **** 
  26:Generated_Source\PSoC4/CapSense_CSHL.c **** /* Storage of filters data */
  27:Generated_Source\PSoC4/CapSense_CSHL.c **** #if ( (0u != (CapSense_RAW_FILTER_MASK & CapSense_MEDIAN_FILTER)) || \
  28:Generated_Source\PSoC4/CapSense_CSHL.c ****       (0u != (CapSense_RAW_FILTER_MASK & CapSense_AVERAGING_FILTER)) )
  29:Generated_Source\PSoC4/CapSense_CSHL.c **** 
  30:Generated_Source\PSoC4/CapSense_CSHL.c ****     uint16 CapSense_rawFilterData1[CapSense_TOTAL_SENSOR_COUNT];
ARM GAS  C:\Users\SHOZO\AppData\Local\Temp\cc3BkmVy.s 			page 2


  31:Generated_Source\PSoC4/CapSense_CSHL.c ****     uint16 CapSense_rawFilterData2[CapSense_TOTAL_SENSOR_COUNT];
  32:Generated_Source\PSoC4/CapSense_CSHL.c **** 
  33:Generated_Source\PSoC4/CapSense_CSHL.c **** #elif ( (0u != (CapSense_RAW_FILTER_MASK & CapSense_IIR2_FILTER))   || \
  34:Generated_Source\PSoC4/CapSense_CSHL.c ****         (0u != (CapSense_RAW_FILTER_MASK & CapSense_IIR4_FILTER))   || \
  35:Generated_Source\PSoC4/CapSense_CSHL.c ****         (0u != (CapSense_RAW_FILTER_MASK & CapSense_JITTER_FILTER)) || \
  36:Generated_Source\PSoC4/CapSense_CSHL.c ****         (0u != (CapSense_RAW_FILTER_MASK & CapSense_IIR8_FILTER))   || \
  37:Generated_Source\PSoC4/CapSense_CSHL.c ****         (0u != (CapSense_RAW_FILTER_MASK & CapSense_IIR16_FILTER)) )
  38:Generated_Source\PSoC4/CapSense_CSHL.c **** 
  39:Generated_Source\PSoC4/CapSense_CSHL.c ****     uint16 CapSense_rawFilterData1[CapSense_TOTAL_SENSOR_COUNT];
  40:Generated_Source\PSoC4/CapSense_CSHL.c **** #endif  /* ( (CapSense_RAW_FILTER_MASK & CapSense_MEDIAN_FILTER) || \
  41:Generated_Source\PSoC4/CapSense_CSHL.c ****         *    (CapSense_RAW_FILTER_MASK & CapSense_AVERAGING_FILTER) )
  42:Generated_Source\PSoC4/CapSense_CSHL.c ****         */
  43:Generated_Source\PSoC4/CapSense_CSHL.c **** 
  44:Generated_Source\PSoC4/CapSense_CSHL.c **** extern uint16 CapSense_sensorRaw[CapSense_TOTAL_SENSOR_COUNT];
  45:Generated_Source\PSoC4/CapSense_CSHL.c **** extern uint8 CapSense_sensorEnableMask[CapSense_TOTAL_SENSOR_MASK];
  46:Generated_Source\PSoC4/CapSense_CSHL.c **** extern const uint8 CapSense_widgetNumber[CapSense_TOTAL_SENSOR_COUNT];
  47:Generated_Source\PSoC4/CapSense_CSHL.c **** 
  48:Generated_Source\PSoC4/CapSense_CSHL.c **** #if (CapSense_TUNING_METHOD != CapSense__TUNING_NONE)
  49:Generated_Source\PSoC4/CapSense_CSHL.c ****     extern uint32 CapSense_widgetResolution[CapSense_RESOLUTIONS_TBL_SIZE];
  50:Generated_Source\PSoC4/CapSense_CSHL.c **** #endif /* (CapSense_TUNING_METHOD != CapSense__TUNING_NONE) */
  51:Generated_Source\PSoC4/CapSense_CSHL.c **** 
  52:Generated_Source\PSoC4/CapSense_CSHL.c **** uint16 CapSense_sensorBaseline[CapSense_TOTAL_SENSOR_COUNT] = {0u};
  53:Generated_Source\PSoC4/CapSense_CSHL.c **** uint8 CapSense_sensorBaselineLow[CapSense_TOTAL_SENSOR_COUNT] = {0u};
  54:Generated_Source\PSoC4/CapSense_CSHL.c **** uint8 CapSense_sensorSignal[CapSense_TOTAL_SENSOR_COUNT] = {0u};
  55:Generated_Source\PSoC4/CapSense_CSHL.c **** uint8 CapSense_sensorOnMask[CapSense_TOTAL_SENSOR_MASK] = {0u};
  56:Generated_Source\PSoC4/CapSense_CSHL.c **** 
  57:Generated_Source\PSoC4/CapSense_CSHL.c **** uint8 CapSense_lowBaselineResetCnt[CapSense_TOTAL_SENSOR_COUNT];
  58:Generated_Source\PSoC4/CapSense_CSHL.c **** uint8 CapSense_lowBaselineReset[CapSense_TOTAL_SENSOR_COUNT] = {
  59:Generated_Source\PSoC4/CapSense_CSHL.c ****     30u, 30u, 30u, 30u, 30u, 30u, 30u, 30u, 30u, 30u, 30u, 30u, 
  60:Generated_Source\PSoC4/CapSense_CSHL.c **** };
  61:Generated_Source\PSoC4/CapSense_CSHL.c **** 
  62:Generated_Source\PSoC4/CapSense_CSHL.c **** 
  63:Generated_Source\PSoC4/CapSense_CSHL.c **** 
  64:Generated_Source\PSoC4/CapSense_CSHL.c **** #if (CapSense_TUNING_METHOD == CapSense__TUNING_AUTO)
  65:Generated_Source\PSoC4/CapSense_CSHL.c ****     extern CapSense_CONFIG_TYPE_P4_v2_60 CapSense_config;
  66:Generated_Source\PSoC4/CapSense_CSHL.c **** #endif  /* (CapSense_TUNING_METHOD == CapSense__TUNING_AUTO) */
  67:Generated_Source\PSoC4/CapSense_CSHL.c **** 
  68:Generated_Source\PSoC4/CapSense_CSHL.c **** #if (CapSense_RAW_FILTER_MASK != 0u)
  69:Generated_Source\PSoC4/CapSense_CSHL.c **** uint8 CapSense_enableRawFilters = CapSense_RAW_FILTERS_ENABLED;
  70:Generated_Source\PSoC4/CapSense_CSHL.c **** #endif  /* (CapSense_RAW_FILTER_MASK != 0u) */
  71:Generated_Source\PSoC4/CapSense_CSHL.c **** 
  72:Generated_Source\PSoC4/CapSense_CSHL.c **** /* Generated by Customizer */
  73:Generated_Source\PSoC4/CapSense_CSHL.c **** uint8 CapSense_fingerThreshold[CapSense_THRESHOLD_TBL_SIZE];
  74:Generated_Source\PSoC4/CapSense_CSHL.c **** 
  75:Generated_Source\PSoC4/CapSense_CSHL.c **** uint8 CapSense_noiseThreshold[CapSense_THRESHOLD_TBL_SIZE];
  76:Generated_Source\PSoC4/CapSense_CSHL.c **** 
  77:Generated_Source\PSoC4/CapSense_CSHL.c **** uint8 CapSense_negativeNoiseThreshold[CapSense_THRESHOLD_TBL_SIZE];
  78:Generated_Source\PSoC4/CapSense_CSHL.c **** 
  79:Generated_Source\PSoC4/CapSense_CSHL.c **** uint8 CapSense_hysteresis[CapSense_WIDGET_PARAM_TBL_SIZE];
  80:Generated_Source\PSoC4/CapSense_CSHL.c **** 
  81:Generated_Source\PSoC4/CapSense_CSHL.c **** uint8 CapSense_debounce[] = {
  82:Generated_Source\PSoC4/CapSense_CSHL.c ****     1u, 
  83:Generated_Source\PSoC4/CapSense_CSHL.c **** };
  84:Generated_Source\PSoC4/CapSense_CSHL.c **** 
  85:Generated_Source\PSoC4/CapSense_CSHL.c **** const uint8 CapSense_rawDataIndex[] = {
  86:Generated_Source\PSoC4/CapSense_CSHL.c ****     0u, /* LinearSlider0__LS */
  87:Generated_Source\PSoC4/CapSense_CSHL.c **** };
ARM GAS  C:\Users\SHOZO\AppData\Local\Temp\cc3BkmVy.s 			page 3


  88:Generated_Source\PSoC4/CapSense_CSHL.c **** 
  89:Generated_Source\PSoC4/CapSense_CSHL.c **** const uint8 CapSense_numberOfSensors[] = {
  90:Generated_Source\PSoC4/CapSense_CSHL.c ****     12u, /* LinearSlider0__LS */
  91:Generated_Source\PSoC4/CapSense_CSHL.c **** };
  92:Generated_Source\PSoC4/CapSense_CSHL.c **** 
  93:Generated_Source\PSoC4/CapSense_CSHL.c **** static const uint16 CapSense_centroidMult[] = {
  94:Generated_Source\PSoC4/CapSense_CSHL.c ****     2304u, 
  95:Generated_Source\PSoC4/CapSense_CSHL.c **** };
  96:Generated_Source\PSoC4/CapSense_CSHL.c **** 
  97:Generated_Source\PSoC4/CapSense_CSHL.c **** static uint8 CapSense_posFiltersMask[] = {
  98:Generated_Source\PSoC4/CapSense_CSHL.c ****     0x10u, 
  99:Generated_Source\PSoC4/CapSense_CSHL.c **** };
 100:Generated_Source\PSoC4/CapSense_CSHL.c **** 
 101:Generated_Source\PSoC4/CapSense_CSHL.c **** static uint8 CapSense_posFiltersData[] = {
 102:Generated_Source\PSoC4/CapSense_CSHL.c ****     1u, 0u, 0u, 
 103:Generated_Source\PSoC4/CapSense_CSHL.c **** };
 104:Generated_Source\PSoC4/CapSense_CSHL.c **** 
 105:Generated_Source\PSoC4/CapSense_CSHL.c **** 
 106:Generated_Source\PSoC4/CapSense_CSHL.c **** 
 107:Generated_Source\PSoC4/CapSense_CSHL.c **** 
 108:Generated_Source\PSoC4/CapSense_CSHL.c **** /*******************************************************************************
 109:Generated_Source\PSoC4/CapSense_CSHL.c **** * Function Name: CapSense_BaseInit
 110:Generated_Source\PSoC4/CapSense_CSHL.c **** ********************************************************************************
 111:Generated_Source\PSoC4/CapSense_CSHL.c **** *
 112:Generated_Source\PSoC4/CapSense_CSHL.c **** * Summary:
 113:Generated_Source\PSoC4/CapSense_CSHL.c **** *  Loads the CapSense_sensorBaseline[sensor] array element with an
 114:Generated_Source\PSoC4/CapSense_CSHL.c **** *  initial value which is equal to the raw count value.
 115:Generated_Source\PSoC4/CapSense_CSHL.c **** *  Resets to zero CapSense_sensorBaselineLow[sensor] and
 116:Generated_Source\PSoC4/CapSense_CSHL.c **** *  CapSense_sensorSignal[sensor] array element.
 117:Generated_Source\PSoC4/CapSense_CSHL.c **** *  Loads the CapSense_rawFilterData2[sensor] and
 118:Generated_Source\PSoC4/CapSense_CSHL.c **** *  CapSense_rawFilterData2[sensor] array element with an
 119:Generated_Source\PSoC4/CapSense_CSHL.c **** *  initial value which is equal to the raw count value if the raw data filter is enabled.
 120:Generated_Source\PSoC4/CapSense_CSHL.c **** *
 121:Generated_Source\PSoC4/CapSense_CSHL.c **** * Parameters:
 122:Generated_Source\PSoC4/CapSense_CSHL.c **** *  sensor:  Sensor number.
 123:Generated_Source\PSoC4/CapSense_CSHL.c **** *
 124:Generated_Source\PSoC4/CapSense_CSHL.c **** * Return:
 125:Generated_Source\PSoC4/CapSense_CSHL.c **** *  None
 126:Generated_Source\PSoC4/CapSense_CSHL.c **** *
 127:Generated_Source\PSoC4/CapSense_CSHL.c **** * Global Variables:
 128:Generated_Source\PSoC4/CapSense_CSHL.c **** *  CapSense_sensorBaseline[]    - used to store the baseline value.
 129:Generated_Source\PSoC4/CapSense_CSHL.c **** *  CapSense_sensorBaselineLow[] - used to store the fraction byte of
 130:Generated_Source\PSoC4/CapSense_CSHL.c **** *  the baseline value.
 131:Generated_Source\PSoC4/CapSense_CSHL.c **** *  CapSense_sensorSignal[]      - used to store a difference between
 132:Generated_Source\PSoC4/CapSense_CSHL.c **** *  the current value of raw data and the previous value of the baseline.
 133:Generated_Source\PSoC4/CapSense_CSHL.c **** *  CapSense_rawFilterData1[]    - used to store a previous sample of
 134:Generated_Source\PSoC4/CapSense_CSHL.c **** *  any enabled raw data filter.
 135:Generated_Source\PSoC4/CapSense_CSHL.c **** *  CapSense_rawFilterData2[]    - used to store before a previous sample
 136:Generated_Source\PSoC4/CapSense_CSHL.c **** *  of the enabled raw data filter. Required only for median or average filters.
 137:Generated_Source\PSoC4/CapSense_CSHL.c **** *
 138:Generated_Source\PSoC4/CapSense_CSHL.c **** * Side Effects:
 139:Generated_Source\PSoC4/CapSense_CSHL.c **** *  None
 140:Generated_Source\PSoC4/CapSense_CSHL.c **** *
 141:Generated_Source\PSoC4/CapSense_CSHL.c **** *******************************************************************************/
 142:Generated_Source\PSoC4/CapSense_CSHL.c **** void CapSense_BaseInit(uint32 sensor)
 143:Generated_Source\PSoC4/CapSense_CSHL.c **** {
  28              		.loc 1 143 0
ARM GAS  C:\Users\SHOZO\AppData\Local\Temp\cc3BkmVy.s 			page 4


  29              		.cfi_startproc
  30              		@ args = 0, pretend = 0, frame = 0
  31              		@ frame_needed = 0, uses_anonymous_args = 0
  32              	.LVL0:
  33 0000 10B5     		push	{r4, lr}
  34              		.cfi_def_cfa_offset 8
  35              		.cfi_offset 4, -8
  36              		.cfi_offset 14, -4
 144:Generated_Source\PSoC4/CapSense_CSHL.c ****     #if ((CapSense_TOTAL_BUTTONS_COUNT) || (CapSense_TOTAL_MATRIX_BUTTONS_COUNT) || \
 145:Generated_Source\PSoC4/CapSense_CSHL.c ****          (CapSense_TOTAL_GENERICS_COUNT))
 146:Generated_Source\PSoC4/CapSense_CSHL.c ****         uint8 widget = CapSense_widgetNumber[sensor];
 147:Generated_Source\PSoC4/CapSense_CSHL.c ****     #endif /* ((CapSense_TOTAL_MATRIX_BUTTONS_COUNT) || (CapSense_TOTAL_MATRIX_BUTTONS_COUNT)) */
 148:Generated_Source\PSoC4/CapSense_CSHL.c **** 
 149:Generated_Source\PSoC4/CapSense_CSHL.c ****     #if (CapSense_TOTAL_MATRIX_BUTTONS_COUNT)
 150:Generated_Source\PSoC4/CapSense_CSHL.c ****         uint8 debounceIndex;
 151:Generated_Source\PSoC4/CapSense_CSHL.c ****     #endif  /* (CapSense_TOTAL_MATRIX_BUTTONS_COUNT) */
 152:Generated_Source\PSoC4/CapSense_CSHL.c **** 
 153:Generated_Source\PSoC4/CapSense_CSHL.c ****     #if (CapSense_TOTAL_GENERICS_COUNT)
 154:Generated_Source\PSoC4/CapSense_CSHL.c ****         /* Exclude generic widget */
 155:Generated_Source\PSoC4/CapSense_CSHL.c ****         if(widget < CapSense_END_OF_WIDGETS_INDEX)
 156:Generated_Source\PSoC4/CapSense_CSHL.c ****         {
 157:Generated_Source\PSoC4/CapSense_CSHL.c ****     #endif  /* CapSense_TOTAL_GENERICS_COUNT */
 158:Generated_Source\PSoC4/CapSense_CSHL.c **** 
 159:Generated_Source\PSoC4/CapSense_CSHL.c ****     /* Initialize Baseline */
 160:Generated_Source\PSoC4/CapSense_CSHL.c ****     CapSense_sensorBaseline[sensor] = CapSense_sensorRaw[sensor];
  37              		.loc 1 160 0
  38 0002 4300     		lsls	r3, r0, #1
  39 0004 054A     		ldr	r2, .L2
  40 0006 9A5A     		ldrh	r2, [r3, r2]
  41 0008 0549     		ldr	r1, .L2+4
  42 000a 5A52     		strh	r2, [r3, r1]
 161:Generated_Source\PSoC4/CapSense_CSHL.c ****     CapSense_sensorBaselineLow[sensor] = 0u;
  43              		.loc 1 161 0
  44 000c 0818     		adds	r0, r1, r0
  45              	.LVL1:
  46 000e 0021     		movs	r1, #0
  47 0010 0176     		strb	r1, [r0, #24]
 162:Generated_Source\PSoC4/CapSense_CSHL.c ****     CapSense_sensorSignal[sensor] = 0u;
  48              		.loc 1 162 0
  49 0012 2424     		movs	r4, #36
  50 0014 0155     		strb	r1, [r0, r4]
 163:Generated_Source\PSoC4/CapSense_CSHL.c **** 
 164:Generated_Source\PSoC4/CapSense_CSHL.c **** 
 165:Generated_Source\PSoC4/CapSense_CSHL.c **** 
 166:Generated_Source\PSoC4/CapSense_CSHL.c ****     #if ((0u != (CapSense_RAW_FILTER_MASK & CapSense_MEDIAN_FILTER)) ||\
 167:Generated_Source\PSoC4/CapSense_CSHL.c ****          (0u != (CapSense_RAW_FILTER_MASK & CapSense_AVERAGING_FILTER)))
 168:Generated_Source\PSoC4/CapSense_CSHL.c **** 
 169:Generated_Source\PSoC4/CapSense_CSHL.c ****         CapSense_rawFilterData1[sensor] = CapSense_sensorRaw[sensor];
 170:Generated_Source\PSoC4/CapSense_CSHL.c ****         CapSense_rawFilterData2[sensor] = CapSense_sensorRaw[sensor];
 171:Generated_Source\PSoC4/CapSense_CSHL.c **** 
 172:Generated_Source\PSoC4/CapSense_CSHL.c ****     #elif ((CapSense_RAW_FILTER_MASK & CapSense_IIR2_FILTER) ||\
 173:Generated_Source\PSoC4/CapSense_CSHL.c ****            (CapSense_RAW_FILTER_MASK & CapSense_IIR4_FILTER) ||\
 174:Generated_Source\PSoC4/CapSense_CSHL.c ****            (CapSense_RAW_FILTER_MASK & CapSense_JITTER_FILTER) ||\
 175:Generated_Source\PSoC4/CapSense_CSHL.c ****            (CapSense_RAW_FILTER_MASK & CapSense_IIR8_FILTER) ||\
 176:Generated_Source\PSoC4/CapSense_CSHL.c ****            (CapSense_RAW_FILTER_MASK & CapSense_IIR16_FILTER))
 177:Generated_Source\PSoC4/CapSense_CSHL.c **** 
 178:Generated_Source\PSoC4/CapSense_CSHL.c ****         CapSense_rawFilterData1[sensor] = CapSense_sensorRaw[sensor];
ARM GAS  C:\Users\SHOZO\AppData\Local\Temp\cc3BkmVy.s 			page 5


  51              		.loc 1 178 0
  52 0016 0349     		ldr	r1, .L2+8
  53 0018 5A52     		strh	r2, [r3, r1]
 179:Generated_Source\PSoC4/CapSense_CSHL.c **** 
 180:Generated_Source\PSoC4/CapSense_CSHL.c ****     #else
 181:Generated_Source\PSoC4/CapSense_CSHL.c ****         /* No Raw filters */
 182:Generated_Source\PSoC4/CapSense_CSHL.c ****     #endif  /* ((CapSense_RAW_FILTER_MASK & CapSense_MEDIAN_FILTER) || \
 183:Generated_Source\PSoC4/CapSense_CSHL.c ****             *   (CapSense_RAW_FILTER_MASK & CapSense_AVERAGING_FILTER))
 184:Generated_Source\PSoC4/CapSense_CSHL.c ****             */
 185:Generated_Source\PSoC4/CapSense_CSHL.c **** 
 186:Generated_Source\PSoC4/CapSense_CSHL.c ****     #if (CapSense_TOTAL_GENERICS_COUNT)
 187:Generated_Source\PSoC4/CapSense_CSHL.c ****         /* Exclude generic widget */
 188:Generated_Source\PSoC4/CapSense_CSHL.c ****         }
 189:Generated_Source\PSoC4/CapSense_CSHL.c ****     #endif  /* CapSense_TOTAL_GENERICS_COUNT */
 190:Generated_Source\PSoC4/CapSense_CSHL.c **** }
  54              		.loc 1 190 0
  55              		@ sp needed
  56 001a 10BD     		pop	{r4, pc}
  57              	.L3:
  58              		.align	2
  59              	.L2:
  60 001c 00000000 		.word	CapSense_sensorRaw
  61 0020 00000000 		.word	.LANCHOR0
  62 0024 00000000 		.word	CapSense_rawFilterData1
  63              		.cfi_endproc
  64              	.LFE32:
  65              		.size	CapSense_BaseInit, .-CapSense_BaseInit
  66              		.section	.text.CapSense_InitializeSensorBaseline,"ax",%progbits
  67              		.align	2
  68              		.global	CapSense_InitializeSensorBaseline
  69              		.code	16
  70              		.thumb_func
  71              		.type	CapSense_InitializeSensorBaseline, %function
  72              	CapSense_InitializeSensorBaseline:
  73              	.LFB33:
 191:Generated_Source\PSoC4/CapSense_CSHL.c **** 
 192:Generated_Source\PSoC4/CapSense_CSHL.c **** 
 193:Generated_Source\PSoC4/CapSense_CSHL.c **** /*******************************************************************************
 194:Generated_Source\PSoC4/CapSense_CSHL.c **** * Function Name: CapSense_InitializeSensorBaseline
 195:Generated_Source\PSoC4/CapSense_CSHL.c **** ********************************************************************************
 196:Generated_Source\PSoC4/CapSense_CSHL.c **** *
 197:Generated_Source\PSoC4/CapSense_CSHL.c **** * Summary:
 198:Generated_Source\PSoC4/CapSense_CSHL.c **** *  Loads the CapSense_sensorBaseline[sensor] array element with an
 199:Generated_Source\PSoC4/CapSense_CSHL.c **** *  initial value by scanning the selected sensor (one channel design) or a pair
 200:Generated_Source\PSoC4/CapSense_CSHL.c **** *  of sensors (two channels designs). The raw count value is copied into the
 201:Generated_Source\PSoC4/CapSense_CSHL.c **** *  baseline array for each sensor. The raw data filters are initialized if
 202:Generated_Source\PSoC4/CapSense_CSHL.c **** *  enabled.
 203:Generated_Source\PSoC4/CapSense_CSHL.c **** *
 204:Generated_Source\PSoC4/CapSense_CSHL.c **** * Parameters:
 205:Generated_Source\PSoC4/CapSense_CSHL.c **** *  sensor:  Sensor number.
 206:Generated_Source\PSoC4/CapSense_CSHL.c **** *
 207:Generated_Source\PSoC4/CapSense_CSHL.c **** * Return:
 208:Generated_Source\PSoC4/CapSense_CSHL.c **** *  None
 209:Generated_Source\PSoC4/CapSense_CSHL.c **** *
 210:Generated_Source\PSoC4/CapSense_CSHL.c **** * Global Variables:
 211:Generated_Source\PSoC4/CapSense_CSHL.c **** *  None
 212:Generated_Source\PSoC4/CapSense_CSHL.c **** *
ARM GAS  C:\Users\SHOZO\AppData\Local\Temp\cc3BkmVy.s 			page 6


 213:Generated_Source\PSoC4/CapSense_CSHL.c **** * Side Effects:
 214:Generated_Source\PSoC4/CapSense_CSHL.c **** *  None
 215:Generated_Source\PSoC4/CapSense_CSHL.c **** *
 216:Generated_Source\PSoC4/CapSense_CSHL.c **** *******************************************************************************/
 217:Generated_Source\PSoC4/CapSense_CSHL.c **** void CapSense_InitializeSensorBaseline(uint32 sensor)
 218:Generated_Source\PSoC4/CapSense_CSHL.c **** {
  74              		.loc 1 218 0
  75              		.cfi_startproc
  76              		@ args = 0, pretend = 0, frame = 0
  77              		@ frame_needed = 0, uses_anonymous_args = 0
  78              	.LVL2:
  79 0000 10B5     		push	{r4, lr}
  80              		.cfi_def_cfa_offset 8
  81              		.cfi_offset 4, -8
  82              		.cfi_offset 14, -4
  83 0002 0400     		movs	r4, r0
 219:Generated_Source\PSoC4/CapSense_CSHL.c ****     /* Scan sensor */
 220:Generated_Source\PSoC4/CapSense_CSHL.c ****     CapSense_ScanSensor(sensor);
  84              		.loc 1 220 0
  85 0004 FFF7FEFF 		bl	CapSense_ScanSensor
  86              	.LVL3:
  87              	.L5:
 221:Generated_Source\PSoC4/CapSense_CSHL.c ****     while(CapSense_IsBusy() != 0u)
  88              		.loc 1 221 0 discriminator 1
  89 0008 FFF7FEFF 		bl	CapSense_IsBusy
  90              	.LVL4:
  91 000c 0028     		cmp	r0, #0
  92 000e FBD1     		bne	.L5
 222:Generated_Source\PSoC4/CapSense_CSHL.c ****     {
 223:Generated_Source\PSoC4/CapSense_CSHL.c ****         /* Wait while sensor is busy */
 224:Generated_Source\PSoC4/CapSense_CSHL.c ****     }
 225:Generated_Source\PSoC4/CapSense_CSHL.c **** 
 226:Generated_Source\PSoC4/CapSense_CSHL.c ****     /* Initialize Baseline, Signal and debounce counters */
 227:Generated_Source\PSoC4/CapSense_CSHL.c ****     CapSense_BaseInit(sensor);
  93              		.loc 1 227 0
  94 0010 2000     		movs	r0, r4
  95 0012 FFF7FEFF 		bl	CapSense_BaseInit
  96              	.LVL5:
 228:Generated_Source\PSoC4/CapSense_CSHL.c **** }
  97              		.loc 1 228 0
  98              		@ sp needed
  99              	.LVL6:
 100 0016 10BD     		pop	{r4, pc}
 101              		.cfi_endproc
 102              	.LFE33:
 103              		.size	CapSense_InitializeSensorBaseline, .-CapSense_InitializeSensorBaseline
 104              		.section	.text.CapSense_InitializeAllBaselines,"ax",%progbits
 105              		.align	2
 106              		.global	CapSense_InitializeAllBaselines
 107              		.code	16
 108              		.thumb_func
 109              		.type	CapSense_InitializeAllBaselines, %function
 110              	CapSense_InitializeAllBaselines:
 111              	.LFB34:
 229:Generated_Source\PSoC4/CapSense_CSHL.c **** 
 230:Generated_Source\PSoC4/CapSense_CSHL.c **** 
 231:Generated_Source\PSoC4/CapSense_CSHL.c **** /*******************************************************************************
ARM GAS  C:\Users\SHOZO\AppData\Local\Temp\cc3BkmVy.s 			page 7


 232:Generated_Source\PSoC4/CapSense_CSHL.c **** * Function Name: CapSense_InitializeAllBaselines
 233:Generated_Source\PSoC4/CapSense_CSHL.c **** ********************************************************************************
 234:Generated_Source\PSoC4/CapSense_CSHL.c **** *
 235:Generated_Source\PSoC4/CapSense_CSHL.c **** * Summary:
 236:Generated_Source\PSoC4/CapSense_CSHL.c **** *  Uses the CapSense_InitializeSensorBaseline function to load the
 237:Generated_Source\PSoC4/CapSense_CSHL.c **** *  CapSense_sensorBaseline[] array with an initial values by scanning
 238:Generated_Source\PSoC4/CapSense_CSHL.c **** *  all the sensors. The raw count values are copied into the baseline array for
 239:Generated_Source\PSoC4/CapSense_CSHL.c **** *  all the sensors. The raw data filters are initialized if enabled.
 240:Generated_Source\PSoC4/CapSense_CSHL.c **** *
 241:Generated_Source\PSoC4/CapSense_CSHL.c **** * Parameters:
 242:Generated_Source\PSoC4/CapSense_CSHL.c **** *  None
 243:Generated_Source\PSoC4/CapSense_CSHL.c **** *
 244:Generated_Source\PSoC4/CapSense_CSHL.c **** * Return:
 245:Generated_Source\PSoC4/CapSense_CSHL.c **** *  None
 246:Generated_Source\PSoC4/CapSense_CSHL.c **** *
 247:Generated_Source\PSoC4/CapSense_CSHL.c **** * Global Variables:
 248:Generated_Source\PSoC4/CapSense_CSHL.c **** *  None
 249:Generated_Source\PSoC4/CapSense_CSHL.c **** *
 250:Generated_Source\PSoC4/CapSense_CSHL.c **** * Side Effects:
 251:Generated_Source\PSoC4/CapSense_CSHL.c **** *  None
 252:Generated_Source\PSoC4/CapSense_CSHL.c **** *
 253:Generated_Source\PSoC4/CapSense_CSHL.c **** *******************************************************************************/
 254:Generated_Source\PSoC4/CapSense_CSHL.c **** void CapSense_InitializeAllBaselines(void)
 255:Generated_Source\PSoC4/CapSense_CSHL.c **** {
 112              		.loc 1 255 0
 113              		.cfi_startproc
 114              		@ args = 0, pretend = 0, frame = 0
 115              		@ frame_needed = 0, uses_anonymous_args = 0
 116 0000 10B5     		push	{r4, lr}
 117              		.cfi_def_cfa_offset 8
 118              		.cfi_offset 4, -8
 119              		.cfi_offset 14, -4
 120              	.LVL7:
 256:Generated_Source\PSoC4/CapSense_CSHL.c ****     uint32 i;
 257:Generated_Source\PSoC4/CapSense_CSHL.c **** 
 258:Generated_Source\PSoC4/CapSense_CSHL.c ****     for(i = 0u; i < CapSense_TOTAL_SCANSLOT_COUNT; i++)
 121              		.loc 1 258 0
 122 0002 0024     		movs	r4, #0
 123 0004 03E0     		b	.L7
 124              	.LVL8:
 125              	.L8:
 259:Generated_Source\PSoC4/CapSense_CSHL.c ****     {
 260:Generated_Source\PSoC4/CapSense_CSHL.c ****         CapSense_InitializeSensorBaseline(i);
 126              		.loc 1 260 0 discriminator 3
 127 0006 2000     		movs	r0, r4
 128 0008 FFF7FEFF 		bl	CapSense_InitializeSensorBaseline
 129              	.LVL9:
 258:Generated_Source\PSoC4/CapSense_CSHL.c ****     {
 130              		.loc 1 258 0 discriminator 3
 131 000c 0134     		adds	r4, r4, #1
 132              	.LVL10:
 133              	.L7:
 258:Generated_Source\PSoC4/CapSense_CSHL.c ****     {
 134              		.loc 1 258 0 is_stmt 0 discriminator 1
 135 000e 0B2C     		cmp	r4, #11
 136 0010 F9D9     		bls	.L8
 261:Generated_Source\PSoC4/CapSense_CSHL.c ****     }
ARM GAS  C:\Users\SHOZO\AppData\Local\Temp\cc3BkmVy.s 			page 8


 262:Generated_Source\PSoC4/CapSense_CSHL.c **** }
 137              		.loc 1 262 0 is_stmt 1
 138              		@ sp needed
 139              	.LVL11:
 140 0012 10BD     		pop	{r4, pc}
 141              		.cfi_endproc
 142              	.LFE34:
 143              		.size	CapSense_InitializeAllBaselines, .-CapSense_InitializeAllBaselines
 144              		.section	.text.CapSense_InitializeEnabledBaselines,"ax",%progbits
 145              		.align	2
 146              		.global	CapSense_InitializeEnabledBaselines
 147              		.code	16
 148              		.thumb_func
 149              		.type	CapSense_InitializeEnabledBaselines, %function
 150              	CapSense_InitializeEnabledBaselines:
 151              	.LFB35:
 263:Generated_Source\PSoC4/CapSense_CSHL.c **** 
 264:Generated_Source\PSoC4/CapSense_CSHL.c **** 
 265:Generated_Source\PSoC4/CapSense_CSHL.c **** /*******************************************************************************
 266:Generated_Source\PSoC4/CapSense_CSHL.c **** * Function Name: CapSense_InitializeEnabledBaselines
 267:Generated_Source\PSoC4/CapSense_CSHL.c **** ********************************************************************************
 268:Generated_Source\PSoC4/CapSense_CSHL.c **** *
 269:Generated_Source\PSoC4/CapSense_CSHL.c **** * Summary:
 270:Generated_Source\PSoC4/CapSense_CSHL.c **** *  Scans all the enabled widgets and the raw count values are copied into the
 271:Generated_Source\PSoC4/CapSense_CSHL.c **** *  baseline array for all the sensors enabled in the scanning process. The baselines
 272:Generated_Source\PSoC4/CapSense_CSHL.c **** *  are initialized with zero values for sensors disabled from the scanning process.
 273:Generated_Source\PSoC4/CapSense_CSHL.c **** *  The raw data filters are initialized if enabled.
 274:Generated_Source\PSoC4/CapSense_CSHL.c **** *
 275:Generated_Source\PSoC4/CapSense_CSHL.c **** * Parameters:
 276:Generated_Source\PSoC4/CapSense_CSHL.c **** *  None
 277:Generated_Source\PSoC4/CapSense_CSHL.c **** *
 278:Generated_Source\PSoC4/CapSense_CSHL.c **** * Return:
 279:Generated_Source\PSoC4/CapSense_CSHL.c **** *  None
 280:Generated_Source\PSoC4/CapSense_CSHL.c **** *
 281:Generated_Source\PSoC4/CapSense_CSHL.c **** * Global Variables:
 282:Generated_Source\PSoC4/CapSense_CSHL.c **** *  CapSense_sensorRaw[] - used to store the sensors raw data.
 283:Generated_Source\PSoC4/CapSense_CSHL.c **** *  CapSense_sensorEnableMask[ ] - used to store bit masks of the enabled sensors.
 284:Generated_Source\PSoC4/CapSense_CSHL.c **** *
 285:Generated_Source\PSoC4/CapSense_CSHL.c **** * Side Effects:
 286:Generated_Source\PSoC4/CapSense_CSHL.c **** *  None
 287:Generated_Source\PSoC4/CapSense_CSHL.c **** *
 288:Generated_Source\PSoC4/CapSense_CSHL.c **** *******************************************************************************/
 289:Generated_Source\PSoC4/CapSense_CSHL.c **** void CapSense_InitializeEnabledBaselines(void)
 290:Generated_Source\PSoC4/CapSense_CSHL.c **** {
 152              		.loc 1 290 0
 153              		.cfi_startproc
 154              		@ args = 0, pretend = 0, frame = 0
 155              		@ frame_needed = 0, uses_anonymous_args = 0
 156 0000 10B5     		push	{r4, lr}
 157              		.cfi_def_cfa_offset 8
 158              		.cfi_offset 4, -8
 159              		.cfi_offset 14, -4
 291:Generated_Source\PSoC4/CapSense_CSHL.c ****     uint32 i;
 292:Generated_Source\PSoC4/CapSense_CSHL.c ****     uint32 isSensorEnabled;
 293:Generated_Source\PSoC4/CapSense_CSHL.c **** 
 294:Generated_Source\PSoC4/CapSense_CSHL.c ****     CapSense_ScanEnabledWidgets();
 160              		.loc 1 294 0
ARM GAS  C:\Users\SHOZO\AppData\Local\Temp\cc3BkmVy.s 			page 9


 161 0002 FFF7FEFF 		bl	CapSense_ScanEnabledWidgets
 162              	.LVL12:
 163              	.L10:
 295:Generated_Source\PSoC4/CapSense_CSHL.c ****     while(CapSense_IsBusy() != 0u)
 164              		.loc 1 295 0 discriminator 1
 165 0006 FFF7FEFF 		bl	CapSense_IsBusy
 166              	.LVL13:
 167 000a 0028     		cmp	r0, #0
 168 000c FBD1     		bne	.L10
 169 000e 0024     		movs	r4, #0
 170 0010 09E0     		b	.L11
 171              	.LVL14:
 172              	.L13:
 296:Generated_Source\PSoC4/CapSense_CSHL.c ****     {
 297:Generated_Source\PSoC4/CapSense_CSHL.c ****         /* Wait while sensor is busy */
 298:Generated_Source\PSoC4/CapSense_CSHL.c ****     }
 299:Generated_Source\PSoC4/CapSense_CSHL.c **** 
 300:Generated_Source\PSoC4/CapSense_CSHL.c ****     for(i = 0u; i < CapSense_TOTAL_SENSOR_COUNT; i++)
 301:Generated_Source\PSoC4/CapSense_CSHL.c ****     {
 302:Generated_Source\PSoC4/CapSense_CSHL.c ****         isSensorEnabled = CapSense_GetBitValue(CapSense_sensorEnableMask, i);
 173              		.loc 1 302 0
 174 0012 2100     		movs	r1, r4
 175 0014 0548     		ldr	r0, .L14
 176 0016 FFF7FEFF 		bl	CapSense_GetBitValue
 177              	.LVL15:
 303:Generated_Source\PSoC4/CapSense_CSHL.c **** 
 304:Generated_Source\PSoC4/CapSense_CSHL.c ****         /* Clear raw data if sensor is disabled from scanning process */
 305:Generated_Source\PSoC4/CapSense_CSHL.c ****         if(isSensorEnabled != 0u)
 178              		.loc 1 305 0
 179 001a 0028     		cmp	r0, #0
 180 001c 02D0     		beq	.L12
 306:Generated_Source\PSoC4/CapSense_CSHL.c ****         {
 307:Generated_Source\PSoC4/CapSense_CSHL.c ****             /* Initialize baselines */
 308:Generated_Source\PSoC4/CapSense_CSHL.c ****             CapSense_BaseInit(i);
 181              		.loc 1 308 0
 182 001e 2000     		movs	r0, r4
 183              	.LVL16:
 184 0020 FFF7FEFF 		bl	CapSense_BaseInit
 185              	.LVL17:
 186              	.L12:
 300:Generated_Source\PSoC4/CapSense_CSHL.c ****     {
 187              		.loc 1 300 0 discriminator 2
 188 0024 0134     		adds	r4, r4, #1
 189              	.LVL18:
 190              	.L11:
 300:Generated_Source\PSoC4/CapSense_CSHL.c ****     {
 191              		.loc 1 300 0 is_stmt 0 discriminator 1
 192 0026 0B2C     		cmp	r4, #11
 193 0028 F3D9     		bls	.L13
 309:Generated_Source\PSoC4/CapSense_CSHL.c ****         }
 310:Generated_Source\PSoC4/CapSense_CSHL.c ****     }
 311:Generated_Source\PSoC4/CapSense_CSHL.c **** }
 194              		.loc 1 311 0 is_stmt 1
 195              		@ sp needed
 196              	.LVL19:
 197 002a 10BD     		pop	{r4, pc}
 198              	.L15:
ARM GAS  C:\Users\SHOZO\AppData\Local\Temp\cc3BkmVy.s 			page 10


 199              		.align	2
 200              	.L14:
 201 002c 00000000 		.word	CapSense_sensorEnableMask
 202              		.cfi_endproc
 203              	.LFE35:
 204              		.size	CapSense_InitializeEnabledBaselines, .-CapSense_InitializeEnabledBaselines
 205              		.section	.text.CapSense_GetBaselineData,"ax",%progbits
 206              		.align	2
 207              		.global	CapSense_GetBaselineData
 208              		.code	16
 209              		.thumb_func
 210              		.type	CapSense_GetBaselineData, %function
 211              	CapSense_GetBaselineData:
 212              	.LFB40:
 312:Generated_Source\PSoC4/CapSense_CSHL.c **** 
 313:Generated_Source\PSoC4/CapSense_CSHL.c **** 
 314:Generated_Source\PSoC4/CapSense_CSHL.c **** /*******************************************************************************
 315:Generated_Source\PSoC4/CapSense_CSHL.c **** * Function Name: CapSense_UpdateBaselineNoThreshold
 316:Generated_Source\PSoC4/CapSense_CSHL.c **** ********************************************************************************
 317:Generated_Source\PSoC4/CapSense_CSHL.c **** *
 318:Generated_Source\PSoC4/CapSense_CSHL.c **** * Summary:
 319:Generated_Source\PSoC4/CapSense_CSHL.c **** *  Updates the CapSense_sensorBaseline[sensor] array element using the
 320:Generated_Source\PSoC4/CapSense_CSHL.c **** *  LP filter with k = 256. The signal calculates the difference of count by
 321:Generated_Source\PSoC4/CapSense_CSHL.c **** *  subtracting the previous baseline from the current raw count value and stores
 322:Generated_Source\PSoC4/CapSense_CSHL.c **** *  it in CapSense_sensorSignal[sensor].
 323:Generated_Source\PSoC4/CapSense_CSHL.c **** *  If the auto reset option is enabled, the baseline updated regards the noise threshold.
 324:Generated_Source\PSoC4/CapSense_CSHL.c **** *  If the auto reset option is disabled, the baseline stops updating; baseline is loaded
 325:Generated_Source\PSoC4/CapSense_CSHL.c **** *  with a raw count value if a signal is greater than zero and if signal is less
 326:Generated_Source\PSoC4/CapSense_CSHL.c **** *  than noise threshold.
 327:Generated_Source\PSoC4/CapSense_CSHL.c **** *  Raw data filters are applied to the values if enabled before baseline
 328:Generated_Source\PSoC4/CapSense_CSHL.c **** *  calculation.
 329:Generated_Source\PSoC4/CapSense_CSHL.c **** *
 330:Generated_Source\PSoC4/CapSense_CSHL.c **** *  This API does not update the thresholds in the Smartsense Mode.
 331:Generated_Source\PSoC4/CapSense_CSHL.c **** *
 332:Generated_Source\PSoC4/CapSense_CSHL.c **** * Parameters:
 333:Generated_Source\PSoC4/CapSense_CSHL.c **** *  sensor:  Sensor number.
 334:Generated_Source\PSoC4/CapSense_CSHL.c **** *
 335:Generated_Source\PSoC4/CapSense_CSHL.c **** * Return:
 336:Generated_Source\PSoC4/CapSense_CSHL.c **** *  None
 337:Generated_Source\PSoC4/CapSense_CSHL.c **** *
 338:Generated_Source\PSoC4/CapSense_CSHL.c **** * Global Variables:
 339:Generated_Source\PSoC4/CapSense_CSHL.c **** *  CapSense_widgetNumber[]  - stores widget numbers.
 340:Generated_Source\PSoC4/CapSense_CSHL.c **** *  CapSense_sensorBaseline[]    - used to store baseline value.
 341:Generated_Source\PSoC4/CapSense_CSHL.c **** *  CapSense_sensorBaselineLow[] - used to store fraction byte of
 342:Generated_Source\PSoC4/CapSense_CSHL.c **** *  baseline value.
 343:Generated_Source\PSoC4/CapSense_CSHL.c **** *  CapSense_sensorSignal[]      - used to store difference between
 344:Generated_Source\PSoC4/CapSense_CSHL.c **** *  current value of raw data and previous value of baseline.
 345:Generated_Source\PSoC4/CapSense_CSHL.c **** *  CapSense_rawFilterData1[]    - used to store previous sample of
 346:Generated_Source\PSoC4/CapSense_CSHL.c **** *  any enabled raw data filter.
 347:Generated_Source\PSoC4/CapSense_CSHL.c **** *  CapSense_rawFilterData2[]    - used to store before previous sample
 348:Generated_Source\PSoC4/CapSense_CSHL.c **** *  of enabled raw data filter. Only required for median or average filters.
 349:Generated_Source\PSoC4/CapSense_CSHL.c **** *
 350:Generated_Source\PSoC4/CapSense_CSHL.c **** * Side Effects:
 351:Generated_Source\PSoC4/CapSense_CSHL.c **** *  None
 352:Generated_Source\PSoC4/CapSense_CSHL.c **** *
 353:Generated_Source\PSoC4/CapSense_CSHL.c **** *******************************************************************************/
 354:Generated_Source\PSoC4/CapSense_CSHL.c **** void CapSense_UpdateBaselineNoThreshold(uint32 sensor)
ARM GAS  C:\Users\SHOZO\AppData\Local\Temp\cc3BkmVy.s 			page 11


 355:Generated_Source\PSoC4/CapSense_CSHL.c **** {
 356:Generated_Source\PSoC4/CapSense_CSHL.c ****     uint32 calc;
 357:Generated_Source\PSoC4/CapSense_CSHL.c ****     uint32 sign;
 358:Generated_Source\PSoC4/CapSense_CSHL.c ****     uint16 tempRaw;
 359:Generated_Source\PSoC4/CapSense_CSHL.c ****     uint16 filteredRawData;
 360:Generated_Source\PSoC4/CapSense_CSHL.c ****     uint8 widget = CapSense_widgetNumber[sensor];
 361:Generated_Source\PSoC4/CapSense_CSHL.c ****     uint8 noiseThreshold;
 362:Generated_Source\PSoC4/CapSense_CSHL.c **** 
 363:Generated_Source\PSoC4/CapSense_CSHL.c ****     #if (CapSense_TOTAL_GENERICS_COUNT)
 364:Generated_Source\PSoC4/CapSense_CSHL.c ****         /* Exclude generic widget */
 365:Generated_Source\PSoC4/CapSense_CSHL.c ****         if(widget < CapSense_END_OF_WIDGETS_INDEX)
 366:Generated_Source\PSoC4/CapSense_CSHL.c ****         {
 367:Generated_Source\PSoC4/CapSense_CSHL.c ****     #endif  /* CapSense_TOTAL_GENERICS_COUNT */
 368:Generated_Source\PSoC4/CapSense_CSHL.c **** 
 369:Generated_Source\PSoC4/CapSense_CSHL.c ****     noiseThreshold = CapSense_noiseThreshold[widget];
 370:Generated_Source\PSoC4/CapSense_CSHL.c ****     filteredRawData = CapSense_sensorRaw[sensor];
 371:Generated_Source\PSoC4/CapSense_CSHL.c **** 
 372:Generated_Source\PSoC4/CapSense_CSHL.c ****     #if (CapSense_RAW_FILTER_MASK != 0u)
 373:Generated_Source\PSoC4/CapSense_CSHL.c ****     if(CapSense_enableRawFilters != 0u)
 374:Generated_Source\PSoC4/CapSense_CSHL.c ****     {
 375:Generated_Source\PSoC4/CapSense_CSHL.c ****         #if (CapSense_RAW_FILTER_MASK & CapSense_MEDIAN_FILTER)
 376:Generated_Source\PSoC4/CapSense_CSHL.c ****             tempRaw = filteredRawData;
 377:Generated_Source\PSoC4/CapSense_CSHL.c ****             filteredRawData = CapSense_MedianFilter(filteredRawData, CapSense_rawFilterData1[sensor
 378:Generated_Source\PSoC4/CapSense_CSHL.c ****                                                             CapSense_rawFilterData2[sensor]);
 379:Generated_Source\PSoC4/CapSense_CSHL.c ****             CapSense_rawFilterData2[sensor] = CapSense_rawFilterData1[sensor];
 380:Generated_Source\PSoC4/CapSense_CSHL.c ****             CapSense_rawFilterData1[sensor] = tempRaw;
 381:Generated_Source\PSoC4/CapSense_CSHL.c **** 
 382:Generated_Source\PSoC4/CapSense_CSHL.c ****         #elif (CapSense_RAW_FILTER_MASK & CapSense_AVERAGING_FILTER)
 383:Generated_Source\PSoC4/CapSense_CSHL.c ****             tempRaw = filteredRawData;
 384:Generated_Source\PSoC4/CapSense_CSHL.c ****             filteredRawData = CapSense_AveragingFilter(filteredRawData, CapSense_rawFilterData1[sen
 385:Generated_Source\PSoC4/CapSense_CSHL.c ****                                                                CapSense_rawFilterData2[sensor]);
 386:Generated_Source\PSoC4/CapSense_CSHL.c ****             CapSense_rawFilterData2[sensor] = CapSense_rawFilterData1[sensor];
 387:Generated_Source\PSoC4/CapSense_CSHL.c ****             CapSense_rawFilterData1[sensor] = tempRaw;
 388:Generated_Source\PSoC4/CapSense_CSHL.c **** 
 389:Generated_Source\PSoC4/CapSense_CSHL.c ****         #elif (CapSense_RAW_FILTER_MASK & CapSense_IIR2_FILTER)
 390:Generated_Source\PSoC4/CapSense_CSHL.c ****             filteredRawData = CapSense_IIR2Filter(filteredRawData, CapSense_rawFilterData1[sensor])
 391:Generated_Source\PSoC4/CapSense_CSHL.c ****             CapSense_rawFilterData1[sensor] = filteredRawData;
 392:Generated_Source\PSoC4/CapSense_CSHL.c **** 
 393:Generated_Source\PSoC4/CapSense_CSHL.c ****         #elif (CapSense_RAW_FILTER_MASK & CapSense_IIR4_FILTER)
 394:Generated_Source\PSoC4/CapSense_CSHL.c ****             filteredRawData = CapSense_IIR4Filter(filteredRawData, CapSense_rawFilterData1[sensor])
 395:Generated_Source\PSoC4/CapSense_CSHL.c ****             CapSense_rawFilterData1[sensor] = filteredRawData;
 396:Generated_Source\PSoC4/CapSense_CSHL.c **** 
 397:Generated_Source\PSoC4/CapSense_CSHL.c ****         #elif (CapSense_RAW_FILTER_MASK & CapSense_JITTER_FILTER)
 398:Generated_Source\PSoC4/CapSense_CSHL.c ****             filteredRawData = CapSense_JitterFilter(filteredRawData, CapSense_rawFilterData1[sensor
 399:Generated_Source\PSoC4/CapSense_CSHL.c ****             CapSense_rawFilterData1[sensor] = filteredRawData;
 400:Generated_Source\PSoC4/CapSense_CSHL.c **** 
 401:Generated_Source\PSoC4/CapSense_CSHL.c ****         #elif (CapSense_RAW_FILTER_MASK & CapSense_IIR8_FILTER)
 402:Generated_Source\PSoC4/CapSense_CSHL.c ****             filteredRawData = CapSense_IIR8Filter(filteredRawData, CapSense_rawFilterData1[sensor])
 403:Generated_Source\PSoC4/CapSense_CSHL.c ****             CapSense_rawFilterData1[sensor] = filteredRawData;
 404:Generated_Source\PSoC4/CapSense_CSHL.c **** 
 405:Generated_Source\PSoC4/CapSense_CSHL.c ****         #elif (CapSense_RAW_FILTER_MASK & CapSense_IIR16_FILTER)
 406:Generated_Source\PSoC4/CapSense_CSHL.c ****             filteredRawData = CapSense_IIR16Filter(filteredRawData, CapSense_rawFilterData1[sensor]
 407:Generated_Source\PSoC4/CapSense_CSHL.c ****             CapSense_rawFilterData1[sensor] = filteredRawData;
 408:Generated_Source\PSoC4/CapSense_CSHL.c **** 
 409:Generated_Source\PSoC4/CapSense_CSHL.c ****         #else
 410:Generated_Source\PSoC4/CapSense_CSHL.c ****             /* No Raw filters */
 411:Generated_Source\PSoC4/CapSense_CSHL.c ****         #endif  /* (CapSense_RAW_FILTER_MASK & CapSense_MEDIAN_FILTER) */
ARM GAS  C:\Users\SHOZO\AppData\Local\Temp\cc3BkmVy.s 			page 12


 412:Generated_Source\PSoC4/CapSense_CSHL.c ****     }
 413:Generated_Source\PSoC4/CapSense_CSHL.c ****     #endif  /* (CapSense_RAW_FILTER_MASK != 0u) */
 414:Generated_Source\PSoC4/CapSense_CSHL.c **** 
 415:Generated_Source\PSoC4/CapSense_CSHL.c ****     #if (CapSense_TUNING_METHOD == CapSense__TUNING_AUTO)
 416:Generated_Source\PSoC4/CapSense_CSHL.c ****         MeasureNoiseEnvelope_P4_v2_60(&CapSense_config, (uint8)sensor, CapSense_sensorRaw);
 417:Generated_Source\PSoC4/CapSense_CSHL.c ****     #endif /* (CapSense_TUNING_METHOD == CapSense__TUNING_AUTO) */
 418:Generated_Source\PSoC4/CapSense_CSHL.c **** 
 419:Generated_Source\PSoC4/CapSense_CSHL.c ****     /* Baseline calculation */
 420:Generated_Source\PSoC4/CapSense_CSHL.c ****     /* Calculate difference RawData[cur] - Baseline[prev] */
 421:Generated_Source\PSoC4/CapSense_CSHL.c ****     if(filteredRawData >= CapSense_sensorBaseline[sensor])
 422:Generated_Source\PSoC4/CapSense_CSHL.c ****     {
 423:Generated_Source\PSoC4/CapSense_CSHL.c ****         CapSense_lowBaselineResetCnt[sensor] = 0u;
 424:Generated_Source\PSoC4/CapSense_CSHL.c ****         tempRaw = filteredRawData - CapSense_sensorBaseline[sensor];
 425:Generated_Source\PSoC4/CapSense_CSHL.c ****         sign = 1u;    /* Positive difference - Calculate the Signal */
 426:Generated_Source\PSoC4/CapSense_CSHL.c ****     }
 427:Generated_Source\PSoC4/CapSense_CSHL.c ****     else
 428:Generated_Source\PSoC4/CapSense_CSHL.c ****     {
 429:Generated_Source\PSoC4/CapSense_CSHL.c ****         tempRaw = CapSense_sensorBaseline[sensor] - filteredRawData;
 430:Generated_Source\PSoC4/CapSense_CSHL.c ****         sign = 0u;    /* Negative difference - Do NOT calculate the Signal */
 431:Generated_Source\PSoC4/CapSense_CSHL.c ****     }
 432:Generated_Source\PSoC4/CapSense_CSHL.c **** 
 433:Generated_Source\PSoC4/CapSense_CSHL.c ****     #if (CapSense_TUNING_METHOD != CapSense__TUNING_NONE)
 434:Generated_Source\PSoC4/CapSense_CSHL.c ****     if((sign == 0u) && (tempRaw > (uint16) CapSense_negativeNoiseThreshold[widget]))
 435:Generated_Source\PSoC4/CapSense_CSHL.c ****     #else
 436:Generated_Source\PSoC4/CapSense_CSHL.c ****     if((sign == 0u) && (tempRaw > (uint16) CapSense_NEGATIVE_NOISE_THRESHOLD))
 437:Generated_Source\PSoC4/CapSense_CSHL.c ****     #endif /* (CapSense_TUNING_METHOD != CapSense__TUNING_NONE) */
 438:Generated_Source\PSoC4/CapSense_CSHL.c ****     {
 439:Generated_Source\PSoC4/CapSense_CSHL.c ****         if(CapSense_lowBaselineResetCnt[sensor] >= CapSense_lowBaselineReset[sensor])
 440:Generated_Source\PSoC4/CapSense_CSHL.c ****         {
 441:Generated_Source\PSoC4/CapSense_CSHL.c ****             CapSense_BaseInit(sensor);
 442:Generated_Source\PSoC4/CapSense_CSHL.c ****             CapSense_lowBaselineResetCnt[sensor] = 0u;
 443:Generated_Source\PSoC4/CapSense_CSHL.c ****         }
 444:Generated_Source\PSoC4/CapSense_CSHL.c ****         else
 445:Generated_Source\PSoC4/CapSense_CSHL.c ****         {
 446:Generated_Source\PSoC4/CapSense_CSHL.c ****             CapSense_lowBaselineResetCnt[sensor]++;
 447:Generated_Source\PSoC4/CapSense_CSHL.c ****         }
 448:Generated_Source\PSoC4/CapSense_CSHL.c ****     }
 449:Generated_Source\PSoC4/CapSense_CSHL.c ****     else
 450:Generated_Source\PSoC4/CapSense_CSHL.c ****     {
 451:Generated_Source\PSoC4/CapSense_CSHL.c ****         #if (CapSense_AUTO_RESET == CapSense_AUTO_RESET_DISABLE)
 452:Generated_Source\PSoC4/CapSense_CSHL.c ****         #if (CapSense_TUNING_METHOD != CapSense__TUNING_NONE)
 453:Generated_Source\PSoC4/CapSense_CSHL.c ****             /* Update Baseline if lower than noiseThreshold */
 454:Generated_Source\PSoC4/CapSense_CSHL.c ****             if ( (tempRaw <= noiseThreshold) ||
 455:Generated_Source\PSoC4/CapSense_CSHL.c ****              ((tempRaw < (uint16) CapSense_negativeNoiseThreshold[widget])
 456:Generated_Source\PSoC4/CapSense_CSHL.c ****                && (sign == 0u)))
 457:Generated_Source\PSoC4/CapSense_CSHL.c ****             {
 458:Generated_Source\PSoC4/CapSense_CSHL.c ****         #else
 459:Generated_Source\PSoC4/CapSense_CSHL.c ****             /* Update Baseline if lower than noiseThreshold */
 460:Generated_Source\PSoC4/CapSense_CSHL.c ****             if ( (tempRaw <= noiseThreshold) ||
 461:Generated_Source\PSoC4/CapSense_CSHL.c ****                  ((tempRaw < (uint16) CapSense_NEGATIVE_NOISE_THRESHOLD)
 462:Generated_Source\PSoC4/CapSense_CSHL.c ****                    && (sign == 0u)))
 463:Generated_Source\PSoC4/CapSense_CSHL.c ****             {
 464:Generated_Source\PSoC4/CapSense_CSHL.c ****         #endif /* (CapSense_TUNING_METHOD != CapSense__TUNING_NONE) */
 465:Generated_Source\PSoC4/CapSense_CSHL.c ****         #endif /* (CapSense_AUTO_RESET == CapSense_AUTO_RESET_DISABLE) */
 466:Generated_Source\PSoC4/CapSense_CSHL.c ****                 /* Make full Baseline 23 bits */
 467:Generated_Source\PSoC4/CapSense_CSHL.c ****                 calc = (uint32) CapSense_sensorBaseline[sensor] << 8u;
 468:Generated_Source\PSoC4/CapSense_CSHL.c ****                 calc |= (uint32) CapSense_sensorBaselineLow[sensor];
ARM GAS  C:\Users\SHOZO\AppData\Local\Temp\cc3BkmVy.s 			page 13


 469:Generated_Source\PSoC4/CapSense_CSHL.c **** 
 470:Generated_Source\PSoC4/CapSense_CSHL.c ****                 /* Add Raw Data to Baseline */
 471:Generated_Source\PSoC4/CapSense_CSHL.c ****                 calc += filteredRawData;
 472:Generated_Source\PSoC4/CapSense_CSHL.c **** 
 473:Generated_Source\PSoC4/CapSense_CSHL.c ****                 /* Sub the high Baseline */
 474:Generated_Source\PSoC4/CapSense_CSHL.c ****                 calc -= CapSense_sensorBaseline[sensor];
 475:Generated_Source\PSoC4/CapSense_CSHL.c **** 
 476:Generated_Source\PSoC4/CapSense_CSHL.c ****                 /* Put Baseline and BaselineLow */
 477:Generated_Source\PSoC4/CapSense_CSHL.c ****                 CapSense_sensorBaseline[sensor] = ((uint16) (calc >> 8u));
 478:Generated_Source\PSoC4/CapSense_CSHL.c ****                 CapSense_sensorBaselineLow[sensor] = ((uint8) calc);
 479:Generated_Source\PSoC4/CapSense_CSHL.c **** 
 480:Generated_Source\PSoC4/CapSense_CSHL.c ****                 CapSense_lowBaselineResetCnt[sensor] = 0u;
 481:Generated_Source\PSoC4/CapSense_CSHL.c ****         #if (CapSense_AUTO_RESET == CapSense_AUTO_RESET_DISABLE)
 482:Generated_Source\PSoC4/CapSense_CSHL.c ****             }
 483:Generated_Source\PSoC4/CapSense_CSHL.c ****         #endif /* (CapSense_AUTO_RESET == CapSense_AUTO_RESET_DISABLE) */
 484:Generated_Source\PSoC4/CapSense_CSHL.c ****     }
 485:Generated_Source\PSoC4/CapSense_CSHL.c **** 
 486:Generated_Source\PSoC4/CapSense_CSHL.c ****     /* Calculate Signal if positive difference > noiseThreshold */
 487:Generated_Source\PSoC4/CapSense_CSHL.c ****     if((tempRaw > (uint16) noiseThreshold) && (sign != 0u))
 488:Generated_Source\PSoC4/CapSense_CSHL.c ****     {
 489:Generated_Source\PSoC4/CapSense_CSHL.c ****         #if (CapSense_SIGNAL_SIZE == CapSense_SIGNAL_SIZE_UINT8)
 490:Generated_Source\PSoC4/CapSense_CSHL.c ****             /* Over flow defence for uint8 */
 491:Generated_Source\PSoC4/CapSense_CSHL.c ****             if (tempRaw > 0xFFu)
 492:Generated_Source\PSoC4/CapSense_CSHL.c ****             {
 493:Generated_Source\PSoC4/CapSense_CSHL.c ****                 CapSense_sensorSignal[sensor] = 0xFFu;
 494:Generated_Source\PSoC4/CapSense_CSHL.c ****             }
 495:Generated_Source\PSoC4/CapSense_CSHL.c ****             else
 496:Generated_Source\PSoC4/CapSense_CSHL.c ****             {
 497:Generated_Source\PSoC4/CapSense_CSHL.c ****                 CapSense_sensorSignal[sensor] = ((uint8) tempRaw);
 498:Generated_Source\PSoC4/CapSense_CSHL.c ****             }
 499:Generated_Source\PSoC4/CapSense_CSHL.c ****         #else
 500:Generated_Source\PSoC4/CapSense_CSHL.c ****             CapSense_sensorSignal[sensor] = ((uint16) tempRaw);
 501:Generated_Source\PSoC4/CapSense_CSHL.c ****         #endif  /* (CapSense_SIGNAL_SIZE == CapSense_SIGNAL_SIZE_UINT8) */
 502:Generated_Source\PSoC4/CapSense_CSHL.c ****     }
 503:Generated_Source\PSoC4/CapSense_CSHL.c ****     else
 504:Generated_Source\PSoC4/CapSense_CSHL.c ****     {
 505:Generated_Source\PSoC4/CapSense_CSHL.c ****         /* Signal is zero */
 506:Generated_Source\PSoC4/CapSense_CSHL.c ****         CapSense_sensorSignal[sensor] = 0u;
 507:Generated_Source\PSoC4/CapSense_CSHL.c ****     }
 508:Generated_Source\PSoC4/CapSense_CSHL.c **** 
 509:Generated_Source\PSoC4/CapSense_CSHL.c ****     #if (CapSense_TOTAL_GENERICS_COUNT)
 510:Generated_Source\PSoC4/CapSense_CSHL.c ****         /* Exclude generic widget */
 511:Generated_Source\PSoC4/CapSense_CSHL.c ****         }
 512:Generated_Source\PSoC4/CapSense_CSHL.c ****     #endif  /* CapSense_TOTAL_GENERICS_COUNT */
 513:Generated_Source\PSoC4/CapSense_CSHL.c **** }
 514:Generated_Source\PSoC4/CapSense_CSHL.c **** 
 515:Generated_Source\PSoC4/CapSense_CSHL.c **** 
 516:Generated_Source\PSoC4/CapSense_CSHL.c **** /*******************************************************************************
 517:Generated_Source\PSoC4/CapSense_CSHL.c **** * Function Name: CapSense_UpdateSensorBaseline
 518:Generated_Source\PSoC4/CapSense_CSHL.c **** ********************************************************************************
 519:Generated_Source\PSoC4/CapSense_CSHL.c **** *
 520:Generated_Source\PSoC4/CapSense_CSHL.c **** * Summary:
 521:Generated_Source\PSoC4/CapSense_CSHL.c **** *  Updates the CapSense_sensorBaseline[sensor] array element using the
 522:Generated_Source\PSoC4/CapSense_CSHL.c **** *  LP filter with k = 256. The signal calculates the difference of count by
 523:Generated_Source\PSoC4/CapSense_CSHL.c **** *  subtracting the previous baseline from the current raw count value and stores
 524:Generated_Source\PSoC4/CapSense_CSHL.c **** *  it in CapSense_sensorSignal[sensor].
 525:Generated_Source\PSoC4/CapSense_CSHL.c **** *  If the auto reset option is enabled, the baseline updated regards the noise threshold.
ARM GAS  C:\Users\SHOZO\AppData\Local\Temp\cc3BkmVy.s 			page 14


 526:Generated_Source\PSoC4/CapSense_CSHL.c **** *  If the auto reset option is disabled, the baseline stops updating.
 527:Generated_Source\PSoC4/CapSense_CSHL.c **** *  Baseline is loaded with raw count value if a signal is greater than zero and
 528:Generated_Source\PSoC4/CapSense_CSHL.c **** *  if signal is less than noise threshold.
 529:Generated_Source\PSoC4/CapSense_CSHL.c **** *  Raw data filters are applied to the values if enabled before baseline
 530:Generated_Source\PSoC4/CapSense_CSHL.c **** *  calculation.
 531:Generated_Source\PSoC4/CapSense_CSHL.c **** *  This API updates the thresholds in the Smartsense Mode.
 532:Generated_Source\PSoC4/CapSense_CSHL.c **** *
 533:Generated_Source\PSoC4/CapSense_CSHL.c **** * Parameters:
 534:Generated_Source\PSoC4/CapSense_CSHL.c **** *  sensor:  Sensor number.
 535:Generated_Source\PSoC4/CapSense_CSHL.c **** *
 536:Generated_Source\PSoC4/CapSense_CSHL.c **** * Return:
 537:Generated_Source\PSoC4/CapSense_CSHL.c **** *  None
 538:Generated_Source\PSoC4/CapSense_CSHL.c **** *
 539:Generated_Source\PSoC4/CapSense_CSHL.c **** * Global Variables:
 540:Generated_Source\PSoC4/CapSense_CSHL.c **** *  CapSense_widgetNumber[]  - stores widget numbers.
 541:Generated_Source\PSoC4/CapSense_CSHL.c **** *
 542:Generated_Source\PSoC4/CapSense_CSHL.c **** * Side Effects:
 543:Generated_Source\PSoC4/CapSense_CSHL.c **** *  None
 544:Generated_Source\PSoC4/CapSense_CSHL.c **** *
 545:Generated_Source\PSoC4/CapSense_CSHL.c **** *******************************************************************************/
 546:Generated_Source\PSoC4/CapSense_CSHL.c ****  void CapSense_UpdateSensorBaseline(uint32 sensor)
 547:Generated_Source\PSoC4/CapSense_CSHL.c **** {
 548:Generated_Source\PSoC4/CapSense_CSHL.c ****     #if (CapSense_TOTAL_GENERICS_COUNT)
 549:Generated_Source\PSoC4/CapSense_CSHL.c ****         uint32 widget;
 550:Generated_Source\PSoC4/CapSense_CSHL.c **** 
 551:Generated_Source\PSoC4/CapSense_CSHL.c ****         widget = CapSense_widgetNumber[sensor];
 552:Generated_Source\PSoC4/CapSense_CSHL.c **** 
 553:Generated_Source\PSoC4/CapSense_CSHL.c ****         /* Exclude generic widget */
 554:Generated_Source\PSoC4/CapSense_CSHL.c ****         if(widget < CapSense_END_OF_WIDGETS_INDEX)
 555:Generated_Source\PSoC4/CapSense_CSHL.c ****         {
 556:Generated_Source\PSoC4/CapSense_CSHL.c ****     #endif  /* CapSense_TOTAL_GENERICS_COUNT */
 557:Generated_Source\PSoC4/CapSense_CSHL.c **** 
 558:Generated_Source\PSoC4/CapSense_CSHL.c ****     #if (CapSense_TUNING_METHOD == CapSense__TUNING_AUTO)
 559:Generated_Source\PSoC4/CapSense_CSHL.c ****         CapSense_UpdateThresholds(sensor);
 560:Generated_Source\PSoC4/CapSense_CSHL.c ****     #endif /* (CapSense_TUNING_METHOD == CapSense__TUNING_AUTO) */
 561:Generated_Source\PSoC4/CapSense_CSHL.c **** 
 562:Generated_Source\PSoC4/CapSense_CSHL.c ****     CapSense_UpdateBaselineNoThreshold(sensor);
 563:Generated_Source\PSoC4/CapSense_CSHL.c **** 
 564:Generated_Source\PSoC4/CapSense_CSHL.c ****     #if (CapSense_TOTAL_GENERICS_COUNT)
 565:Generated_Source\PSoC4/CapSense_CSHL.c ****         /* Exclude generic widget */
 566:Generated_Source\PSoC4/CapSense_CSHL.c ****         }
 567:Generated_Source\PSoC4/CapSense_CSHL.c ****     #endif  /* CapSense_TOTAL_GENERICS_COUNT */
 568:Generated_Source\PSoC4/CapSense_CSHL.c **** }
 569:Generated_Source\PSoC4/CapSense_CSHL.c **** 
 570:Generated_Source\PSoC4/CapSense_CSHL.c **** 
 571:Generated_Source\PSoC4/CapSense_CSHL.c **** /*******************************************************************************
 572:Generated_Source\PSoC4/CapSense_CSHL.c **** * Function Name: CapSense_UpdateEnabledBaselines
 573:Generated_Source\PSoC4/CapSense_CSHL.c **** ********************************************************************************
 574:Generated_Source\PSoC4/CapSense_CSHL.c **** *
 575:Generated_Source\PSoC4/CapSense_CSHL.c **** * Summary:
 576:Generated_Source\PSoC4/CapSense_CSHL.c **** *  Checks CapSense_sensorEnableMask[] array and calls the
 577:Generated_Source\PSoC4/CapSense_CSHL.c **** *  CapSense_UpdateSensorBaseline function to update the baselines
 578:Generated_Source\PSoC4/CapSense_CSHL.c **** *  for the enabled sensors.
 579:Generated_Source\PSoC4/CapSense_CSHL.c **** *
 580:Generated_Source\PSoC4/CapSense_CSHL.c **** * Parameters:
 581:Generated_Source\PSoC4/CapSense_CSHL.c **** *  None
 582:Generated_Source\PSoC4/CapSense_CSHL.c **** *
ARM GAS  C:\Users\SHOZO\AppData\Local\Temp\cc3BkmVy.s 			page 15


 583:Generated_Source\PSoC4/CapSense_CSHL.c **** * Return:
 584:Generated_Source\PSoC4/CapSense_CSHL.c **** *  None
 585:Generated_Source\PSoC4/CapSense_CSHL.c **** *
 586:Generated_Source\PSoC4/CapSense_CSHL.c **** * Global Variables:
 587:Generated_Source\PSoC4/CapSense_CSHL.c **** *  CapSense_sensorEnableMask[] - used to store the sensor scanning
 588:Generated_Source\PSoC4/CapSense_CSHL.c **** *  state.
 589:Generated_Source\PSoC4/CapSense_CSHL.c **** *  CapSense_sensorEnableMask[0] contains the masked bits for sensors
 590:Generated_Source\PSoC4/CapSense_CSHL.c **** *   0 through 7 (sensor 0 is bit 0, sensor 1 is bit 1).
 591:Generated_Source\PSoC4/CapSense_CSHL.c **** *  CapSense_sensorEnableMask[1] contains the masked bits for
 592:Generated_Source\PSoC4/CapSense_CSHL.c **** *  sensors 8 through 15 (if needed), and so on.
 593:Generated_Source\PSoC4/CapSense_CSHL.c **** *  0 - sensor doesn't scan by CapSense_ScanEnabledWidgets().
 594:Generated_Source\PSoC4/CapSense_CSHL.c **** *  1 - sensor scans by CapSense_ScanEnabledWidgets().
 595:Generated_Source\PSoC4/CapSense_CSHL.c **** *
 596:Generated_Source\PSoC4/CapSense_CSHL.c **** * Side Effects:
 597:Generated_Source\PSoC4/CapSense_CSHL.c **** *  None
 598:Generated_Source\PSoC4/CapSense_CSHL.c **** *
 599:Generated_Source\PSoC4/CapSense_CSHL.c **** *******************************************************************************/
 600:Generated_Source\PSoC4/CapSense_CSHL.c ****  void CapSense_UpdateEnabledBaselines(void)
 601:Generated_Source\PSoC4/CapSense_CSHL.c **** {
 602:Generated_Source\PSoC4/CapSense_CSHL.c ****     uint32 i;
 603:Generated_Source\PSoC4/CapSense_CSHL.c ****     uint32 isSensorEnabled;
 604:Generated_Source\PSoC4/CapSense_CSHL.c **** 
 605:Generated_Source\PSoC4/CapSense_CSHL.c ****     for(i = 0u; i < CapSense_TOTAL_SENSOR_COUNT; i++)
 606:Generated_Source\PSoC4/CapSense_CSHL.c ****     {
 607:Generated_Source\PSoC4/CapSense_CSHL.c ****         isSensorEnabled = CapSense_GetBitValue(CapSense_sensorEnableMask, i);
 608:Generated_Source\PSoC4/CapSense_CSHL.c **** 
 609:Generated_Source\PSoC4/CapSense_CSHL.c ****         if(0u != isSensorEnabled)
 610:Generated_Source\PSoC4/CapSense_CSHL.c ****         {
 611:Generated_Source\PSoC4/CapSense_CSHL.c ****             CapSense_UpdateSensorBaseline(i);
 612:Generated_Source\PSoC4/CapSense_CSHL.c ****         }
 613:Generated_Source\PSoC4/CapSense_CSHL.c ****     }
 614:Generated_Source\PSoC4/CapSense_CSHL.c **** }
 615:Generated_Source\PSoC4/CapSense_CSHL.c **** 
 616:Generated_Source\PSoC4/CapSense_CSHL.c **** /*******************************************************************************
 617:Generated_Source\PSoC4/CapSense_CSHL.c **** * Function Name: CapSense_UpdateWidgetBaseline
 618:Generated_Source\PSoC4/CapSense_CSHL.c **** ********************************************************************************
 619:Generated_Source\PSoC4/CapSense_CSHL.c **** *
 620:Generated_Source\PSoC4/CapSense_CSHL.c **** * Summary:
 621:Generated_Source\PSoC4/CapSense_CSHL.c **** *  Checks CapSense_sensorEnableMask[] array and calls the
 622:Generated_Source\PSoC4/CapSense_CSHL.c **** *  CapSense_UpdateSensorBaseline function to update the baselines
 623:Generated_Source\PSoC4/CapSense_CSHL.c **** *  for the enabled sensors that belong to widget.
 624:Generated_Source\PSoC4/CapSense_CSHL.c **** *
 625:Generated_Source\PSoC4/CapSense_CSHL.c **** * Parameters:
 626:Generated_Source\PSoC4/CapSense_CSHL.c **** *  widget:  Widget number.
 627:Generated_Source\PSoC4/CapSense_CSHL.c **** *
 628:Generated_Source\PSoC4/CapSense_CSHL.c **** * Return:
 629:Generated_Source\PSoC4/CapSense_CSHL.c **** *  None
 630:Generated_Source\PSoC4/CapSense_CSHL.c **** *
 631:Generated_Source\PSoC4/CapSense_CSHL.c **** * Global Variables:
 632:Generated_Source\PSoC4/CapSense_CSHL.c **** *  CapSense_sensorEnableMask[] - used to store the sensor scanning
 633:Generated_Source\PSoC4/CapSense_CSHL.c **** *  state.
 634:Generated_Source\PSoC4/CapSense_CSHL.c **** *  CapSense_sensorEnableMask[0] contains the masked bits for sensors
 635:Generated_Source\PSoC4/CapSense_CSHL.c **** *   0 through 7 (sensor 0 is bit 0, sensor 1 is bit 1).
 636:Generated_Source\PSoC4/CapSense_CSHL.c **** *  CapSense_sensorEnableMask[1] contains the masked bits for
 637:Generated_Source\PSoC4/CapSense_CSHL.c **** *  sensors 8 through 15 (if needed), and so on.
 638:Generated_Source\PSoC4/CapSense_CSHL.c **** *  0 - sensor doesn't scan by CapSense_ScanEnabledWidgets().
 639:Generated_Source\PSoC4/CapSense_CSHL.c **** *  1 - sensor scans by CapSense_ScanEnabledWidgets().
ARM GAS  C:\Users\SHOZO\AppData\Local\Temp\cc3BkmVy.s 			page 16


 640:Generated_Source\PSoC4/CapSense_CSHL.c **** *
 641:Generated_Source\PSoC4/CapSense_CSHL.c **** * Side Effects:
 642:Generated_Source\PSoC4/CapSense_CSHL.c **** *  None
 643:Generated_Source\PSoC4/CapSense_CSHL.c **** *
 644:Generated_Source\PSoC4/CapSense_CSHL.c **** *******************************************************************************/
 645:Generated_Source\PSoC4/CapSense_CSHL.c **** void CapSense_UpdateWidgetBaseline(uint32 widget)
 646:Generated_Source\PSoC4/CapSense_CSHL.c **** {
 647:Generated_Source\PSoC4/CapSense_CSHL.c ****     uint32 sensorsPerWidget;
 648:Generated_Source\PSoC4/CapSense_CSHL.c ****     uint32 firstSensor;
 649:Generated_Source\PSoC4/CapSense_CSHL.c ****     uint32 lastSensor;
 650:Generated_Source\PSoC4/CapSense_CSHL.c ****     uint32 i;
 651:Generated_Source\PSoC4/CapSense_CSHL.c ****     uint32 isSensorEnabled;
 652:Generated_Source\PSoC4/CapSense_CSHL.c **** 
 653:Generated_Source\PSoC4/CapSense_CSHL.c ****     /* Get number of sensors in widget */
 654:Generated_Source\PSoC4/CapSense_CSHL.c ****     sensorsPerWidget = CapSense_numberOfSensors[widget];
 655:Generated_Source\PSoC4/CapSense_CSHL.c **** 
 656:Generated_Source\PSoC4/CapSense_CSHL.c ****     /* Get first sensor in widget */
 657:Generated_Source\PSoC4/CapSense_CSHL.c ****     firstSensor = CapSense_rawDataIndex[widget];
 658:Generated_Source\PSoC4/CapSense_CSHL.c **** 
 659:Generated_Source\PSoC4/CapSense_CSHL.c ****     /* Get last sensor in widget */
 660:Generated_Source\PSoC4/CapSense_CSHL.c ****     lastSensor = (CapSense_rawDataIndex[widget] + sensorsPerWidget);
 661:Generated_Source\PSoC4/CapSense_CSHL.c **** 
 662:Generated_Source\PSoC4/CapSense_CSHL.c ****     for(i = firstSensor; i < lastSensor; i++)
 663:Generated_Source\PSoC4/CapSense_CSHL.c ****     {
 664:Generated_Source\PSoC4/CapSense_CSHL.c ****         isSensorEnabled = CapSense_GetBitValue(CapSense_sensorEnableMask, i);
 665:Generated_Source\PSoC4/CapSense_CSHL.c **** 
 666:Generated_Source\PSoC4/CapSense_CSHL.c ****         if(0u != isSensorEnabled)
 667:Generated_Source\PSoC4/CapSense_CSHL.c ****         {
 668:Generated_Source\PSoC4/CapSense_CSHL.c ****             CapSense_UpdateSensorBaseline(i);
 669:Generated_Source\PSoC4/CapSense_CSHL.c ****         }
 670:Generated_Source\PSoC4/CapSense_CSHL.c ****     }
 671:Generated_Source\PSoC4/CapSense_CSHL.c **** }
 672:Generated_Source\PSoC4/CapSense_CSHL.c **** 
 673:Generated_Source\PSoC4/CapSense_CSHL.c **** 
 674:Generated_Source\PSoC4/CapSense_CSHL.c **** /*******************************************************************************
 675:Generated_Source\PSoC4/CapSense_CSHL.c **** * Function Name: CapSense_GetBaselineData
 676:Generated_Source\PSoC4/CapSense_CSHL.c **** ********************************************************************************
 677:Generated_Source\PSoC4/CapSense_CSHL.c **** *
 678:Generated_Source\PSoC4/CapSense_CSHL.c **** * Summary:
 679:Generated_Source\PSoC4/CapSense_CSHL.c **** *  This function reads the sensor baseline from the component.
 680:Generated_Source\PSoC4/CapSense_CSHL.c **** *
 681:Generated_Source\PSoC4/CapSense_CSHL.c **** * Parameters:
 682:Generated_Source\PSoC4/CapSense_CSHL.c **** *  sensor:  Sensor number.
 683:Generated_Source\PSoC4/CapSense_CSHL.c **** *
 684:Generated_Source\PSoC4/CapSense_CSHL.c **** * Return:
 685:Generated_Source\PSoC4/CapSense_CSHL.c **** *  This API returns the baseline value of the sensor indicated by an argument.
 686:Generated_Source\PSoC4/CapSense_CSHL.c **** *
 687:Generated_Source\PSoC4/CapSense_CSHL.c **** * Global Variables:
 688:Generated_Source\PSoC4/CapSense_CSHL.c **** *  CapSense_sensorBaseline[] - the array with an initial values by scanning
 689:Generated_Source\PSoC4/CapSense_CSHL.c **** *
 690:Generated_Source\PSoC4/CapSense_CSHL.c **** * Side Effects:
 691:Generated_Source\PSoC4/CapSense_CSHL.c **** *  None
 692:Generated_Source\PSoC4/CapSense_CSHL.c **** *
 693:Generated_Source\PSoC4/CapSense_CSHL.c **** *******************************************************************************/
 694:Generated_Source\PSoC4/CapSense_CSHL.c **** uint16 CapSense_GetBaselineData(uint32 sensor)
 695:Generated_Source\PSoC4/CapSense_CSHL.c **** {
 213              		.loc 1 695 0
ARM GAS  C:\Users\SHOZO\AppData\Local\Temp\cc3BkmVy.s 			page 17


 214              		.cfi_startproc
 215              		@ args = 0, pretend = 0, frame = 0
 216              		@ frame_needed = 0, uses_anonymous_args = 0
 217              		@ link register save eliminated.
 218              	.LVL20:
 696:Generated_Source\PSoC4/CapSense_CSHL.c ****     return (CapSense_sensorBaseline[sensor]);
 219              		.loc 1 696 0
 220 0000 4000     		lsls	r0, r0, #1
 221              	.LVL21:
 222 0002 014B     		ldr	r3, .L17
 223 0004 185A     		ldrh	r0, [r3, r0]
 697:Generated_Source\PSoC4/CapSense_CSHL.c **** }
 224              		.loc 1 697 0
 225              		@ sp needed
 226 0006 7047     		bx	lr
 227              	.L18:
 228              		.align	2
 229              	.L17:
 230 0008 00000000 		.word	.LANCHOR0
 231              		.cfi_endproc
 232              	.LFE40:
 233              		.size	CapSense_GetBaselineData, .-CapSense_GetBaselineData
 234              		.section	.text.CapSense_SetBaselineData,"ax",%progbits
 235              		.align	2
 236              		.global	CapSense_SetBaselineData
 237              		.code	16
 238              		.thumb_func
 239              		.type	CapSense_SetBaselineData, %function
 240              	CapSense_SetBaselineData:
 241              	.LFB41:
 698:Generated_Source\PSoC4/CapSense_CSHL.c **** 
 699:Generated_Source\PSoC4/CapSense_CSHL.c **** 
 700:Generated_Source\PSoC4/CapSense_CSHL.c **** /*******************************************************************************
 701:Generated_Source\PSoC4/CapSense_CSHL.c **** * Function Name: CapSense_SetBaselineData
 702:Generated_Source\PSoC4/CapSense_CSHL.c **** ********************************************************************************
 703:Generated_Source\PSoC4/CapSense_CSHL.c **** *
 704:Generated_Source\PSoC4/CapSense_CSHL.c **** * Summary:
 705:Generated_Source\PSoC4/CapSense_CSHL.c **** *  This API writes the data value passed as an argument to the sensor baseline array.
 706:Generated_Source\PSoC4/CapSense_CSHL.c **** *
 707:Generated_Source\PSoC4/CapSense_CSHL.c **** * Parameters:
 708:Generated_Source\PSoC4/CapSense_CSHL.c **** *  sensor:  Sensor number.
 709:Generated_Source\PSoC4/CapSense_CSHL.c **** *  data:    Sensor baseline.
 710:Generated_Source\PSoC4/CapSense_CSHL.c **** *
 711:Generated_Source\PSoC4/CapSense_CSHL.c **** * Return:
 712:Generated_Source\PSoC4/CapSense_CSHL.c **** *  None.
 713:Generated_Source\PSoC4/CapSense_CSHL.c **** *
 714:Generated_Source\PSoC4/CapSense_CSHL.c **** * Global Variables:
 715:Generated_Source\PSoC4/CapSense_CSHL.c **** *  CapSense_sensorBaseline[] - the array with initial values by scanning
 716:Generated_Source\PSoC4/CapSense_CSHL.c **** *
 717:Generated_Source\PSoC4/CapSense_CSHL.c **** * Side Effects:
 718:Generated_Source\PSoC4/CapSense_CSHL.c **** *  None
 719:Generated_Source\PSoC4/CapSense_CSHL.c **** *
 720:Generated_Source\PSoC4/CapSense_CSHL.c **** *******************************************************************************/
 721:Generated_Source\PSoC4/CapSense_CSHL.c **** void CapSense_SetBaselineData(uint32 sensor, uint16 data)
 722:Generated_Source\PSoC4/CapSense_CSHL.c **** {
 242              		.loc 1 722 0
 243              		.cfi_startproc
ARM GAS  C:\Users\SHOZO\AppData\Local\Temp\cc3BkmVy.s 			page 18


 244              		@ args = 0, pretend = 0, frame = 0
 245              		@ frame_needed = 0, uses_anonymous_args = 0
 246              		@ link register save eliminated.
 247              	.LVL22:
 723:Generated_Source\PSoC4/CapSense_CSHL.c ****     CapSense_sensorBaseline[sensor] = data;
 248              		.loc 1 723 0
 249 0000 4000     		lsls	r0, r0, #1
 250              	.LVL23:
 251 0002 014B     		ldr	r3, .L20
 252 0004 C152     		strh	r1, [r0, r3]
 724:Generated_Source\PSoC4/CapSense_CSHL.c **** }
 253              		.loc 1 724 0
 254              		@ sp needed
 255 0006 7047     		bx	lr
 256              	.L21:
 257              		.align	2
 258              	.L20:
 259 0008 00000000 		.word	.LANCHOR0
 260              		.cfi_endproc
 261              	.LFE41:
 262              		.size	CapSense_SetBaselineData, .-CapSense_SetBaselineData
 263              		.section	.text.CapSense_GetDiffCountData,"ax",%progbits
 264              		.align	2
 265              		.global	CapSense_GetDiffCountData
 266              		.code	16
 267              		.thumb_func
 268              		.type	CapSense_GetDiffCountData, %function
 269              	CapSense_GetDiffCountData:
 270              	.LFB42:
 725:Generated_Source\PSoC4/CapSense_CSHL.c **** 
 726:Generated_Source\PSoC4/CapSense_CSHL.c **** 
 727:Generated_Source\PSoC4/CapSense_CSHL.c **** /*******************************************************************************
 728:Generated_Source\PSoC4/CapSense_CSHL.c **** * Function Name: CapSense_GetDiffCountData
 729:Generated_Source\PSoC4/CapSense_CSHL.c **** ********************************************************************************
 730:Generated_Source\PSoC4/CapSense_CSHL.c **** *
 731:Generated_Source\PSoC4/CapSense_CSHL.c **** * Summary:
 732:Generated_Source\PSoC4/CapSense_CSHL.c **** *  This function returns the Sensor Signal from the component.
 733:Generated_Source\PSoC4/CapSense_CSHL.c **** *
 734:Generated_Source\PSoC4/CapSense_CSHL.c **** * Parameters:
 735:Generated_Source\PSoC4/CapSense_CSHL.c **** *  sensor:  Sensor number.
 736:Generated_Source\PSoC4/CapSense_CSHL.c **** *
 737:Generated_Source\PSoC4/CapSense_CSHL.c **** * Return:
 738:Generated_Source\PSoC4/CapSense_CSHL.c **** *  This API returns the difference count value of the sensor indicated by the
 739:Generated_Source\PSoC4/CapSense_CSHL.c **** *  argument.
 740:Generated_Source\PSoC4/CapSense_CSHL.c **** *
 741:Generated_Source\PSoC4/CapSense_CSHL.c **** * Global Variables:
 742:Generated_Source\PSoC4/CapSense_CSHL.c **** *  CapSense_sensorSignal[] - the array with difference counts for sensors
 743:Generated_Source\PSoC4/CapSense_CSHL.c **** *
 744:Generated_Source\PSoC4/CapSense_CSHL.c **** * Side Effects:
 745:Generated_Source\PSoC4/CapSense_CSHL.c **** *  None
 746:Generated_Source\PSoC4/CapSense_CSHL.c **** *
 747:Generated_Source\PSoC4/CapSense_CSHL.c **** *******************************************************************************/
 748:Generated_Source\PSoC4/CapSense_CSHL.c **** uint8 CapSense_GetDiffCountData(uint32 sensor)
 749:Generated_Source\PSoC4/CapSense_CSHL.c **** {
 271              		.loc 1 749 0
 272              		.cfi_startproc
 273              		@ args = 0, pretend = 0, frame = 0
ARM GAS  C:\Users\SHOZO\AppData\Local\Temp\cc3BkmVy.s 			page 19


 274              		@ frame_needed = 0, uses_anonymous_args = 0
 275              		@ link register save eliminated.
 276              	.LVL24:
 750:Generated_Source\PSoC4/CapSense_CSHL.c ****     return (CapSense_sensorSignal[sensor]);
 277              		.loc 1 750 0
 278 0000 024B     		ldr	r3, .L23
 279 0002 1818     		adds	r0, r3, r0
 280              	.LVL25:
 281 0004 2423     		movs	r3, #36
 282 0006 C05C     		ldrb	r0, [r0, r3]
 751:Generated_Source\PSoC4/CapSense_CSHL.c **** }
 283              		.loc 1 751 0
 284              		@ sp needed
 285 0008 7047     		bx	lr
 286              	.L24:
 287 000a C046     		.align	2
 288              	.L23:
 289 000c 00000000 		.word	.LANCHOR0
 290              		.cfi_endproc
 291              	.LFE42:
 292              		.size	CapSense_GetDiffCountData, .-CapSense_GetDiffCountData
 293              		.section	.text.CapSense_SetDiffCountData,"ax",%progbits
 294              		.align	2
 295              		.global	CapSense_SetDiffCountData
 296              		.code	16
 297              		.thumb_func
 298              		.type	CapSense_SetDiffCountData, %function
 299              	CapSense_SetDiffCountData:
 300              	.LFB43:
 752:Generated_Source\PSoC4/CapSense_CSHL.c **** 
 753:Generated_Source\PSoC4/CapSense_CSHL.c **** 
 754:Generated_Source\PSoC4/CapSense_CSHL.c **** /*******************************************************************************
 755:Generated_Source\PSoC4/CapSense_CSHL.c **** * Function Name: CapSense_SetDiffCountData
 756:Generated_Source\PSoC4/CapSense_CSHL.c **** ********************************************************************************
 757:Generated_Source\PSoC4/CapSense_CSHL.c **** *
 758:Generated_Source\PSoC4/CapSense_CSHL.c **** * Summary:
 759:Generated_Source\PSoC4/CapSense_CSHL.c **** *  This API writes the data value passed as an argument to the sensor signal array.
 760:Generated_Source\PSoC4/CapSense_CSHL.c **** *
 761:Generated_Source\PSoC4/CapSense_CSHL.c **** * Parameters:
 762:Generated_Source\PSoC4/CapSense_CSHL.c **** *  sensor:  Sensor number.
 763:Generated_Source\PSoC4/CapSense_CSHL.c **** *  value:   Sensor signal.
 764:Generated_Source\PSoC4/CapSense_CSHL.c **** *
 765:Generated_Source\PSoC4/CapSense_CSHL.c **** * Return:
 766:Generated_Source\PSoC4/CapSense_CSHL.c **** *  None.
 767:Generated_Source\PSoC4/CapSense_CSHL.c **** *
 768:Generated_Source\PSoC4/CapSense_CSHL.c **** * Global Variables:
 769:Generated_Source\PSoC4/CapSense_CSHL.c **** *  CapSense_sensorSignal[] - the array with difference counts for sensors
 770:Generated_Source\PSoC4/CapSense_CSHL.c **** *
 771:Generated_Source\PSoC4/CapSense_CSHL.c **** * Side Effects:
 772:Generated_Source\PSoC4/CapSense_CSHL.c **** *  None
 773:Generated_Source\PSoC4/CapSense_CSHL.c **** *
 774:Generated_Source\PSoC4/CapSense_CSHL.c **** *******************************************************************************/
 775:Generated_Source\PSoC4/CapSense_CSHL.c **** void CapSense_SetDiffCountData(uint32 sensor, uint8 value)
 776:Generated_Source\PSoC4/CapSense_CSHL.c **** {
 301              		.loc 1 776 0
 302              		.cfi_startproc
 303              		@ args = 0, pretend = 0, frame = 0
ARM GAS  C:\Users\SHOZO\AppData\Local\Temp\cc3BkmVy.s 			page 20


 304              		@ frame_needed = 0, uses_anonymous_args = 0
 305              		@ link register save eliminated.
 306              	.LVL26:
 777:Generated_Source\PSoC4/CapSense_CSHL.c ****     CapSense_sensorSignal[sensor] = value;
 307              		.loc 1 777 0
 308 0000 024B     		ldr	r3, .L26
 309 0002 1818     		adds	r0, r3, r0
 310              	.LVL27:
 311 0004 2423     		movs	r3, #36
 312 0006 C154     		strb	r1, [r0, r3]
 778:Generated_Source\PSoC4/CapSense_CSHL.c **** }
 313              		.loc 1 778 0
 314              		@ sp needed
 315 0008 7047     		bx	lr
 316              	.L27:
 317 000a C046     		.align	2
 318              	.L26:
 319 000c 00000000 		.word	.LANCHOR0
 320              		.cfi_endproc
 321              	.LFE43:
 322              		.size	CapSense_SetDiffCountData, .-CapSense_SetDiffCountData
 323              		.section	.text.CapSense_GetFingerThreshold,"ax",%progbits
 324              		.align	2
 325              		.global	CapSense_GetFingerThreshold
 326              		.code	16
 327              		.thumb_func
 328              		.type	CapSense_GetFingerThreshold, %function
 329              	CapSense_GetFingerThreshold:
 330              	.LFB44:
 779:Generated_Source\PSoC4/CapSense_CSHL.c **** 
 780:Generated_Source\PSoC4/CapSense_CSHL.c **** 
 781:Generated_Source\PSoC4/CapSense_CSHL.c **** /*******************************************************************************
 782:Generated_Source\PSoC4/CapSense_CSHL.c **** * Function Name: CapSense_GetFingerThreshold
 783:Generated_Source\PSoC4/CapSense_CSHL.c **** ********************************************************************************
 784:Generated_Source\PSoC4/CapSense_CSHL.c **** *
 785:Generated_Source\PSoC4/CapSense_CSHL.c **** * Summary:
 786:Generated_Source\PSoC4/CapSense_CSHL.c **** *  This function reads the finger threshold from the component.
 787:Generated_Source\PSoC4/CapSense_CSHL.c **** *
 788:Generated_Source\PSoC4/CapSense_CSHL.c **** * Parameters:
 789:Generated_Source\PSoC4/CapSense_CSHL.c **** *  widget:  widget number.
 790:Generated_Source\PSoC4/CapSense_CSHL.c **** *
 791:Generated_Source\PSoC4/CapSense_CSHL.c **** * Return:
 792:Generated_Source\PSoC4/CapSense_CSHL.c **** *  This API returns the finger threshold of the widget indicated by the argument.
 793:Generated_Source\PSoC4/CapSense_CSHL.c **** *
 794:Generated_Source\PSoC4/CapSense_CSHL.c **** * Global Variables:
 795:Generated_Source\PSoC4/CapSense_CSHL.c **** *  CapSense_fingerThreshold[] - This array contains the level of signal
 796:Generated_Source\PSoC4/CapSense_CSHL.c **** *  for each widget that is determined if a finger is present on the widget.
 797:Generated_Source\PSoC4/CapSense_CSHL.c **** *
 798:Generated_Source\PSoC4/CapSense_CSHL.c **** * Side Effects:
 799:Generated_Source\PSoC4/CapSense_CSHL.c **** *  None
 800:Generated_Source\PSoC4/CapSense_CSHL.c **** *
 801:Generated_Source\PSoC4/CapSense_CSHL.c **** *******************************************************************************/
 802:Generated_Source\PSoC4/CapSense_CSHL.c **** uint8 CapSense_GetFingerThreshold(uint32 widget)
 803:Generated_Source\PSoC4/CapSense_CSHL.c **** {
 331              		.loc 1 803 0
 332              		.cfi_startproc
 333              		@ args = 0, pretend = 0, frame = 0
ARM GAS  C:\Users\SHOZO\AppData\Local\Temp\cc3BkmVy.s 			page 21


 334              		@ frame_needed = 0, uses_anonymous_args = 0
 335              		@ link register save eliminated.
 336              	.LVL28:
 804:Generated_Source\PSoC4/CapSense_CSHL.c ****     return(CapSense_fingerThreshold[widget]);
 337              		.loc 1 804 0
 338 0000 014B     		ldr	r3, .L29
 339 0002 185C     		ldrb	r0, [r3, r0]
 340              	.LVL29:
 805:Generated_Source\PSoC4/CapSense_CSHL.c **** }
 341              		.loc 1 805 0
 342              		@ sp needed
 343 0004 7047     		bx	lr
 344              	.L30:
 345 0006 C046     		.align	2
 346              	.L29:
 347 0008 00000000 		.word	CapSense_fingerThreshold
 348              		.cfi_endproc
 349              	.LFE44:
 350              		.size	CapSense_GetFingerThreshold, .-CapSense_GetFingerThreshold
 351              		.section	.text.CapSense_GetNoiseThreshold,"ax",%progbits
 352              		.align	2
 353              		.global	CapSense_GetNoiseThreshold
 354              		.code	16
 355              		.thumb_func
 356              		.type	CapSense_GetNoiseThreshold, %function
 357              	CapSense_GetNoiseThreshold:
 358              	.LFB45:
 806:Generated_Source\PSoC4/CapSense_CSHL.c **** 
 807:Generated_Source\PSoC4/CapSense_CSHL.c **** 
 808:Generated_Source\PSoC4/CapSense_CSHL.c **** /*******************************************************************************
 809:Generated_Source\PSoC4/CapSense_CSHL.c **** * Function Name: CapSense_GetNoiseThreshold
 810:Generated_Source\PSoC4/CapSense_CSHL.c **** ********************************************************************************
 811:Generated_Source\PSoC4/CapSense_CSHL.c **** *
 812:Generated_Source\PSoC4/CapSense_CSHL.c **** * Summary:
 813:Generated_Source\PSoC4/CapSense_CSHL.c **** *  This function reads the noise threshold from the component.
 814:Generated_Source\PSoC4/CapSense_CSHL.c **** *
 815:Generated_Source\PSoC4/CapSense_CSHL.c **** * Parameters:
 816:Generated_Source\PSoC4/CapSense_CSHL.c **** *  widget:  widget number.
 817:Generated_Source\PSoC4/CapSense_CSHL.c **** *
 818:Generated_Source\PSoC4/CapSense_CSHL.c **** * Return:
 819:Generated_Source\PSoC4/CapSense_CSHL.c **** *  This API returns the noise threshold of the widget indicated by the argument.
 820:Generated_Source\PSoC4/CapSense_CSHL.c **** *
 821:Generated_Source\PSoC4/CapSense_CSHL.c **** * Global Variables:
 822:Generated_Source\PSoC4/CapSense_CSHL.c **** *  CapSense_noiseThreshold[] - This array contains the level of signal
 823:Generated_Source\PSoC4/CapSense_CSHL.c **** *  for each widget that determines the level of noise in the capacitive scan.
 824:Generated_Source\PSoC4/CapSense_CSHL.c **** *
 825:Generated_Source\PSoC4/CapSense_CSHL.c **** * Side Effects:
 826:Generated_Source\PSoC4/CapSense_CSHL.c **** *  None
 827:Generated_Source\PSoC4/CapSense_CSHL.c **** *
 828:Generated_Source\PSoC4/CapSense_CSHL.c **** *******************************************************************************/
 829:Generated_Source\PSoC4/CapSense_CSHL.c **** uint8 CapSense_GetNoiseThreshold(uint32 widget)
 830:Generated_Source\PSoC4/CapSense_CSHL.c **** {
 359              		.loc 1 830 0
 360              		.cfi_startproc
 361              		@ args = 0, pretend = 0, frame = 0
 362              		@ frame_needed = 0, uses_anonymous_args = 0
 363              		@ link register save eliminated.
ARM GAS  C:\Users\SHOZO\AppData\Local\Temp\cc3BkmVy.s 			page 22


 364              	.LVL30:
 831:Generated_Source\PSoC4/CapSense_CSHL.c ****     return (CapSense_noiseThreshold[widget]);
 365              		.loc 1 831 0
 366 0000 014B     		ldr	r3, .L32
 367 0002 185C     		ldrb	r0, [r3, r0]
 368              	.LVL31:
 832:Generated_Source\PSoC4/CapSense_CSHL.c **** }
 369              		.loc 1 832 0
 370              		@ sp needed
 371 0004 7047     		bx	lr
 372              	.L33:
 373 0006 C046     		.align	2
 374              	.L32:
 375 0008 00000000 		.word	CapSense_noiseThreshold
 376              		.cfi_endproc
 377              	.LFE45:
 378              		.size	CapSense_GetNoiseThreshold, .-CapSense_GetNoiseThreshold
 379              		.section	.text.CapSense_GetFingerHysteresis,"ax",%progbits
 380              		.align	2
 381              		.global	CapSense_GetFingerHysteresis
 382              		.code	16
 383              		.thumb_func
 384              		.type	CapSense_GetFingerHysteresis, %function
 385              	CapSense_GetFingerHysteresis:
 386              	.LFB46:
 833:Generated_Source\PSoC4/CapSense_CSHL.c **** 
 834:Generated_Source\PSoC4/CapSense_CSHL.c **** 
 835:Generated_Source\PSoC4/CapSense_CSHL.c **** /*******************************************************************************
 836:Generated_Source\PSoC4/CapSense_CSHL.c **** * Function Name: CapSense_GetFingerHysteresis
 837:Generated_Source\PSoC4/CapSense_CSHL.c **** ********************************************************************************
 838:Generated_Source\PSoC4/CapSense_CSHL.c **** *
 839:Generated_Source\PSoC4/CapSense_CSHL.c **** * Summary:
 840:Generated_Source\PSoC4/CapSense_CSHL.c **** *  This function reads the Hysteresis value from the component.
 841:Generated_Source\PSoC4/CapSense_CSHL.c **** *
 842:Generated_Source\PSoC4/CapSense_CSHL.c **** * Parameters:
 843:Generated_Source\PSoC4/CapSense_CSHL.c **** *  widget:  widget number.
 844:Generated_Source\PSoC4/CapSense_CSHL.c **** *
 845:Generated_Source\PSoC4/CapSense_CSHL.c **** * Return:
 846:Generated_Source\PSoC4/CapSense_CSHL.c **** *  This API returns the Hysteresis of the widget indicated by the argument.
 847:Generated_Source\PSoC4/CapSense_CSHL.c **** *
 848:Generated_Source\PSoC4/CapSense_CSHL.c **** * Global Variables:
 849:Generated_Source\PSoC4/CapSense_CSHL.c **** *  CapSense_hysteresis[] - This array contains the hysteresis value
 850:Generated_Source\PSoC4/CapSense_CSHL.c **** *   for each widget.
 851:Generated_Source\PSoC4/CapSense_CSHL.c **** *  CapSense_widgetNumberSld - structure with dynamic sliders' parameters.
 852:Generated_Source\PSoC4/CapSense_CSHL.c **** *
 853:Generated_Source\PSoC4/CapSense_CSHL.c **** * Side Effects:
 854:Generated_Source\PSoC4/CapSense_CSHL.c **** *  None
 855:Generated_Source\PSoC4/CapSense_CSHL.c **** *
 856:Generated_Source\PSoC4/CapSense_CSHL.c **** *******************************************************************************/
 857:Generated_Source\PSoC4/CapSense_CSHL.c **** uint8 CapSense_GetFingerHysteresis(uint32 widget)
 858:Generated_Source\PSoC4/CapSense_CSHL.c **** {
 387              		.loc 1 858 0
 388              		.cfi_startproc
 389              		@ args = 0, pretend = 0, frame = 0
 390              		@ frame_needed = 0, uses_anonymous_args = 0
 391              		@ link register save eliminated.
 392              	.LVL32:
ARM GAS  C:\Users\SHOZO\AppData\Local\Temp\cc3BkmVy.s 			page 23


 859:Generated_Source\PSoC4/CapSense_CSHL.c ****     return(CapSense_hysteresis[widget]);
 393              		.loc 1 859 0
 394 0000 014B     		ldr	r3, .L35
 395 0002 185C     		ldrb	r0, [r3, r0]
 396              	.LVL33:
 860:Generated_Source\PSoC4/CapSense_CSHL.c **** }
 397              		.loc 1 860 0
 398              		@ sp needed
 399 0004 7047     		bx	lr
 400              	.L36:
 401 0006 C046     		.align	2
 402              	.L35:
 403 0008 00000000 		.word	CapSense_hysteresis
 404              		.cfi_endproc
 405              	.LFE46:
 406              		.size	CapSense_GetFingerHysteresis, .-CapSense_GetFingerHysteresis
 407              		.section	.text.CapSense_GetNegativeNoiseThreshold,"ax",%progbits
 408              		.align	2
 409              		.global	CapSense_GetNegativeNoiseThreshold
 410              		.code	16
 411              		.thumb_func
 412              		.type	CapSense_GetNegativeNoiseThreshold, %function
 413              	CapSense_GetNegativeNoiseThreshold:
 414              	.LFB47:
 861:Generated_Source\PSoC4/CapSense_CSHL.c **** 
 862:Generated_Source\PSoC4/CapSense_CSHL.c **** 
 863:Generated_Source\PSoC4/CapSense_CSHL.c **** /*******************************************************************************
 864:Generated_Source\PSoC4/CapSense_CSHL.c **** * Function Name: CapSense_GetNegativeNoiseThreshold
 865:Generated_Source\PSoC4/CapSense_CSHL.c **** ********************************************************************************
 866:Generated_Source\PSoC4/CapSense_CSHL.c **** *
 867:Generated_Source\PSoC4/CapSense_CSHL.c **** * Summary:
 868:Generated_Source\PSoC4/CapSense_CSHL.c **** *  This function reads the negative noise threshold from the component.
 869:Generated_Source\PSoC4/CapSense_CSHL.c **** *
 870:Generated_Source\PSoC4/CapSense_CSHL.c **** * Parameters:
 871:Generated_Source\PSoC4/CapSense_CSHL.c **** *  None.
 872:Generated_Source\PSoC4/CapSense_CSHL.c **** *
 873:Generated_Source\PSoC4/CapSense_CSHL.c **** * Return Value:
 874:Generated_Source\PSoC4/CapSense_CSHL.c **** *  This API returns the negative noise threshold
 875:Generated_Source\PSoC4/CapSense_CSHL.c **** *
 876:Generated_Source\PSoC4/CapSense_CSHL.c **** * Global Variables:
 877:Generated_Source\PSoC4/CapSense_CSHL.c **** *  CapSense_negativeNoiseThreshold - This variable specifies the negative
 878:Generated_Source\PSoC4/CapSense_CSHL.c **** *   difference between the raw count and baseline levels for Baseline resetting
 879:Generated_Source\PSoC4/CapSense_CSHL.c **** *   to the raw count level.
 880:Generated_Source\PSoC4/CapSense_CSHL.c **** *
 881:Generated_Source\PSoC4/CapSense_CSHL.c **** * Side Effects:
 882:Generated_Source\PSoC4/CapSense_CSHL.c **** *  None
 883:Generated_Source\PSoC4/CapSense_CSHL.c **** *
 884:Generated_Source\PSoC4/CapSense_CSHL.c **** *******************************************************************************/
 885:Generated_Source\PSoC4/CapSense_CSHL.c **** uint8 CapSense_GetNegativeNoiseThreshold(uint32 widget)
 886:Generated_Source\PSoC4/CapSense_CSHL.c **** {
 415              		.loc 1 886 0
 416              		.cfi_startproc
 417              		@ args = 0, pretend = 0, frame = 0
 418              		@ frame_needed = 0, uses_anonymous_args = 0
 419              		@ link register save eliminated.
 420              	.LVL34:
 887:Generated_Source\PSoC4/CapSense_CSHL.c **** #if (CapSense_TUNING_METHOD != CapSense__TUNING_NONE)
ARM GAS  C:\Users\SHOZO\AppData\Local\Temp\cc3BkmVy.s 			page 24


 888:Generated_Source\PSoC4/CapSense_CSHL.c ****     return(CapSense_negativeNoiseThreshold[widget]);
 421              		.loc 1 888 0
 422 0000 014B     		ldr	r3, .L38
 423 0002 185C     		ldrb	r0, [r3, r0]
 424              	.LVL35:
 889:Generated_Source\PSoC4/CapSense_CSHL.c **** #else
 890:Generated_Source\PSoC4/CapSense_CSHL.c ****     return(CapSense_NEGATIVE_NOISE_THRESHOLD);
 891:Generated_Source\PSoC4/CapSense_CSHL.c **** #endif /* (CapSense_TUNING_METHOD != CapSense__TUNING_NONE) */
 892:Generated_Source\PSoC4/CapSense_CSHL.c **** }
 425              		.loc 1 892 0
 426              		@ sp needed
 427 0004 7047     		bx	lr
 428              	.L39:
 429 0006 C046     		.align	2
 430              	.L38:
 431 0008 00000000 		.word	CapSense_negativeNoiseThreshold
 432              		.cfi_endproc
 433              	.LFE47:
 434              		.size	CapSense_GetNegativeNoiseThreshold, .-CapSense_GetNegativeNoiseThreshold
 435              		.section	.text.CapSense_SetFingerThreshold,"ax",%progbits
 436              		.align	2
 437              		.global	CapSense_SetFingerThreshold
 438              		.code	16
 439              		.thumb_func
 440              		.type	CapSense_SetFingerThreshold, %function
 441              	CapSense_SetFingerThreshold:
 442              	.LFB48:
 893:Generated_Source\PSoC4/CapSense_CSHL.c **** 
 894:Generated_Source\PSoC4/CapSense_CSHL.c **** 
 895:Generated_Source\PSoC4/CapSense_CSHL.c **** #if(CapSense_TUNING_METHOD != CapSense__TUNING_NONE)
 896:Generated_Source\PSoC4/CapSense_CSHL.c ****     /*******************************************************************************
 897:Generated_Source\PSoC4/CapSense_CSHL.c ****     * Function Name: CapSense_SetFingerThreshold
 898:Generated_Source\PSoC4/CapSense_CSHL.c ****     ********************************************************************************
 899:Generated_Source\PSoC4/CapSense_CSHL.c ****     *
 900:Generated_Source\PSoC4/CapSense_CSHL.c ****     * Summary:
 901:Generated_Source\PSoC4/CapSense_CSHL.c ****     *  This API sets the finger threshold value for a widget.
 902:Generated_Source\PSoC4/CapSense_CSHL.c ****     *
 903:Generated_Source\PSoC4/CapSense_CSHL.c ****     * Parameters:
 904:Generated_Source\PSoC4/CapSense_CSHL.c ****     *  sensorNumber:  widget index.
 905:Generated_Source\PSoC4/CapSense_CSHL.c ****     *  value:  Finger threshold value for the widget.
 906:Generated_Source\PSoC4/CapSense_CSHL.c ****     *
 907:Generated_Source\PSoC4/CapSense_CSHL.c ****     * Return Value:
 908:Generated_Source\PSoC4/CapSense_CSHL.c ****     *  None
 909:Generated_Source\PSoC4/CapSense_CSHL.c ****     *
 910:Generated_Source\PSoC4/CapSense_CSHL.c ****     * Global Variables:
 911:Generated_Source\PSoC4/CapSense_CSHL.c ****     *  CapSense_fingerThreshold[] - This array contains the level of signal
 912:Generated_Source\PSoC4/CapSense_CSHL.c ****     *   for each widget that determines if a finger is present on the widget.
 913:Generated_Source\PSoC4/CapSense_CSHL.c ****     *
 914:Generated_Source\PSoC4/CapSense_CSHL.c ****     * Side Effects:
 915:Generated_Source\PSoC4/CapSense_CSHL.c ****     *  None
 916:Generated_Source\PSoC4/CapSense_CSHL.c ****     *
 917:Generated_Source\PSoC4/CapSense_CSHL.c ****     *******************************************************************************/
 918:Generated_Source\PSoC4/CapSense_CSHL.c ****     void CapSense_SetFingerThreshold(uint32 widget, uint8 value)
 919:Generated_Source\PSoC4/CapSense_CSHL.c ****     {
 443              		.loc 1 919 0
 444              		.cfi_startproc
 445              		@ args = 0, pretend = 0, frame = 0
ARM GAS  C:\Users\SHOZO\AppData\Local\Temp\cc3BkmVy.s 			page 25


 446              		@ frame_needed = 0, uses_anonymous_args = 0
 447              		@ link register save eliminated.
 448              	.LVL36:
 920:Generated_Source\PSoC4/CapSense_CSHL.c ****         CapSense_fingerThreshold[widget] = value;
 449              		.loc 1 920 0
 450 0000 014B     		ldr	r3, .L41
 451 0002 1954     		strb	r1, [r3, r0]
 921:Generated_Source\PSoC4/CapSense_CSHL.c ****     }
 452              		.loc 1 921 0
 453              		@ sp needed
 454 0004 7047     		bx	lr
 455              	.L42:
 456 0006 C046     		.align	2
 457              	.L41:
 458 0008 00000000 		.word	CapSense_fingerThreshold
 459              		.cfi_endproc
 460              	.LFE48:
 461              		.size	CapSense_SetFingerThreshold, .-CapSense_SetFingerThreshold
 462              		.section	.text.CapSense_SetNoiseThreshold,"ax",%progbits
 463              		.align	2
 464              		.global	CapSense_SetNoiseThreshold
 465              		.code	16
 466              		.thumb_func
 467              		.type	CapSense_SetNoiseThreshold, %function
 468              	CapSense_SetNoiseThreshold:
 469              	.LFB49:
 922:Generated_Source\PSoC4/CapSense_CSHL.c **** 
 923:Generated_Source\PSoC4/CapSense_CSHL.c **** 
 924:Generated_Source\PSoC4/CapSense_CSHL.c ****     /*******************************************************************************
 925:Generated_Source\PSoC4/CapSense_CSHL.c ****     * Function Name: CapSense_SetNoiseThreshold
 926:Generated_Source\PSoC4/CapSense_CSHL.c ****     ********************************************************************************
 927:Generated_Source\PSoC4/CapSense_CSHL.c ****     *
 928:Generated_Source\PSoC4/CapSense_CSHL.c ****     * Summary:
 929:Generated_Source\PSoC4/CapSense_CSHL.c ****     *  This API sets the Noise Threshold value for each widget.
 930:Generated_Source\PSoC4/CapSense_CSHL.c ****     *
 931:Generated_Source\PSoC4/CapSense_CSHL.c ****     * Parameters:
 932:Generated_Source\PSoC4/CapSense_CSHL.c ****     *  widget:  Sensor index number.
 933:Generated_Source\PSoC4/CapSense_CSHL.c ****     *  value:   Noise Threshold value for widget.
 934:Generated_Source\PSoC4/CapSense_CSHL.c ****     *
 935:Generated_Source\PSoC4/CapSense_CSHL.c ****     * Return Value:
 936:Generated_Source\PSoC4/CapSense_CSHL.c ****     *  None
 937:Generated_Source\PSoC4/CapSense_CSHL.c ****     *
 938:Generated_Source\PSoC4/CapSense_CSHL.c ****     * Global Variables:
 939:Generated_Source\PSoC4/CapSense_CSHL.c ****     *  CapSense_noiseThreshold[] - This array contains the level of signal
 940:Generated_Source\PSoC4/CapSense_CSHL.c ****     *   for each widget that determines the level of noise in the capacitive scan.
 941:Generated_Source\PSoC4/CapSense_CSHL.c ****     *
 942:Generated_Source\PSoC4/CapSense_CSHL.c ****     * Side Effects:
 943:Generated_Source\PSoC4/CapSense_CSHL.c ****     *  None
 944:Generated_Source\PSoC4/CapSense_CSHL.c ****     *
 945:Generated_Source\PSoC4/CapSense_CSHL.c ****     *******************************************************************************/
 946:Generated_Source\PSoC4/CapSense_CSHL.c ****     void CapSense_SetNoiseThreshold(uint32 widget, uint8 value)
 947:Generated_Source\PSoC4/CapSense_CSHL.c ****     {
 470              		.loc 1 947 0
 471              		.cfi_startproc
 472              		@ args = 0, pretend = 0, frame = 0
 473              		@ frame_needed = 0, uses_anonymous_args = 0
 474              		@ link register save eliminated.
ARM GAS  C:\Users\SHOZO\AppData\Local\Temp\cc3BkmVy.s 			page 26


 475              	.LVL37:
 948:Generated_Source\PSoC4/CapSense_CSHL.c ****         CapSense_noiseThreshold[widget] = value;
 476              		.loc 1 948 0
 477 0000 014B     		ldr	r3, .L44
 478 0002 1954     		strb	r1, [r3, r0]
 949:Generated_Source\PSoC4/CapSense_CSHL.c ****     }
 479              		.loc 1 949 0
 480              		@ sp needed
 481 0004 7047     		bx	lr
 482              	.L45:
 483 0006 C046     		.align	2
 484              	.L44:
 485 0008 00000000 		.word	CapSense_noiseThreshold
 486              		.cfi_endproc
 487              	.LFE49:
 488              		.size	CapSense_SetNoiseThreshold, .-CapSense_SetNoiseThreshold
 489              		.section	.text.CapSense_SetFingerHysteresis,"ax",%progbits
 490              		.align	2
 491              		.global	CapSense_SetFingerHysteresis
 492              		.code	16
 493              		.thumb_func
 494              		.type	CapSense_SetFingerHysteresis, %function
 495              	CapSense_SetFingerHysteresis:
 496              	.LFB50:
 950:Generated_Source\PSoC4/CapSense_CSHL.c **** 
 951:Generated_Source\PSoC4/CapSense_CSHL.c **** 
 952:Generated_Source\PSoC4/CapSense_CSHL.c ****     /*******************************************************************************
 953:Generated_Source\PSoC4/CapSense_CSHL.c ****     * Function Name: CapSense_SetFingerHysteresis
 954:Generated_Source\PSoC4/CapSense_CSHL.c ****     ********************************************************************************
 955:Generated_Source\PSoC4/CapSense_CSHL.c ****     *
 956:Generated_Source\PSoC4/CapSense_CSHL.c ****     * Summary:
 957:Generated_Source\PSoC4/CapSense_CSHL.c ****     *  This API sets the Hysteresis value of a widget
 958:Generated_Source\PSoC4/CapSense_CSHL.c ****     *
 959:Generated_Source\PSoC4/CapSense_CSHL.c ****     * Parameters:
 960:Generated_Source\PSoC4/CapSense_CSHL.c ****     *  value:  Hysteresis value for widgets.
 961:Generated_Source\PSoC4/CapSense_CSHL.c ****     *  widget:  widget number
 962:Generated_Source\PSoC4/CapSense_CSHL.c ****     *
 963:Generated_Source\PSoC4/CapSense_CSHL.c ****     * Return Value:
 964:Generated_Source\PSoC4/CapSense_CSHL.c ****     *  None
 965:Generated_Source\PSoC4/CapSense_CSHL.c ****     *
 966:Generated_Source\PSoC4/CapSense_CSHL.c ****     * Global Variables:
 967:Generated_Source\PSoC4/CapSense_CSHL.c ****     *  CapSense_hysteresis[] - This array contains the hysteresis value for each widget.
 968:Generated_Source\PSoC4/CapSense_CSHL.c ****     *  CapSense_widgetNumberSld - structure with dynamic sliders' parameters.
 969:Generated_Source\PSoC4/CapSense_CSHL.c ****     *
 970:Generated_Source\PSoC4/CapSense_CSHL.c ****     * Side Effects:
 971:Generated_Source\PSoC4/CapSense_CSHL.c ****     *  None
 972:Generated_Source\PSoC4/CapSense_CSHL.c ****     *
 973:Generated_Source\PSoC4/CapSense_CSHL.c ****     *******************************************************************************/
 974:Generated_Source\PSoC4/CapSense_CSHL.c ****     void CapSense_SetFingerHysteresis(uint32 widget, uint8 value)
 975:Generated_Source\PSoC4/CapSense_CSHL.c ****     {
 497              		.loc 1 975 0
 498              		.cfi_startproc
 499              		@ args = 0, pretend = 0, frame = 0
 500              		@ frame_needed = 0, uses_anonymous_args = 0
 501              		@ link register save eliminated.
 502              	.LVL38:
 976:Generated_Source\PSoC4/CapSense_CSHL.c ****         CapSense_hysteresis[widget] = value;
ARM GAS  C:\Users\SHOZO\AppData\Local\Temp\cc3BkmVy.s 			page 27


 503              		.loc 1 976 0
 504 0000 014B     		ldr	r3, .L47
 505 0002 1954     		strb	r1, [r3, r0]
 977:Generated_Source\PSoC4/CapSense_CSHL.c ****     }
 506              		.loc 1 977 0
 507              		@ sp needed
 508 0004 7047     		bx	lr
 509              	.L48:
 510 0006 C046     		.align	2
 511              	.L47:
 512 0008 00000000 		.word	CapSense_hysteresis
 513              		.cfi_endproc
 514              	.LFE50:
 515              		.size	CapSense_SetFingerHysteresis, .-CapSense_SetFingerHysteresis
 516              		.section	.text.CapSense_SetNegativeNoiseThreshold,"ax",%progbits
 517              		.align	2
 518              		.global	CapSense_SetNegativeNoiseThreshold
 519              		.code	16
 520              		.thumb_func
 521              		.type	CapSense_SetNegativeNoiseThreshold, %function
 522              	CapSense_SetNegativeNoiseThreshold:
 523              	.LFB51:
 978:Generated_Source\PSoC4/CapSense_CSHL.c **** 
 979:Generated_Source\PSoC4/CapSense_CSHL.c **** 
 980:Generated_Source\PSoC4/CapSense_CSHL.c ****     /*******************************************************************************
 981:Generated_Source\PSoC4/CapSense_CSHL.c ****     * Function Name: CapSense_SetNegativeNoiseThreshold
 982:Generated_Source\PSoC4/CapSense_CSHL.c ****     ********************************************************************************
 983:Generated_Source\PSoC4/CapSense_CSHL.c ****     *
 984:Generated_Source\PSoC4/CapSense_CSHL.c ****     * Summary:
 985:Generated_Source\PSoC4/CapSense_CSHL.c ****     *  This API sets the Negative Noise Threshold value of a widget
 986:Generated_Source\PSoC4/CapSense_CSHL.c ****     *
 987:Generated_Source\PSoC4/CapSense_CSHL.c ****     * Parameters:
 988:Generated_Source\PSoC4/CapSense_CSHL.c ****     *  value:  Negative Noise Threshold value for widgets.
 989:Generated_Source\PSoC4/CapSense_CSHL.c ****     *  widget: widget number
 990:Generated_Source\PSoC4/CapSense_CSHL.c ****     *
 991:Generated_Source\PSoC4/CapSense_CSHL.c ****     * Return Value:
 992:Generated_Source\PSoC4/CapSense_CSHL.c ****     *  None
 993:Generated_Source\PSoC4/CapSense_CSHL.c ****     *
 994:Generated_Source\PSoC4/CapSense_CSHL.c ****     * Global Variables:
 995:Generated_Source\PSoC4/CapSense_CSHL.c ****     *  CapSense_negativeNoiseThreshold  - This parameter specifies the negative
 996:Generated_Source\PSoC4/CapSense_CSHL.c ****     *   difference between the raw count and baseline levels for Baseline resetting to
 997:Generated_Source\PSoC4/CapSense_CSHL.c ****     *   the raw count level.
 998:Generated_Source\PSoC4/CapSense_CSHL.c ****     *
 999:Generated_Source\PSoC4/CapSense_CSHL.c ****     * Side Effects:
1000:Generated_Source\PSoC4/CapSense_CSHL.c ****     *  None
1001:Generated_Source\PSoC4/CapSense_CSHL.c ****     *
1002:Generated_Source\PSoC4/CapSense_CSHL.c ****     *******************************************************************************/
1003:Generated_Source\PSoC4/CapSense_CSHL.c ****     void CapSense_SetNegativeNoiseThreshold(uint32 widget, uint8 value)
1004:Generated_Source\PSoC4/CapSense_CSHL.c ****     {
 524              		.loc 1 1004 0
 525              		.cfi_startproc
 526              		@ args = 0, pretend = 0, frame = 0
 527              		@ frame_needed = 0, uses_anonymous_args = 0
 528              		@ link register save eliminated.
 529              	.LVL39:
1005:Generated_Source\PSoC4/CapSense_CSHL.c ****         CapSense_negativeNoiseThreshold[widget] = value;
 530              		.loc 1 1005 0
ARM GAS  C:\Users\SHOZO\AppData\Local\Temp\cc3BkmVy.s 			page 28


 531 0000 014B     		ldr	r3, .L50
 532 0002 1954     		strb	r1, [r3, r0]
1006:Generated_Source\PSoC4/CapSense_CSHL.c ****     }
 533              		.loc 1 1006 0
 534              		@ sp needed
 535 0004 7047     		bx	lr
 536              	.L51:
 537 0006 C046     		.align	2
 538              	.L50:
 539 0008 00000000 		.word	CapSense_negativeNoiseThreshold
 540              		.cfi_endproc
 541              	.LFE51:
 542              		.size	CapSense_SetNegativeNoiseThreshold, .-CapSense_SetNegativeNoiseThreshold
 543              		.section	.text.CapSense_SetDebounce,"ax",%progbits
 544              		.align	2
 545              		.global	CapSense_SetDebounce
 546              		.code	16
 547              		.thumb_func
 548              		.type	CapSense_SetDebounce, %function
 549              	CapSense_SetDebounce:
 550              	.LFB52:
1007:Generated_Source\PSoC4/CapSense_CSHL.c **** 
1008:Generated_Source\PSoC4/CapSense_CSHL.c **** 
1009:Generated_Source\PSoC4/CapSense_CSHL.c ****     /*******************************************************************************
1010:Generated_Source\PSoC4/CapSense_CSHL.c ****     * Function Name: CapSense_SetDebounce
1011:Generated_Source\PSoC4/CapSense_CSHL.c ****     ********************************************************************************
1012:Generated_Source\PSoC4/CapSense_CSHL.c ****     *
1013:Generated_Source\PSoC4/CapSense_CSHL.c ****     * Summary:
1014:Generated_Source\PSoC4/CapSense_CSHL.c ****     *  This API sets the debounce value for a widget.
1015:Generated_Source\PSoC4/CapSense_CSHL.c ****     *
1016:Generated_Source\PSoC4/CapSense_CSHL.c ****     * Parameters:
1017:Generated_Source\PSoC4/CapSense_CSHL.c ****     *  value:  Debounce value for widget.
1018:Generated_Source\PSoC4/CapSense_CSHL.c ****     *  widget: widget index.
1019:Generated_Source\PSoC4/CapSense_CSHL.c ****     *
1020:Generated_Source\PSoC4/CapSense_CSHL.c ****     * Return Value:
1021:Generated_Source\PSoC4/CapSense_CSHL.c ****     *  None
1022:Generated_Source\PSoC4/CapSense_CSHL.c ****     *
1023:Generated_Source\PSoC4/CapSense_CSHL.c ****     * Global Variables:
1024:Generated_Source\PSoC4/CapSense_CSHL.c ****     *  CapSense_debounce[] - This array contains the debounce value for each widget.
1025:Generated_Source\PSoC4/CapSense_CSHL.c ****     *  CapSense_widgetNumberSld - structure with dynamic sliders' parameters.
1026:Generated_Source\PSoC4/CapSense_CSHL.c ****     *
1027:Generated_Source\PSoC4/CapSense_CSHL.c ****     * Side Effects:
1028:Generated_Source\PSoC4/CapSense_CSHL.c ****     *  None
1029:Generated_Source\PSoC4/CapSense_CSHL.c ****     *
1030:Generated_Source\PSoC4/CapSense_CSHL.c ****     *******************************************************************************/
1031:Generated_Source\PSoC4/CapSense_CSHL.c ****     void CapSense_SetDebounce(uint32 widget, uint8 value)
1032:Generated_Source\PSoC4/CapSense_CSHL.c ****     {
 551              		.loc 1 1032 0
 552              		.cfi_startproc
 553              		@ args = 0, pretend = 0, frame = 0
 554              		@ frame_needed = 0, uses_anonymous_args = 0
 555              		@ link register save eliminated.
 556              	.LVL40:
1033:Generated_Source\PSoC4/CapSense_CSHL.c ****         CapSense_debounce[widget] = value;
 557              		.loc 1 1033 0
 558 0000 014B     		ldr	r3, .L53
 559 0002 1954     		strb	r1, [r3, r0]
ARM GAS  C:\Users\SHOZO\AppData\Local\Temp\cc3BkmVy.s 			page 29


1034:Generated_Source\PSoC4/CapSense_CSHL.c ****     }
 560              		.loc 1 1034 0
 561              		@ sp needed
 562 0004 7047     		bx	lr
 563              	.L54:
 564 0006 C046     		.align	2
 565              	.L53:
 566 0008 00000000 		.word	.LANCHOR1
 567              		.cfi_endproc
 568              	.LFE52:
 569              		.size	CapSense_SetDebounce, .-CapSense_SetDebounce
 570              		.section	.text.CapSense_SetLowBaselineReset,"ax",%progbits
 571              		.align	2
 572              		.global	CapSense_SetLowBaselineReset
 573              		.code	16
 574              		.thumb_func
 575              		.type	CapSense_SetLowBaselineReset, %function
 576              	CapSense_SetLowBaselineReset:
 577              	.LFB53:
1035:Generated_Source\PSoC4/CapSense_CSHL.c **** 
1036:Generated_Source\PSoC4/CapSense_CSHL.c **** 
1037:Generated_Source\PSoC4/CapSense_CSHL.c ****     /*******************************************************************************
1038:Generated_Source\PSoC4/CapSense_CSHL.c ****     * Function Name: CapSense_SetLowBaselineReset
1039:Generated_Source\PSoC4/CapSense_CSHL.c ****     ********************************************************************************
1040:Generated_Source\PSoC4/CapSense_CSHL.c ****     *
1041:Generated_Source\PSoC4/CapSense_CSHL.c ****     * Summary:
1042:Generated_Source\PSoC4/CapSense_CSHL.c ****     *  This API sets the low baseline reset threshold value for the sensor.
1043:Generated_Source\PSoC4/CapSense_CSHL.c ****     *
1044:Generated_Source\PSoC4/CapSense_CSHL.c ****     * Parameters:
1045:Generated_Source\PSoC4/CapSense_CSHL.c ****     *  value: low baseline reset threshold value.
1046:Generated_Source\PSoC4/CapSense_CSHL.c ****     *  sensor: Sensor index.
1047:Generated_Source\PSoC4/CapSense_CSHL.c ****     *
1048:Generated_Source\PSoC4/CapSense_CSHL.c ****     * Return Value:
1049:Generated_Source\PSoC4/CapSense_CSHL.c ****     *  None
1050:Generated_Source\PSoC4/CapSense_CSHL.c ****     *
1051:Generated_Source\PSoC4/CapSense_CSHL.c ****     * Global Variables:
1052:Generated_Source\PSoC4/CapSense_CSHL.c ****     *  CapSense_lowBaselineReset[] - This array contains the Baseline update
1053:Generated_Source\PSoC4/CapSense_CSHL.c ****     *  threshold value for each sensor.
1054:Generated_Source\PSoC4/CapSense_CSHL.c ****     *
1055:Generated_Source\PSoC4/CapSense_CSHL.c ****     * Side Effects:
1056:Generated_Source\PSoC4/CapSense_CSHL.c ****     *  None
1057:Generated_Source\PSoC4/CapSense_CSHL.c ****     *
1058:Generated_Source\PSoC4/CapSense_CSHL.c ****     *******************************************************************************/
1059:Generated_Source\PSoC4/CapSense_CSHL.c ****     void CapSense_SetLowBaselineReset(uint32 sensor, uint8 value)
1060:Generated_Source\PSoC4/CapSense_CSHL.c ****     {
 578              		.loc 1 1060 0
 579              		.cfi_startproc
 580              		@ args = 0, pretend = 0, frame = 0
 581              		@ frame_needed = 0, uses_anonymous_args = 0
 582              		@ link register save eliminated.
 583              	.LVL41:
1061:Generated_Source\PSoC4/CapSense_CSHL.c ****         CapSense_lowBaselineReset[sensor] = value;
 584              		.loc 1 1061 0
 585 0000 014B     		ldr	r3, .L56
 586 0002 1818     		adds	r0, r3, r0
 587              	.LVL42:
 588 0004 0171     		strb	r1, [r0, #4]
ARM GAS  C:\Users\SHOZO\AppData\Local\Temp\cc3BkmVy.s 			page 30


1062:Generated_Source\PSoC4/CapSense_CSHL.c ****     }
 589              		.loc 1 1062 0
 590              		@ sp needed
 591 0006 7047     		bx	lr
 592              	.L57:
 593              		.align	2
 594              	.L56:
 595 0008 00000000 		.word	.LANCHOR1
 596              		.cfi_endproc
 597              	.LFE53:
 598              		.size	CapSense_SetLowBaselineReset, .-CapSense_SetLowBaselineReset
 599              		.section	.text.CapSense_CheckIsSensorActive,"ax",%progbits
 600              		.align	2
 601              		.global	CapSense_CheckIsSensorActive
 602              		.code	16
 603              		.thumb_func
 604              		.type	CapSense_CheckIsSensorActive, %function
 605              	CapSense_CheckIsSensorActive:
 606              	.LFB54:
1063:Generated_Source\PSoC4/CapSense_CSHL.c **** #endif /* (CapSense_TUNING_METHOD != CapSense__TUNING_NONE) */
1064:Generated_Source\PSoC4/CapSense_CSHL.c **** 
1065:Generated_Source\PSoC4/CapSense_CSHL.c **** 
1066:Generated_Source\PSoC4/CapSense_CSHL.c **** /*******************************************************************************
1067:Generated_Source\PSoC4/CapSense_CSHL.c **** * Function Name: CapSense_CheckIsSensorActive
1068:Generated_Source\PSoC4/CapSense_CSHL.c **** ********************************************************************************
1069:Generated_Source\PSoC4/CapSense_CSHL.c **** *
1070:Generated_Source\PSoC4/CapSense_CSHL.c **** * Summary:
1071:Generated_Source\PSoC4/CapSense_CSHL.c **** *  Compares the CapSense_sensorSignal[sensor] array element to the finger
1072:Generated_Source\PSoC4/CapSense_CSHL.c **** *  threshold of the widget it belongs to. The hysteresis and debounce are taken into
1073:Generated_Source\PSoC4/CapSense_CSHL.c **** *  account. The hysteresis is added or subtracted from the finger threshold
1074:Generated_Source\PSoC4/CapSense_CSHL.c **** *  based on whether the sensor is currently active.
1075:Generated_Source\PSoC4/CapSense_CSHL.c **** *  If the sensor is active, the threshold is lowered by the hysteresis amount.
1076:Generated_Source\PSoC4/CapSense_CSHL.c **** *  If the sensor is inactive, the threshold is raised by the hysteresis amount.
1077:Generated_Source\PSoC4/CapSense_CSHL.c **** *  The debounce counter is added to the sensor active transition.
1078:Generated_Source\PSoC4/CapSense_CSHL.c **** *  This function updates the CapSense_sensorOnMask[] array element.
1079:Generated_Source\PSoC4/CapSense_CSHL.c **** *
1080:Generated_Source\PSoC4/CapSense_CSHL.c **** * Parameters:
1081:Generated_Source\PSoC4/CapSense_CSHL.c **** *  sensor:  Sensor number.
1082:Generated_Source\PSoC4/CapSense_CSHL.c **** *
1083:Generated_Source\PSoC4/CapSense_CSHL.c **** * Return:
1084:Generated_Source\PSoC4/CapSense_CSHL.c **** *  Returns sensor state 1 if active, 0 if not active.
1085:Generated_Source\PSoC4/CapSense_CSHL.c **** *
1086:Generated_Source\PSoC4/CapSense_CSHL.c **** * Global Variables:
1087:Generated_Source\PSoC4/CapSense_CSHL.c **** *  CapSense_sensorSignal[] - used to store the difference between
1088:Generated_Source\PSoC4/CapSense_CSHL.c **** *  the current value of raw data and a previous value of the baseline.
1089:Generated_Source\PSoC4/CapSense_CSHL.c **** *  CapSense_debounceCounter[]   - used to store the current debounce
1090:Generated_Source\PSoC4/CapSense_CSHL.c **** *  counter of the sensor. the widget which have this parameter are buttons, matrix
1091:Generated_Source\PSoC4/CapSense_CSHL.c **** *  buttons, proximity, and guard. All other widgets don't have the  debounce parameter
1092:Generated_Source\PSoC4/CapSense_CSHL.c **** *  and use the last element of this array with value 0 (it means no debounce).
1093:Generated_Source\PSoC4/CapSense_CSHL.c **** *  CapSense_sensorOnMask[] - used to store the sensors on/off state.
1094:Generated_Source\PSoC4/CapSense_CSHL.c **** *  CapSense_sensorOnMask[0] contains the masked bits for sensors
1095:Generated_Source\PSoC4/CapSense_CSHL.c **** *   0 through 7 (sensor 0 is bit 0, sensor 1 is bit 1).
1096:Generated_Source\PSoC4/CapSense_CSHL.c **** *  CapSense_sensorEnableMask[1] contains the masked bits for
1097:Generated_Source\PSoC4/CapSense_CSHL.c **** *  sensors 8 through 15 (if needed), and so on.
1098:Generated_Source\PSoC4/CapSense_CSHL.c **** *  0 - sensor is inactive.
1099:Generated_Source\PSoC4/CapSense_CSHL.c **** *  1 - sensor is active.
1100:Generated_Source\PSoC4/CapSense_CSHL.c **** *
ARM GAS  C:\Users\SHOZO\AppData\Local\Temp\cc3BkmVy.s 			page 31


1101:Generated_Source\PSoC4/CapSense_CSHL.c **** * Side Effects:
1102:Generated_Source\PSoC4/CapSense_CSHL.c **** *  None
1103:Generated_Source\PSoC4/CapSense_CSHL.c **** *
1104:Generated_Source\PSoC4/CapSense_CSHL.c **** *******************************************************************************/
1105:Generated_Source\PSoC4/CapSense_CSHL.c **** uint32 CapSense_CheckIsSensorActive(uint32 sensor)
1106:Generated_Source\PSoC4/CapSense_CSHL.c **** {
 607              		.loc 1 1106 0
 608              		.cfi_startproc
 609              		@ args = 0, pretend = 0, frame = 0
 610              		@ frame_needed = 0, uses_anonymous_args = 0
 611              	.LVL43:
 612 0000 F8B5     		push	{r3, r4, r5, r6, r7, lr}
 613              		.cfi_def_cfa_offset 24
 614              		.cfi_offset 3, -24
 615              		.cfi_offset 4, -20
 616              		.cfi_offset 5, -16
 617              		.cfi_offset 6, -12
 618              		.cfi_offset 7, -8
 619              		.cfi_offset 14, -4
 620 0002 0400     		movs	r4, r0
1107:Generated_Source\PSoC4/CapSense_CSHL.c ****     uint8 widget;
1108:Generated_Source\PSoC4/CapSense_CSHL.c ****     uint8 debounce;
1109:Generated_Source\PSoC4/CapSense_CSHL.c ****     uint8 debounceIndex;
1110:Generated_Source\PSoC4/CapSense_CSHL.c **** 
1111:Generated_Source\PSoC4/CapSense_CSHL.c ****     uint8 fingerThreshold;
1112:Generated_Source\PSoC4/CapSense_CSHL.c ****     uint8 hysteresis;
1113:Generated_Source\PSoC4/CapSense_CSHL.c ****     static uint8 CapSense_debounceCounter[] = {
1114:Generated_Source\PSoC4/CapSense_CSHL.c ****     0u, 
1115:Generated_Source\PSoC4/CapSense_CSHL.c **** };
1116:Generated_Source\PSoC4/CapSense_CSHL.c **** 
1117:Generated_Source\PSoC4/CapSense_CSHL.c **** 
1118:Generated_Source\PSoC4/CapSense_CSHL.c **** 
1119:Generated_Source\PSoC4/CapSense_CSHL.c ****     /* Prepare to find debounce counter index */
1120:Generated_Source\PSoC4/CapSense_CSHL.c ****     widget = CapSense_widgetNumber[sensor];
 621              		.loc 1 1120 0
 622 0004 224B     		ldr	r3, .L63
 623 0006 1B5C     		ldrb	r3, [r3, r0]
 624              	.LVL44:
1121:Generated_Source\PSoC4/CapSense_CSHL.c **** 
1122:Generated_Source\PSoC4/CapSense_CSHL.c ****     fingerThreshold = CapSense_fingerThreshold[widget];
 625              		.loc 1 1122 0
 626 0008 224A     		ldr	r2, .L63+4
 627 000a D65C     		ldrb	r6, [r2, r3]
 628              	.LVL45:
1123:Generated_Source\PSoC4/CapSense_CSHL.c ****     hysteresis = CapSense_hysteresis[widget];
 629              		.loc 1 1123 0
 630 000c 224A     		ldr	r2, .L63+8
 631 000e D55C     		ldrb	r5, [r2, r3]
 632              	.LVL46:
1124:Generated_Source\PSoC4/CapSense_CSHL.c ****     debounce = CapSense_debounce[widget];
 633              		.loc 1 1124 0
 634 0010 224A     		ldr	r2, .L63+12
 635 0012 D75C     		ldrb	r7, [r2, r3]
 636              	.LVL47:
1125:Generated_Source\PSoC4/CapSense_CSHL.c **** 
1126:Generated_Source\PSoC4/CapSense_CSHL.c ****         debounceIndex = CapSense_UNUSED_DEBOUNCE_COUNTER_INDEX;
1127:Generated_Source\PSoC4/CapSense_CSHL.c ****     CapSense_debounceCounter[debounceIndex] = 1u;
ARM GAS  C:\Users\SHOZO\AppData\Local\Temp\cc3BkmVy.s 			page 32


 637              		.loc 1 1127 0
 638 0014 2248     		ldr	r0, .L63+16
 639              	.LVL48:
 640 0016 0122     		movs	r2, #1
 641 0018 3023     		movs	r3, #48
 642              	.LVL49:
 643 001a C254     		strb	r2, [r0, r3]
1128:Generated_Source\PSoC4/CapSense_CSHL.c **** 
1129:Generated_Source\PSoC4/CapSense_CSHL.c **** 
1130:Generated_Source\PSoC4/CapSense_CSHL.c ****     /* Was on */
1131:Generated_Source\PSoC4/CapSense_CSHL.c ****     if (0u != CapSense_GetBitValue(CapSense_sensorOnMask, sensor))
 644              		.loc 1 1131 0
 645 001c 3430     		adds	r0, r0, #52
 646 001e 2100     		movs	r1, r4
 647 0020 FFF7FEFF 		bl	CapSense_GetBitValue
 648              	.LVL50:
 649 0024 0028     		cmp	r0, #0
 650 0026 10D0     		beq	.L59
1132:Generated_Source\PSoC4/CapSense_CSHL.c ****     {
1133:Generated_Source\PSoC4/CapSense_CSHL.c ****         /* Hysteresis minus */
1134:Generated_Source\PSoC4/CapSense_CSHL.c ****         if (CapSense_sensorSignal[sensor] < (fingerThreshold - hysteresis))
 651              		.loc 1 1134 0
 652 0028 1D4B     		ldr	r3, .L63+16
 653 002a 1B19     		adds	r3, r3, r4
 654 002c 2422     		movs	r2, #36
 655 002e 9B5C     		ldrb	r3, [r3, r2]
 656 0030 751B     		subs	r5, r6, r5
 657              	.LVL51:
 658 0032 AB42     		cmp	r3, r5
 659 0034 22DA     		bge	.L60
1135:Generated_Source\PSoC4/CapSense_CSHL.c ****         {
1136:Generated_Source\PSoC4/CapSense_CSHL.c ****             CapSense_SetBitValue(CapSense_sensorOnMask, sensor, 0u);
 660              		.loc 1 1136 0
 661 0036 1A4D     		ldr	r5, .L63+16
 662 0038 2800     		movs	r0, r5
 663 003a 3430     		adds	r0, r0, #52
 664 003c 0022     		movs	r2, #0
 665 003e 2100     		movs	r1, r4
 666 0040 FFF7FEFF 		bl	CapSense_SetBitValue
 667              	.LVL52:
1137:Generated_Source\PSoC4/CapSense_CSHL.c ****             /* Sensor inactive - reset Debounce counter */
1138:Generated_Source\PSoC4/CapSense_CSHL.c ****             CapSense_debounceCounter[debounceIndex] = debounce;
 668              		.loc 1 1138 0
 669 0044 3023     		movs	r3, #48
 670 0046 EF54     		strb	r7, [r5, r3]
 671 0048 18E0     		b	.L60
 672              	.LVL53:
 673              	.L59:
1139:Generated_Source\PSoC4/CapSense_CSHL.c ****         }
1140:Generated_Source\PSoC4/CapSense_CSHL.c ****     }
1141:Generated_Source\PSoC4/CapSense_CSHL.c ****     else    /* Was off */
1142:Generated_Source\PSoC4/CapSense_CSHL.c ****     {
1143:Generated_Source\PSoC4/CapSense_CSHL.c ****         /* Hysteresis plus */
1144:Generated_Source\PSoC4/CapSense_CSHL.c ****         if (CapSense_sensorSignal[sensor] >= (fingerThreshold + hysteresis))
 674              		.loc 1 1144 0
 675 004a 154B     		ldr	r3, .L63+16
 676 004c 1B19     		adds	r3, r3, r4
ARM GAS  C:\Users\SHOZO\AppData\Local\Temp\cc3BkmVy.s 			page 33


 677 004e 2422     		movs	r2, #36
 678 0050 9B5C     		ldrb	r3, [r3, r2]
 679 0052 7519     		adds	r5, r6, r5
 680              	.LVL54:
 681 0054 AB42     		cmp	r3, r5
 682 0056 0EDB     		blt	.L61
1145:Generated_Source\PSoC4/CapSense_CSHL.c ****         {
1146:Generated_Source\PSoC4/CapSense_CSHL.c ****             CapSense_debounceCounter[debounceIndex]--;
 683              		.loc 1 1146 0
 684 0058 1149     		ldr	r1, .L63+16
 685 005a 0C32     		adds	r2, r2, #12
 686 005c 8B5C     		ldrb	r3, [r1, r2]
 687 005e 013B     		subs	r3, r3, #1
 688 0060 DBB2     		uxtb	r3, r3
 689 0062 8B54     		strb	r3, [r1, r2]
1147:Generated_Source\PSoC4/CapSense_CSHL.c ****             /* Sensor active, decrement debounce counter */
1148:Generated_Source\PSoC4/CapSense_CSHL.c ****             if(CapSense_debounceCounter[debounceIndex] == 0u)
 690              		.loc 1 1148 0
 691 0064 002B     		cmp	r3, #0
 692 0066 09D1     		bne	.L60
1149:Generated_Source\PSoC4/CapSense_CSHL.c ****             {
1150:Generated_Source\PSoC4/CapSense_CSHL.c ****                 CapSense_SetBitValue(CapSense_sensorOnMask, sensor, 1u);
 693              		.loc 1 1150 0
 694 0068 2F3A     		subs	r2, r2, #47
 695 006a 2100     		movs	r1, r4
 696 006c 0C48     		ldr	r0, .L63+16
 697 006e 3430     		adds	r0, r0, #52
 698 0070 FFF7FEFF 		bl	CapSense_SetBitValue
 699              	.LVL55:
 700 0074 02E0     		b	.L60
 701              	.L61:
1151:Generated_Source\PSoC4/CapSense_CSHL.c ****             }
1152:Generated_Source\PSoC4/CapSense_CSHL.c ****         }
1153:Generated_Source\PSoC4/CapSense_CSHL.c ****         else
1154:Generated_Source\PSoC4/CapSense_CSHL.c ****         {
1155:Generated_Source\PSoC4/CapSense_CSHL.c ****             /* Sensor inactive - reset Debounce counter */
1156:Generated_Source\PSoC4/CapSense_CSHL.c ****             CapSense_debounceCounter[debounceIndex] = debounce;
 702              		.loc 1 1156 0
 703 0076 3023     		movs	r3, #48
 704 0078 094A     		ldr	r2, .L63+16
 705 007a D754     		strb	r7, [r2, r3]
 706              	.L60:
1157:Generated_Source\PSoC4/CapSense_CSHL.c ****         }
1158:Generated_Source\PSoC4/CapSense_CSHL.c ****     }
1159:Generated_Source\PSoC4/CapSense_CSHL.c **** 
1160:Generated_Source\PSoC4/CapSense_CSHL.c ****     return ((uint32)((0u != CapSense_GetBitValue(CapSense_sensorOnMask, sensor)) ? 1u : 0u));
 707              		.loc 1 1160 0
 708 007c 2100     		movs	r1, r4
 709 007e 0848     		ldr	r0, .L63+16
 710 0080 3430     		adds	r0, r0, #52
 711 0082 FFF7FEFF 		bl	CapSense_GetBitValue
 712              	.LVL56:
 713 0086 0028     		cmp	r0, #0
 714 0088 00D0     		beq	.L62
 715 008a 0120     		movs	r0, #1
 716              	.L62:
1161:Generated_Source\PSoC4/CapSense_CSHL.c **** }
ARM GAS  C:\Users\SHOZO\AppData\Local\Temp\cc3BkmVy.s 			page 34


 717              		.loc 1 1161 0 discriminator 4
 718              		@ sp needed
 719              	.LVL57:
 720              	.LVL58:
 721              	.LVL59:
 722 008c F8BD     		pop	{r3, r4, r5, r6, r7, pc}
 723              	.L64:
 724 008e C046     		.align	2
 725              	.L63:
 726 0090 00000000 		.word	CapSense_widgetNumber
 727 0094 00000000 		.word	CapSense_fingerThreshold
 728 0098 00000000 		.word	CapSense_hysteresis
 729 009c 00000000 		.word	.LANCHOR1
 730 00a0 00000000 		.word	.LANCHOR0
 731              		.cfi_endproc
 732              	.LFE54:
 733              		.size	CapSense_CheckIsSensorActive, .-CapSense_CheckIsSensorActive
 734              		.section	.text.CapSense_CheckIsWidgetActive,"ax",%progbits
 735              		.align	2
 736              		.global	CapSense_CheckIsWidgetActive
 737              		.code	16
 738              		.thumb_func
 739              		.type	CapSense_CheckIsWidgetActive, %function
 740              	CapSense_CheckIsWidgetActive:
 741              	.LFB55:
1162:Generated_Source\PSoC4/CapSense_CSHL.c **** 
1163:Generated_Source\PSoC4/CapSense_CSHL.c **** 
1164:Generated_Source\PSoC4/CapSense_CSHL.c **** /*******************************************************************************
1165:Generated_Source\PSoC4/CapSense_CSHL.c **** * Function Name: CapSense_CheckIsWidgetActive
1166:Generated_Source\PSoC4/CapSense_CSHL.c **** ********************************************************************************
1167:Generated_Source\PSoC4/CapSense_CSHL.c **** *
1168:Generated_Source\PSoC4/CapSense_CSHL.c **** * Summary:
1169:Generated_Source\PSoC4/CapSense_CSHL.c **** *  Compares the CapSense_sensorSignal[] array element to the finger threshold of
1170:Generated_Source\PSoC4/CapSense_CSHL.c **** * the widget it belongs to. The hysteresis and debounce are taken into account.
1171:Generated_Source\PSoC4/CapSense_CSHL.c **** * The hysteresis is added or subtracted from the finger threshold based on whether
1172:Generated_Source\PSoC4/CapSense_CSHL.c **** *  the sensor is currently active. If the sensor is active, the threshold is
1173:Generated_Source\PSoC4/CapSense_CSHL.c **** *  lowered by the hysteresis amount. If the sensor is inactive, the threshold
1174:Generated_Source\PSoC4/CapSense_CSHL.c **** *  is raised by the hysteresis amount.
1175:Generated_Source\PSoC4/CapSense_CSHL.c **** * The debounce counter added to the sensor active transition.
1176:Generated_Source\PSoC4/CapSense_CSHL.c **** * This function updates CapSense_sensorOnMask[] array element
1177:Generated_Source\PSoC4/CapSense_CSHL.c **** *
1178:Generated_Source\PSoC4/CapSense_CSHL.c **** * Parameters:
1179:Generated_Source\PSoC4/CapSense_CSHL.c **** *  widget:  widget number.
1180:Generated_Source\PSoC4/CapSense_CSHL.c **** *
1181:Generated_Source\PSoC4/CapSense_CSHL.c **** * Return:
1182:Generated_Source\PSoC4/CapSense_CSHL.c **** *  Returns widget sensor state 1 if one or more sensors within widget is/are
1183:Generated_Source\PSoC4/CapSense_CSHL.c **** *  active, 0 if all sensors within widget are inactive.
1184:Generated_Source\PSoC4/CapSense_CSHL.c **** *
1185:Generated_Source\PSoC4/CapSense_CSHL.c **** * Global Variables:
1186:Generated_Source\PSoC4/CapSense_CSHL.c **** *  rawDataIndex[]: Contains the  1st sensor position in the widget
1187:Generated_Source\PSoC4/CapSense_CSHL.c **** *
1188:Generated_Source\PSoC4/CapSense_CSHL.c **** * Side Effects:
1189:Generated_Source\PSoC4/CapSense_CSHL.c **** *  None
1190:Generated_Source\PSoC4/CapSense_CSHL.c **** *
1191:Generated_Source\PSoC4/CapSense_CSHL.c **** *******************************************************************************/
1192:Generated_Source\PSoC4/CapSense_CSHL.c **** uint32 CapSense_CheckIsWidgetActive(uint32 widget)
1193:Generated_Source\PSoC4/CapSense_CSHL.c **** {
ARM GAS  C:\Users\SHOZO\AppData\Local\Temp\cc3BkmVy.s 			page 35


 742              		.loc 1 1193 0
 743              		.cfi_startproc
 744              		@ args = 0, pretend = 0, frame = 0
 745              		@ frame_needed = 0, uses_anonymous_args = 0
 746              	.LVL60:
 747 0000 70B5     		push	{r4, r5, r6, lr}
 748              		.cfi_def_cfa_offset 16
 749              		.cfi_offset 4, -16
 750              		.cfi_offset 5, -12
 751              		.cfi_offset 6, -8
 752              		.cfi_offset 14, -4
 753              	.LVL61:
1194:Generated_Source\PSoC4/CapSense_CSHL.c ****     uint32 rawIndex = (uint32)CapSense_rawDataIndex[widget];
1195:Generated_Source\PSoC4/CapSense_CSHL.c ****     uint32 numOfSensors = (uint32)CapSense_numberOfSensors[widget] + rawIndex;
1196:Generated_Source\PSoC4/CapSense_CSHL.c ****     uint32 state = 0u;
 754              		.loc 1 1196 0
 755 0002 0025     		movs	r5, #0
1194:Generated_Source\PSoC4/CapSense_CSHL.c ****     uint32 rawIndex = (uint32)CapSense_rawDataIndex[widget];
 756              		.loc 1 1194 0
 757 0004 0024     		movs	r4, #0
 758              	.LVL62:
 759              	.L67:
1197:Generated_Source\PSoC4/CapSense_CSHL.c **** 
1198:Generated_Source\PSoC4/CapSense_CSHL.c ****     /* Check all sensors of widget */
1199:Generated_Source\PSoC4/CapSense_CSHL.c ****     do
1200:Generated_Source\PSoC4/CapSense_CSHL.c ****     {
1201:Generated_Source\PSoC4/CapSense_CSHL.c ****         if(CapSense_CheckIsSensorActive((uint32)rawIndex) != 0u)
 760              		.loc 1 1201 0
 761 0006 2000     		movs	r0, r4
 762 0008 FFF7FEFF 		bl	CapSense_CheckIsSensorActive
 763              	.LVL63:
 764 000c 0028     		cmp	r0, #0
 765 000e 00D0     		beq	.L66
1202:Generated_Source\PSoC4/CapSense_CSHL.c ****         {
1203:Generated_Source\PSoC4/CapSense_CSHL.c ****             state = CapSense_SENSOR_IS_ACTIVE;
 766              		.loc 1 1203 0
 767 0010 0125     		movs	r5, #1
 768              	.LVL64:
 769              	.L66:
1204:Generated_Source\PSoC4/CapSense_CSHL.c ****         }
1205:Generated_Source\PSoC4/CapSense_CSHL.c ****         rawIndex++;
 770              		.loc 1 1205 0
 771 0012 0134     		adds	r4, r4, #1
 772              	.LVL65:
1206:Generated_Source\PSoC4/CapSense_CSHL.c ****     }
1207:Generated_Source\PSoC4/CapSense_CSHL.c ****     while(rawIndex < numOfSensors);
 773              		.loc 1 1207 0
 774 0014 0B2C     		cmp	r4, #11
 775 0016 F6D9     		bls	.L67
1208:Generated_Source\PSoC4/CapSense_CSHL.c **** 
1209:Generated_Source\PSoC4/CapSense_CSHL.c **** 
1210:Generated_Source\PSoC4/CapSense_CSHL.c **** 
1211:Generated_Source\PSoC4/CapSense_CSHL.c ****     return state;
1212:Generated_Source\PSoC4/CapSense_CSHL.c **** }
 776              		.loc 1 1212 0
 777 0018 2800     		movs	r0, r5
 778              		@ sp needed
ARM GAS  C:\Users\SHOZO\AppData\Local\Temp\cc3BkmVy.s 			page 36


 779              	.LVL66:
 780              	.LVL67:
 781 001a 70BD     		pop	{r4, r5, r6, pc}
 782              		.cfi_endproc
 783              	.LFE55:
 784              		.size	CapSense_CheckIsWidgetActive, .-CapSense_CheckIsWidgetActive
 785              		.section	.text.CapSense_CheckIsAnyWidgetActive,"ax",%progbits
 786              		.align	2
 787              		.global	CapSense_CheckIsAnyWidgetActive
 788              		.code	16
 789              		.thumb_func
 790              		.type	CapSense_CheckIsAnyWidgetActive, %function
 791              	CapSense_CheckIsAnyWidgetActive:
 792              	.LFB56:
1213:Generated_Source\PSoC4/CapSense_CSHL.c **** 
1214:Generated_Source\PSoC4/CapSense_CSHL.c **** 
1215:Generated_Source\PSoC4/CapSense_CSHL.c **** /*******************************************************************************
1216:Generated_Source\PSoC4/CapSense_CSHL.c **** * Function Name: CapSense_CheckIsAnyWidgetActive
1217:Generated_Source\PSoC4/CapSense_CSHL.c **** ********************************************************************************
1218:Generated_Source\PSoC4/CapSense_CSHL.c **** *
1219:Generated_Source\PSoC4/CapSense_CSHL.c **** * Summary:
1220:Generated_Source\PSoC4/CapSense_CSHL.c **** *  Compares all the sensors of the CapSense_Signal[] array to their finger
1221:Generated_Source\PSoC4/CapSense_CSHL.c **** *  threshold. Calls CapSense_CheckIsWidgetActive() for each widget so
1222:Generated_Source\PSoC4/CapSense_CSHL.c **** *  the CapSense_sensorOnMask[] array is up to date after calling this
1223:Generated_Source\PSoC4/CapSense_CSHL.c **** *  function.
1224:Generated_Source\PSoC4/CapSense_CSHL.c **** *
1225:Generated_Source\PSoC4/CapSense_CSHL.c **** * Parameters:
1226:Generated_Source\PSoC4/CapSense_CSHL.c **** *  widget:  widget number.
1227:Generated_Source\PSoC4/CapSense_CSHL.c **** *
1228:Generated_Source\PSoC4/CapSense_CSHL.c **** * Return:
1229:Generated_Source\PSoC4/CapSense_CSHL.c **** *  Returns 1 if any widget is active, 0 none of widgets are active.
1230:Generated_Source\PSoC4/CapSense_CSHL.c **** *
1231:Generated_Source\PSoC4/CapSense_CSHL.c **** * Global Variables:
1232:Generated_Source\PSoC4/CapSense_CSHL.c **** *  None
1233:Generated_Source\PSoC4/CapSense_CSHL.c **** *
1234:Generated_Source\PSoC4/CapSense_CSHL.c **** * Side Effects:
1235:Generated_Source\PSoC4/CapSense_CSHL.c **** *  None
1236:Generated_Source\PSoC4/CapSense_CSHL.c **** *
1237:Generated_Source\PSoC4/CapSense_CSHL.c **** *******************************************************************************/
1238:Generated_Source\PSoC4/CapSense_CSHL.c **** uint32 CapSense_CheckIsAnyWidgetActive(void)
1239:Generated_Source\PSoC4/CapSense_CSHL.c **** {
 793              		.loc 1 1239 0
 794              		.cfi_startproc
 795              		@ args = 0, pretend = 0, frame = 0
 796              		@ frame_needed = 0, uses_anonymous_args = 0
 797 0000 70B5     		push	{r4, r5, r6, lr}
 798              		.cfi_def_cfa_offset 16
 799              		.cfi_offset 4, -16
 800              		.cfi_offset 5, -12
 801              		.cfi_offset 6, -8
 802              		.cfi_offset 14, -4
 803              	.LVL68:
1240:Generated_Source\PSoC4/CapSense_CSHL.c **** 
1241:Generated_Source\PSoC4/CapSense_CSHL.c ****         uint32 i;
1242:Generated_Source\PSoC4/CapSense_CSHL.c ****     uint32 state = 0u;
 804              		.loc 1 1242 0
 805 0002 0025     		movs	r5, #0
ARM GAS  C:\Users\SHOZO\AppData\Local\Temp\cc3BkmVy.s 			page 37


1243:Generated_Source\PSoC4/CapSense_CSHL.c ****     
1244:Generated_Source\PSoC4/CapSense_CSHL.c ****     for(i = 0u; i < CapSense_TOTAL_WIDGET_COUNT; i++)
 806              		.loc 1 1244 0
 807 0004 0024     		movs	r4, #0
 808 0006 06E0     		b	.L70
 809              	.LVL69:
 810              	.L72:
1245:Generated_Source\PSoC4/CapSense_CSHL.c ****     {
1246:Generated_Source\PSoC4/CapSense_CSHL.c ****         if (CapSense_CheckIsWidgetActive(i) != 0u)
 811              		.loc 1 1246 0
 812 0008 2000     		movs	r0, r4
 813 000a FFF7FEFF 		bl	CapSense_CheckIsWidgetActive
 814              	.LVL70:
 815 000e 0028     		cmp	r0, #0
 816 0010 00D0     		beq	.L71
1247:Generated_Source\PSoC4/CapSense_CSHL.c ****         {
1248:Generated_Source\PSoC4/CapSense_CSHL.c ****             state = CapSense_WIDGET_IS_ACTIVE;
 817              		.loc 1 1248 0
 818 0012 0125     		movs	r5, #1
 819              	.LVL71:
 820              	.L71:
1244:Generated_Source\PSoC4/CapSense_CSHL.c ****     {
 821              		.loc 1 1244 0 discriminator 2
 822 0014 0134     		adds	r4, r4, #1
 823              	.LVL72:
 824              	.L70:
1244:Generated_Source\PSoC4/CapSense_CSHL.c ****     {
 825              		.loc 1 1244 0 is_stmt 0 discriminator 1
 826 0016 002C     		cmp	r4, #0
 827 0018 F6D0     		beq	.L72
1249:Generated_Source\PSoC4/CapSense_CSHL.c ****         }
1250:Generated_Source\PSoC4/CapSense_CSHL.c ****     }
1251:Generated_Source\PSoC4/CapSense_CSHL.c ****     
1252:Generated_Source\PSoC4/CapSense_CSHL.c **** 
1253:Generated_Source\PSoC4/CapSense_CSHL.c **** 
1254:Generated_Source\PSoC4/CapSense_CSHL.c ****     return state;
1255:Generated_Source\PSoC4/CapSense_CSHL.c **** }
 828              		.loc 1 1255 0 is_stmt 1
 829 001a 2800     		movs	r0, r5
 830              		@ sp needed
 831              	.LVL73:
 832              	.LVL74:
 833 001c 70BD     		pop	{r4, r5, r6, pc}
 834              		.cfi_endproc
 835              	.LFE56:
 836              		.size	CapSense_CheckIsAnyWidgetActive, .-CapSense_CheckIsAnyWidgetActive
 837 001e C046     		.section	.text.CapSense_EnableWidget,"ax",%progbits
 838              		.align	2
 839              		.global	CapSense_EnableWidget
 840              		.code	16
 841              		.thumb_func
 842              		.type	CapSense_EnableWidget, %function
 843              	CapSense_EnableWidget:
 844              	.LFB57:
1256:Generated_Source\PSoC4/CapSense_CSHL.c **** 
1257:Generated_Source\PSoC4/CapSense_CSHL.c **** 
1258:Generated_Source\PSoC4/CapSense_CSHL.c **** /*******************************************************************************
ARM GAS  C:\Users\SHOZO\AppData\Local\Temp\cc3BkmVy.s 			page 38


1259:Generated_Source\PSoC4/CapSense_CSHL.c **** * Function Name: CapSense_EnableWidget
1260:Generated_Source\PSoC4/CapSense_CSHL.c **** ********************************************************************************
1261:Generated_Source\PSoC4/CapSense_CSHL.c **** *
1262:Generated_Source\PSoC4/CapSense_CSHL.c **** * Summary:
1263:Generated_Source\PSoC4/CapSense_CSHL.c **** *  Enables all the widget elements (sensors) to the scanning process.
1264:Generated_Source\PSoC4/CapSense_CSHL.c **** *
1265:Generated_Source\PSoC4/CapSense_CSHL.c **** * Parameters:
1266:Generated_Source\PSoC4/CapSense_CSHL.c **** *  widget:  widget number.
1267:Generated_Source\PSoC4/CapSense_CSHL.c **** *
1268:Generated_Source\PSoC4/CapSense_CSHL.c **** * Return:
1269:Generated_Source\PSoC4/CapSense_CSHL.c **** *  None
1270:Generated_Source\PSoC4/CapSense_CSHL.c **** *
1271:Generated_Source\PSoC4/CapSense_CSHL.c **** * Global Variables:
1272:Generated_Source\PSoC4/CapSense_CSHL.c **** *  CapSense_sensorEnableMask[] - used to store the sensor scanning
1273:Generated_Source\PSoC4/CapSense_CSHL.c **** *  state.
1274:Generated_Source\PSoC4/CapSense_CSHL.c **** *  CapSense_sensorEnableMask[0] contains the masked bits for sensors
1275:Generated_Source\PSoC4/CapSense_CSHL.c **** *  0 through 7 (sensor 0 is bit 0, sensor 1 is bit 1).
1276:Generated_Source\PSoC4/CapSense_CSHL.c **** *  CapSense_sensorEnableMask[1] contains the masked bits for
1277:Generated_Source\PSoC4/CapSense_CSHL.c **** *  sensors 8 through 15 (if needed), and so on.
1278:Generated_Source\PSoC4/CapSense_CSHL.c **** *  0 - sensor doesn't scan by CapSense_ScanEnabledWidgets().
1279:Generated_Source\PSoC4/CapSense_CSHL.c **** *  1 - sensor scans by CapSense_ScanEnabledWidgets().
1280:Generated_Source\PSoC4/CapSense_CSHL.c **** *
1281:Generated_Source\PSoC4/CapSense_CSHL.c **** * Side Effects:
1282:Generated_Source\PSoC4/CapSense_CSHL.c **** *  None
1283:Generated_Source\PSoC4/CapSense_CSHL.c **** *
1284:Generated_Source\PSoC4/CapSense_CSHL.c **** *******************************************************************************/
1285:Generated_Source\PSoC4/CapSense_CSHL.c **** void CapSense_EnableWidget(uint32 widget)
1286:Generated_Source\PSoC4/CapSense_CSHL.c **** {
 845              		.loc 1 1286 0
 846              		.cfi_startproc
 847              		@ args = 0, pretend = 0, frame = 0
 848              		@ frame_needed = 0, uses_anonymous_args = 0
 849              	.LVL75:
 850 0000 10B5     		push	{r4, lr}
 851              		.cfi_def_cfa_offset 8
 852              		.cfi_offset 4, -8
 853              		.cfi_offset 14, -4
 854              	.LVL76:
1287:Generated_Source\PSoC4/CapSense_CSHL.c **** 
1288:Generated_Source\PSoC4/CapSense_CSHL.c ****     uint8 rawIndex = CapSense_rawDataIndex[widget];
 855              		.loc 1 1288 0
 856 0002 0024     		movs	r4, #0
 857              	.LVL77:
 858              	.L75:
1289:Generated_Source\PSoC4/CapSense_CSHL.c ****     uint8 numOfSensors = CapSense_numberOfSensors[widget] + rawIndex;
1290:Generated_Source\PSoC4/CapSense_CSHL.c **** 
1291:Generated_Source\PSoC4/CapSense_CSHL.c ****     /* Enable all sensors of widget */
1292:Generated_Source\PSoC4/CapSense_CSHL.c ****     do
1293:Generated_Source\PSoC4/CapSense_CSHL.c ****     {
1294:Generated_Source\PSoC4/CapSense_CSHL.c ****         CapSense_SetBitValue(CapSense_sensorEnableMask, (uint32)rawIndex, 1u);
 859              		.loc 1 1294 0 discriminator 1
 860 0004 0122     		movs	r2, #1
 861 0006 2100     		movs	r1, r4
 862 0008 0348     		ldr	r0, .L76
 863 000a FFF7FEFF 		bl	CapSense_SetBitValue
 864              	.LVL78:
1295:Generated_Source\PSoC4/CapSense_CSHL.c ****         rawIndex++;
ARM GAS  C:\Users\SHOZO\AppData\Local\Temp\cc3BkmVy.s 			page 39


 865              		.loc 1 1295 0 discriminator 1
 866 000e 0134     		adds	r4, r4, #1
 867              	.LVL79:
 868 0010 E4B2     		uxtb	r4, r4
 869              	.LVL80:
1296:Generated_Source\PSoC4/CapSense_CSHL.c ****     }
1297:Generated_Source\PSoC4/CapSense_CSHL.c ****     while(rawIndex < numOfSensors);
 870              		.loc 1 1297 0 discriminator 1
 871 0012 0B2C     		cmp	r4, #11
 872 0014 F6D9     		bls	.L75
1298:Generated_Source\PSoC4/CapSense_CSHL.c **** }
 873              		.loc 1 1298 0
 874              		@ sp needed
 875              	.LVL81:
 876 0016 10BD     		pop	{r4, pc}
 877              	.L77:
 878              		.align	2
 879              	.L76:
 880 0018 00000000 		.word	CapSense_sensorEnableMask
 881              		.cfi_endproc
 882              	.LFE57:
 883              		.size	CapSense_EnableWidget, .-CapSense_EnableWidget
 884              		.section	.text.CapSense_DisableWidget,"ax",%progbits
 885              		.align	2
 886              		.global	CapSense_DisableWidget
 887              		.code	16
 888              		.thumb_func
 889              		.type	CapSense_DisableWidget, %function
 890              	CapSense_DisableWidget:
 891              	.LFB58:
1299:Generated_Source\PSoC4/CapSense_CSHL.c **** 
1300:Generated_Source\PSoC4/CapSense_CSHL.c **** 
1301:Generated_Source\PSoC4/CapSense_CSHL.c **** /*******************************************************************************
1302:Generated_Source\PSoC4/CapSense_CSHL.c **** * Function Name: CapSense_DisableWidget
1303:Generated_Source\PSoC4/CapSense_CSHL.c **** ********************************************************************************
1304:Generated_Source\PSoC4/CapSense_CSHL.c **** *
1305:Generated_Source\PSoC4/CapSense_CSHL.c **** * Summary:
1306:Generated_Source\PSoC4/CapSense_CSHL.c **** *  Disables all the widget elements (sensors) from the scanning process.
1307:Generated_Source\PSoC4/CapSense_CSHL.c **** *
1308:Generated_Source\PSoC4/CapSense_CSHL.c **** * Parameters:
1309:Generated_Source\PSoC4/CapSense_CSHL.c **** *  widget:  widget number.
1310:Generated_Source\PSoC4/CapSense_CSHL.c **** *
1311:Generated_Source\PSoC4/CapSense_CSHL.c **** * Return:
1312:Generated_Source\PSoC4/CapSense_CSHL.c **** *  None
1313:Generated_Source\PSoC4/CapSense_CSHL.c **** *
1314:Generated_Source\PSoC4/CapSense_CSHL.c **** * Global Variables:
1315:Generated_Source\PSoC4/CapSense_CSHL.c **** *  CapSense_sensorEnableMask[] - used to store the sensor scanning
1316:Generated_Source\PSoC4/CapSense_CSHL.c **** *  state.
1317:Generated_Source\PSoC4/CapSense_CSHL.c **** *  CapSense_sensorEnableMask[0] contains the masked bits for sensors
1318:Generated_Source\PSoC4/CapSense_CSHL.c **** *  0 through 7 (sensor 0 is bit 0, sensor 1 is bit 1).
1319:Generated_Source\PSoC4/CapSense_CSHL.c **** *  CapSense_sensorEnableMask[1] contains the masked bits for
1320:Generated_Source\PSoC4/CapSense_CSHL.c **** *  sensors 8 through 15 (if needed), and so on.
1321:Generated_Source\PSoC4/CapSense_CSHL.c **** *  0 - sensor isn't scanned by CapSense_ScanEnabledWidgets().
1322:Generated_Source\PSoC4/CapSense_CSHL.c **** *  1 - sensor is scanned by CapSense_ScanEnabledWidgets().
1323:Generated_Source\PSoC4/CapSense_CSHL.c **** *
1324:Generated_Source\PSoC4/CapSense_CSHL.c **** * Side Effects:
1325:Generated_Source\PSoC4/CapSense_CSHL.c **** *  None
ARM GAS  C:\Users\SHOZO\AppData\Local\Temp\cc3BkmVy.s 			page 40


1326:Generated_Source\PSoC4/CapSense_CSHL.c **** *
1327:Generated_Source\PSoC4/CapSense_CSHL.c **** *******************************************************************************/
1328:Generated_Source\PSoC4/CapSense_CSHL.c **** void CapSense_DisableWidget(uint32 widget)
1329:Generated_Source\PSoC4/CapSense_CSHL.c **** {
 892              		.loc 1 1329 0
 893              		.cfi_startproc
 894              		@ args = 0, pretend = 0, frame = 0
 895              		@ frame_needed = 0, uses_anonymous_args = 0
 896              	.LVL82:
 897 0000 10B5     		push	{r4, lr}
 898              		.cfi_def_cfa_offset 8
 899              		.cfi_offset 4, -8
 900              		.cfi_offset 14, -4
 901              	.LVL83:
1330:Generated_Source\PSoC4/CapSense_CSHL.c ****     uint8 rawIndex = CapSense_rawDataIndex[widget];
 902              		.loc 1 1330 0
 903 0002 0024     		movs	r4, #0
 904              	.LVL84:
 905              	.L79:
1331:Generated_Source\PSoC4/CapSense_CSHL.c ****     uint8 numOfSensors = CapSense_numberOfSensors[widget] + rawIndex;
1332:Generated_Source\PSoC4/CapSense_CSHL.c **** 
1333:Generated_Source\PSoC4/CapSense_CSHL.c ****     /* Disable all sensors of widget */
1334:Generated_Source\PSoC4/CapSense_CSHL.c ****     do
1335:Generated_Source\PSoC4/CapSense_CSHL.c ****     {
1336:Generated_Source\PSoC4/CapSense_CSHL.c **** 
1337:Generated_Source\PSoC4/CapSense_CSHL.c ****         CapSense_SetBitValue(CapSense_sensorEnableMask, (uint32)rawIndex, 0u);
 906              		.loc 1 1337 0 discriminator 1
 907 0004 0022     		movs	r2, #0
 908 0006 2100     		movs	r1, r4
 909 0008 0348     		ldr	r0, .L80
 910 000a FFF7FEFF 		bl	CapSense_SetBitValue
 911              	.LVL85:
1338:Generated_Source\PSoC4/CapSense_CSHL.c ****         rawIndex++;
 912              		.loc 1 1338 0 discriminator 1
 913 000e 0134     		adds	r4, r4, #1
 914              	.LVL86:
 915 0010 E4B2     		uxtb	r4, r4
 916              	.LVL87:
1339:Generated_Source\PSoC4/CapSense_CSHL.c ****     }
1340:Generated_Source\PSoC4/CapSense_CSHL.c ****     while(rawIndex < numOfSensors);
 917              		.loc 1 1340 0 discriminator 1
 918 0012 0B2C     		cmp	r4, #11
 919 0014 F6D9     		bls	.L79
1341:Generated_Source\PSoC4/CapSense_CSHL.c **** }
 920              		.loc 1 1341 0
 921              		@ sp needed
 922              	.LVL88:
 923 0016 10BD     		pop	{r4, pc}
 924              	.L81:
 925              		.align	2
 926              	.L80:
 927 0018 00000000 		.word	CapSense_sensorEnableMask
 928              		.cfi_endproc
 929              	.LFE58:
 930              		.size	CapSense_DisableWidget, .-CapSense_DisableWidget
 931              		.section	.text.CapSense_FindMaximum,"ax",%progbits
 932              		.align	2
ARM GAS  C:\Users\SHOZO\AppData\Local\Temp\cc3BkmVy.s 			page 41


 933              		.global	CapSense_FindMaximum
 934              		.code	16
 935              		.thumb_func
 936              		.type	CapSense_FindMaximum, %function
 937              	CapSense_FindMaximum:
 938              	.LFB59:
1342:Generated_Source\PSoC4/CapSense_CSHL.c **** 
1343:Generated_Source\PSoC4/CapSense_CSHL.c **** 
1344:Generated_Source\PSoC4/CapSense_CSHL.c **** #if(CapSense_TOTAL_CENTROIDS_BASIC_COUNT)
1345:Generated_Source\PSoC4/CapSense_CSHL.c ****     /*******************************************************************************
1346:Generated_Source\PSoC4/CapSense_CSHL.c ****     * Function Name: CapSense_FindMaximum
1347:Generated_Source\PSoC4/CapSense_CSHL.c ****     ********************************************************************************
1348:Generated_Source\PSoC4/CapSense_CSHL.c ****     *
1349:Generated_Source\PSoC4/CapSense_CSHL.c ****     * Summary:
1350:Generated_Source\PSoC4/CapSense_CSHL.c ****     *  Finds the index of the maximum element within a defined centroid. Checks
1351:Generated_Source\PSoC4/CapSense_CSHL.c ****     *  CapSense_sensorSignal[] within a defined centroid and
1352:Generated_Source\PSoC4/CapSense_CSHL.c ****     *  returns the index of the maximum element. The values below the finger threshold are
1353:Generated_Source\PSoC4/CapSense_CSHL.c ****     *  ignored.
1354:Generated_Source\PSoC4/CapSense_CSHL.c ****     *  The centroid is defined by offset of the first element and a number of elements - count.
1355:Generated_Source\PSoC4/CapSense_CSHL.c ****     *  The diplexed centroid requires at least two consecutive elements above
1356:Generated_Source\PSoC4/CapSense_CSHL.c ****     *  FingerThreshold to find the index of the maximum element.
1357:Generated_Source\PSoC4/CapSense_CSHL.c ****     *
1358:Generated_Source\PSoC4/CapSense_CSHL.c ****     * Parameters:
1359:Generated_Source\PSoC4/CapSense_CSHL.c ****     *  offset:  Start index of centroid in CapSense_sensorSignal[] array.
1360:Generated_Source\PSoC4/CapSense_CSHL.c ****     *  count:   number of elements within centroid.
1361:Generated_Source\PSoC4/CapSense_CSHL.c ****     *  fingerThreshold:  Finger threshold.
1362:Generated_Source\PSoC4/CapSense_CSHL.c ****     *  diplex:   pointer to diplex table.
1363:Generated_Source\PSoC4/CapSense_CSHL.c ****     *
1364:Generated_Source\PSoC4/CapSense_CSHL.c ****     * Return:
1365:Generated_Source\PSoC4/CapSense_CSHL.c ****     *  Returns the index of the maximum element within a defined centroid.
1366:Generated_Source\PSoC4/CapSense_CSHL.c ****     *  If the index of the maximum element isn't found it returns 0xFF.
1367:Generated_Source\PSoC4/CapSense_CSHL.c ****     *
1368:Generated_Source\PSoC4/CapSense_CSHL.c ****     * Global Variables:
1369:Generated_Source\PSoC4/CapSense_CSHL.c ****     *  CapSense_startOfSlider[] - contains the index of the first slider element
1370:Generated_Source\PSoC4/CapSense_CSHL.c ****     *
1371:Generated_Source\PSoC4/CapSense_CSHL.c ****     * Side Effects:
1372:Generated_Source\PSoC4/CapSense_CSHL.c ****     *  None
1373:Generated_Source\PSoC4/CapSense_CSHL.c ****     *
1374:Generated_Source\PSoC4/CapSense_CSHL.c ****     *******************************************************************************/
1375:Generated_Source\PSoC4/CapSense_CSHL.c ****     #if (CapSense_IS_DIPLEX_SLIDER)
1376:Generated_Source\PSoC4/CapSense_CSHL.c ****         uint8 CapSense_FindMaximum(uint8 offset, uint8 count, uint8 fingerThreshold, const uint8 *d
1377:Generated_Source\PSoC4/CapSense_CSHL.c ****     #else
1378:Generated_Source\PSoC4/CapSense_CSHL.c ****         uint8 CapSense_FindMaximum(uint8 offset, uint8 count, uint8 fingerThreshold)
1379:Generated_Source\PSoC4/CapSense_CSHL.c ****     #endif /* (CapSense_IS_DIPLEX_SLIDER) */
1380:Generated_Source\PSoC4/CapSense_CSHL.c ****     {
 939              		.loc 1 1380 0
 940              		.cfi_startproc
 941              		@ args = 0, pretend = 0, frame = 0
 942              		@ frame_needed = 0, uses_anonymous_args = 0
 943              	.LVL89:
 944 0000 70B5     		push	{r4, r5, r6, lr}
 945              		.cfi_def_cfa_offset 16
 946              		.cfi_offset 4, -16
 947              		.cfi_offset 5, -12
 948              		.cfi_offset 6, -8
 949              		.cfi_offset 14, -4
 950              	.LVL90:
ARM GAS  C:\Users\SHOZO\AppData\Local\Temp\cc3BkmVy.s 			page 42


1381:Generated_Source\PSoC4/CapSense_CSHL.c ****         uint8 i;
1382:Generated_Source\PSoC4/CapSense_CSHL.c ****         #if (CapSense_IS_DIPLEX_SLIDER)
1383:Generated_Source\PSoC4/CapSense_CSHL.c ****             uint8 curPos = 0u;
1384:Generated_Source\PSoC4/CapSense_CSHL.c ****             /* No centroid at Start */
1385:Generated_Source\PSoC4/CapSense_CSHL.c ****             uint8 curCntrdSize = 0u;
1386:Generated_Source\PSoC4/CapSense_CSHL.c ****             uint8 curCtrdStartPos = CapSense_MAXIMUM_CENTROID;
1387:Generated_Source\PSoC4/CapSense_CSHL.c ****             /* Biggest centroid is zero */
1388:Generated_Source\PSoC4/CapSense_CSHL.c ****             uint8 biggestCtrdSize = 0u;
1389:Generated_Source\PSoC4/CapSense_CSHL.c ****             uint8 biggestCtrdStartPos = 0u;
1390:Generated_Source\PSoC4/CapSense_CSHL.c ****         #endif /* (CapSense_IS_DIPLEX_SLIDER) */
1391:Generated_Source\PSoC4/CapSense_CSHL.c ****         uint8 maximum = CapSense_MAXIMUM_CENTROID;
1392:Generated_Source\PSoC4/CapSense_CSHL.c **** 
1393:Generated_Source\PSoC4/CapSense_CSHL.c ****         uint8 temp = 0u;
1394:Generated_Source\PSoC4/CapSense_CSHL.c ****         uint8 *startOfSlider = &CapSense_sensorSignal[offset];
 951              		.loc 1 1394 0
 952 0002 094D     		ldr	r5, .L87
 953 0004 2435     		adds	r5, r5, #36
 954 0006 2D18     		adds	r5, r5, r0
 955              	.LVL91:
1393:Generated_Source\PSoC4/CapSense_CSHL.c ****         uint8 *startOfSlider = &CapSense_sensorSignal[offset];
 956              		.loc 1 1393 0
 957 0008 0026     		movs	r6, #0
1391:Generated_Source\PSoC4/CapSense_CSHL.c **** 
 958              		.loc 1 1391 0
 959 000a FF20     		movs	r0, #255
 960              	.LVL92:
1395:Generated_Source\PSoC4/CapSense_CSHL.c **** 
1396:Generated_Source\PSoC4/CapSense_CSHL.c ****         #if (CapSense_IS_DIPLEX_SLIDER)
1397:Generated_Source\PSoC4/CapSense_CSHL.c ****             if(diplex != 0u)
1398:Generated_Source\PSoC4/CapSense_CSHL.c ****             {
1399:Generated_Source\PSoC4/CapSense_CSHL.c ****                 /* Initialize */
1400:Generated_Source\PSoC4/CapSense_CSHL.c ****                 i = 0u;
1401:Generated_Source\PSoC4/CapSense_CSHL.c **** 
1402:Generated_Source\PSoC4/CapSense_CSHL.c ****                 /* Make slider x2 as Diplexed */
1403:Generated_Source\PSoC4/CapSense_CSHL.c ****                 count <<= 1u;
1404:Generated_Source\PSoC4/CapSense_CSHL.c ****                 while(1u)
1405:Generated_Source\PSoC4/CapSense_CSHL.c ****                 {
1406:Generated_Source\PSoC4/CapSense_CSHL.c ****                     if (startOfSlider[curPos] > 0u)    /* Looking for centroids */
1407:Generated_Source\PSoC4/CapSense_CSHL.c ****                     {
1408:Generated_Source\PSoC4/CapSense_CSHL.c ****                         if (curCtrdStartPos == CapSense_MAXIMUM_CENTROID)
1409:Generated_Source\PSoC4/CapSense_CSHL.c ****                         {
1410:Generated_Source\PSoC4/CapSense_CSHL.c ****                             /* Start of centroid */
1411:Generated_Source\PSoC4/CapSense_CSHL.c ****                             curCtrdStartPos = i;
1412:Generated_Source\PSoC4/CapSense_CSHL.c ****                             curCntrdSize++;
1413:Generated_Source\PSoC4/CapSense_CSHL.c ****                         }
1414:Generated_Source\PSoC4/CapSense_CSHL.c ****                         else
1415:Generated_Source\PSoC4/CapSense_CSHL.c ****                         {
1416:Generated_Source\PSoC4/CapSense_CSHL.c ****                             curCntrdSize++;
1417:Generated_Source\PSoC4/CapSense_CSHL.c ****                         }
1418:Generated_Source\PSoC4/CapSense_CSHL.c ****                     }
1419:Generated_Source\PSoC4/CapSense_CSHL.c ****                     else   /* Select biggest and indicate zero start */
1420:Generated_Source\PSoC4/CapSense_CSHL.c ****                     {
1421:Generated_Source\PSoC4/CapSense_CSHL.c ****                         if(curCntrdSize > 0u)
1422:Generated_Source\PSoC4/CapSense_CSHL.c ****                         {
1423:Generated_Source\PSoC4/CapSense_CSHL.c ****                             /* We are at the end of current */
1424:Generated_Source\PSoC4/CapSense_CSHL.c ****                             if(curCntrdSize > biggestCtrdSize)
1425:Generated_Source\PSoC4/CapSense_CSHL.c ****                             {
ARM GAS  C:\Users\SHOZO\AppData\Local\Temp\cc3BkmVy.s 			page 43


1426:Generated_Source\PSoC4/CapSense_CSHL.c ****                                 biggestCtrdSize = curCntrdSize;
1427:Generated_Source\PSoC4/CapSense_CSHL.c ****                                 biggestCtrdStartPos = curCtrdStartPos;
1428:Generated_Source\PSoC4/CapSense_CSHL.c ****                             }
1429:Generated_Source\PSoC4/CapSense_CSHL.c **** 
1430:Generated_Source\PSoC4/CapSense_CSHL.c ****                             curCntrdSize = 0u;
1431:Generated_Source\PSoC4/CapSense_CSHL.c ****                             curCtrdStartPos = CapSense_MAXIMUM_CENTROID;
1432:Generated_Source\PSoC4/CapSense_CSHL.c ****                         }
1433:Generated_Source\PSoC4/CapSense_CSHL.c ****                     }
1434:Generated_Source\PSoC4/CapSense_CSHL.c **** 
1435:Generated_Source\PSoC4/CapSense_CSHL.c ****                     i++;
1436:Generated_Source\PSoC4/CapSense_CSHL.c ****                     curPos = diplex[i];
1437:Generated_Source\PSoC4/CapSense_CSHL.c ****                     if(i == count)
1438:Generated_Source\PSoC4/CapSense_CSHL.c ****                     {
1439:Generated_Source\PSoC4/CapSense_CSHL.c ****                         break;
1440:Generated_Source\PSoC4/CapSense_CSHL.c ****                     }
1441:Generated_Source\PSoC4/CapSense_CSHL.c ****                 }
1442:Generated_Source\PSoC4/CapSense_CSHL.c **** 
1443:Generated_Source\PSoC4/CapSense_CSHL.c ****                     /* Find biggest centroid if two are same size, last one wins
1444:Generated_Source\PSoC4/CapSense_CSHL.c ****                        We are at the end of current */
1445:Generated_Source\PSoC4/CapSense_CSHL.c ****                 if (curCntrdSize >= biggestCtrdSize)
1446:Generated_Source\PSoC4/CapSense_CSHL.c ****                 {
1447:Generated_Source\PSoC4/CapSense_CSHL.c ****                     biggestCtrdSize = curCntrdSize;
1448:Generated_Source\PSoC4/CapSense_CSHL.c ****                     biggestCtrdStartPos = curCtrdStartPos;
1449:Generated_Source\PSoC4/CapSense_CSHL.c ****                 }
1450:Generated_Source\PSoC4/CapSense_CSHL.c ****             }
1451:Generated_Source\PSoC4/CapSense_CSHL.c ****             else
1452:Generated_Source\PSoC4/CapSense_CSHL.c ****             {
1453:Generated_Source\PSoC4/CapSense_CSHL.c ****                 /* Without diplexing */
1454:Generated_Source\PSoC4/CapSense_CSHL.c ****                 biggestCtrdSize = count;
1455:Generated_Source\PSoC4/CapSense_CSHL.c ****             }
1456:Generated_Source\PSoC4/CapSense_CSHL.c **** 
1457:Generated_Source\PSoC4/CapSense_CSHL.c **** 
1458:Generated_Source\PSoC4/CapSense_CSHL.c ****             /* Check centroid size */
1459:Generated_Source\PSoC4/CapSense_CSHL.c ****             #if (CapSense_IS_NON_DIPLEX_SLIDER)
1460:Generated_Source\PSoC4/CapSense_CSHL.c ****                 if((biggestCtrdSize >= 2u) || ((biggestCtrdSize == 1u) && (diplex == 0u)))
1461:Generated_Source\PSoC4/CapSense_CSHL.c ****             #else
1462:Generated_Source\PSoC4/CapSense_CSHL.c ****                 if(biggestCtrdSize >= 2u)
1463:Generated_Source\PSoC4/CapSense_CSHL.c ****             #endif /* (CapSense_IS_NON_DIPLEX_SLIDER) */
1464:Generated_Source\PSoC4/CapSense_CSHL.c ****                 {
1465:Generated_Source\PSoC4/CapSense_CSHL.c ****                     for (i = biggestCtrdStartPos; i < (biggestCtrdStartPos + biggestCtrdSize); i++)
1466:Generated_Source\PSoC4/CapSense_CSHL.c ****                     {
1467:Generated_Source\PSoC4/CapSense_CSHL.c ****                         #if (CapSense_IS_DIPLEX_SLIDER && CapSense_IS_NON_DIPLEX_SLIDER)
1468:Generated_Source\PSoC4/CapSense_CSHL.c ****                             if (diplex == 0u)
1469:Generated_Source\PSoC4/CapSense_CSHL.c ****                             {
1470:Generated_Source\PSoC4/CapSense_CSHL.c ****                                 curPos = i;
1471:Generated_Source\PSoC4/CapSense_CSHL.c ****                             }
1472:Generated_Source\PSoC4/CapSense_CSHL.c ****                             else
1473:Generated_Source\PSoC4/CapSense_CSHL.c ****                             {
1474:Generated_Source\PSoC4/CapSense_CSHL.c ****                                 curPos = diplex[i];
1475:Generated_Source\PSoC4/CapSense_CSHL.c ****                             }
1476:Generated_Source\PSoC4/CapSense_CSHL.c ****                         #elif (CapSense_IS_DIPLEX_SLIDER)
1477:Generated_Source\PSoC4/CapSense_CSHL.c ****                             curPos = diplex[i];
1478:Generated_Source\PSoC4/CapSense_CSHL.c ****                         #endif /* (CapSense_IS_DIPLEX_SLIDER && CapSense_IS_NON_DIPLEX_SLIDER) */
1479:Generated_Source\PSoC4/CapSense_CSHL.c ****                         /* Looking for greater element within centroid */
1480:Generated_Source\PSoC4/CapSense_CSHL.c ****                         if(startOfSlider[curPos] > fingerThreshold)
1481:Generated_Source\PSoC4/CapSense_CSHL.c ****                         {
1482:Generated_Source\PSoC4/CapSense_CSHL.c ****                             if(startOfSlider[curPos] > temp)
ARM GAS  C:\Users\SHOZO\AppData\Local\Temp\cc3BkmVy.s 			page 44


1483:Generated_Source\PSoC4/CapSense_CSHL.c ****                             {
1484:Generated_Source\PSoC4/CapSense_CSHL.c ****                                 maximum = i;
1485:Generated_Source\PSoC4/CapSense_CSHL.c ****                                 temp = startOfSlider[curPos];
1486:Generated_Source\PSoC4/CapSense_CSHL.c ****                             }
1487:Generated_Source\PSoC4/CapSense_CSHL.c ****                         }
1488:Generated_Source\PSoC4/CapSense_CSHL.c ****                     }
1489:Generated_Source\PSoC4/CapSense_CSHL.c ****                 }
1490:Generated_Source\PSoC4/CapSense_CSHL.c ****         #else
1491:Generated_Source\PSoC4/CapSense_CSHL.c ****             for (i = 0u; i < count; i++)
 961              		.loc 1 1491 0
 962 000c 0023     		movs	r3, #0
 963 000e 08E0     		b	.L83
 964              	.LVL93:
 965              	.L85:
1492:Generated_Source\PSoC4/CapSense_CSHL.c ****             {
1493:Generated_Source\PSoC4/CapSense_CSHL.c ****                 /* Looking for greater element within centroid */
1494:Generated_Source\PSoC4/CapSense_CSHL.c ****                 if(startOfSlider[i] > fingerThreshold)
 966              		.loc 1 1494 0
 967 0010 EC5C     		ldrb	r4, [r5, r3]
 968 0012 9442     		cmp	r4, r2
 969 0014 03D9     		bls	.L84
1495:Generated_Source\PSoC4/CapSense_CSHL.c ****                 {
1496:Generated_Source\PSoC4/CapSense_CSHL.c ****                     if(startOfSlider[i] > temp)
 970              		.loc 1 1496 0
 971 0016 A642     		cmp	r6, r4
 972 0018 01D2     		bcs	.L84
1497:Generated_Source\PSoC4/CapSense_CSHL.c ****                     {
1498:Generated_Source\PSoC4/CapSense_CSHL.c ****                         maximum = i;
1499:Generated_Source\PSoC4/CapSense_CSHL.c ****                         temp = startOfSlider[i];
 973              		.loc 1 1499 0
 974 001a 2600     		movs	r6, r4
 975              	.LVL94:
1498:Generated_Source\PSoC4/CapSense_CSHL.c ****                         temp = startOfSlider[i];
 976              		.loc 1 1498 0
 977 001c 1800     		movs	r0, r3
 978              	.LVL95:
 979              	.L84:
1491:Generated_Source\PSoC4/CapSense_CSHL.c ****             {
 980              		.loc 1 1491 0 discriminator 2
 981 001e 0133     		adds	r3, r3, #1
 982              	.LVL96:
 983 0020 DBB2     		uxtb	r3, r3
 984              	.LVL97:
 985              	.L83:
1491:Generated_Source\PSoC4/CapSense_CSHL.c ****             {
 986              		.loc 1 1491 0 is_stmt 0 discriminator 1
 987 0022 8B42     		cmp	r3, r1
 988 0024 F4D3     		bcc	.L85
1500:Generated_Source\PSoC4/CapSense_CSHL.c ****                     }
1501:Generated_Source\PSoC4/CapSense_CSHL.c ****                 }
1502:Generated_Source\PSoC4/CapSense_CSHL.c ****             }
1503:Generated_Source\PSoC4/CapSense_CSHL.c ****         #endif /* (CapSense_IS_DIPLEX_SLIDER) */
1504:Generated_Source\PSoC4/CapSense_CSHL.c ****         return (maximum);
1505:Generated_Source\PSoC4/CapSense_CSHL.c ****     }
 989              		.loc 1 1505 0 is_stmt 1
 990              		@ sp needed
 991              	.LVL98:
ARM GAS  C:\Users\SHOZO\AppData\Local\Temp\cc3BkmVy.s 			page 45


 992              	.LVL99:
 993 0026 70BD     		pop	{r4, r5, r6, pc}
 994              	.L88:
 995              		.align	2
 996              	.L87:
 997 0028 00000000 		.word	.LANCHOR0
 998              		.cfi_endproc
 999              	.LFE59:
 1000              		.size	CapSense_FindMaximum, .-CapSense_FindMaximum
 1001              		.global	__aeabi_idiv
 1002              		.section	.text.CapSense_CalcCentroid,"ax",%progbits
 1003              		.align	2
 1004              		.global	CapSense_CalcCentroid
 1005              		.code	16
 1006              		.thumb_func
 1007              		.type	CapSense_CalcCentroid, %function
 1008              	CapSense_CalcCentroid:
 1009              	.LFB60:
1506:Generated_Source\PSoC4/CapSense_CSHL.c **** 
1507:Generated_Source\PSoC4/CapSense_CSHL.c **** 
1508:Generated_Source\PSoC4/CapSense_CSHL.c ****     /*******************************************************************************
1509:Generated_Source\PSoC4/CapSense_CSHL.c ****     * Function Name: CapSense_CalcCentroid
1510:Generated_Source\PSoC4/CapSense_CSHL.c ****     ********************************************************************************
1511:Generated_Source\PSoC4/CapSense_CSHL.c ****     *
1512:Generated_Source\PSoC4/CapSense_CSHL.c ****     * Summary:
1513:Generated_Source\PSoC4/CapSense_CSHL.c ****     *  Returns a position value calculated according to the index of the maximum element and API
1514:Generated_Source\PSoC4/CapSense_CSHL.c ****     *  resolution.
1515:Generated_Source\PSoC4/CapSense_CSHL.c ****     *
1516:Generated_Source\PSoC4/CapSense_CSHL.c ****     * Parameters:
1517:Generated_Source\PSoC4/CapSense_CSHL.c ****     *  type:  widget type.
1518:Generated_Source\PSoC4/CapSense_CSHL.c ****     *  diplex:  pointer to diplex table.
1519:Generated_Source\PSoC4/CapSense_CSHL.c ****     *  maximum:  Index of maximum element within centroid.
1520:Generated_Source\PSoC4/CapSense_CSHL.c ****     *  offset:   Start index of centroid in CapSense_sensorSignal[] array.
1521:Generated_Source\PSoC4/CapSense_CSHL.c ****     *  count:    Number of elements within centroid.
1522:Generated_Source\PSoC4/CapSense_CSHL.c ****     *  resolution:  multiplicator calculated according to centroid type and
1523:Generated_Source\PSoC4/CapSense_CSHL.c ****     *  API resolution.
1524:Generated_Source\PSoC4/CapSense_CSHL.c ****     *  noiseThreshold:  Noise threshold.
1525:Generated_Source\PSoC4/CapSense_CSHL.c ****     *
1526:Generated_Source\PSoC4/CapSense_CSHL.c ****     * Return:
1527:Generated_Source\PSoC4/CapSense_CSHL.c ****     *  Returns a position value of the slider.
1528:Generated_Source\PSoC4/CapSense_CSHL.c ****     *
1529:Generated_Source\PSoC4/CapSense_CSHL.c ****     * Side Effects:
1530:Generated_Source\PSoC4/CapSense_CSHL.c ****     *  None
1531:Generated_Source\PSoC4/CapSense_CSHL.c ****     *
1532:Generated_Source\PSoC4/CapSense_CSHL.c ****     *******************************************************************************/
1533:Generated_Source\PSoC4/CapSense_CSHL.c **** #if (CapSense_TOTAL_TRACKPAD_GESTURES_COUNT > 0u)
1534:Generated_Source\PSoC4/CapSense_CSHL.c ****     uint8 CapSense_CalcCentroid(uint8 maximum, uint8 offset,
1535:Generated_Source\PSoC4/CapSense_CSHL.c ****                                         uint8 count, uint32 resolution, uint8 noiseThreshold)
1536:Generated_Source\PSoC4/CapSense_CSHL.c **** #else
1537:Generated_Source\PSoC4/CapSense_CSHL.c ****     uint8 CapSense_CalcCentroid(uint8 maximum, uint8 offset,
1538:Generated_Source\PSoC4/CapSense_CSHL.c ****                                         uint8 count, uint16 resolution, uint8 noiseThreshold)
1539:Generated_Source\PSoC4/CapSense_CSHL.c **** #endif /* (CapSense_TOTAL_TRACKPAD_GESTURES_COUNT > 0u) */
1540:Generated_Source\PSoC4/CapSense_CSHL.c ****     {
 1010              		.loc 1 1540 0
 1011              		.cfi_startproc
 1012              		@ args = 4, pretend = 0, frame = 8
 1013              		@ frame_needed = 0, uses_anonymous_args = 0
ARM GAS  C:\Users\SHOZO\AppData\Local\Temp\cc3BkmVy.s 			page 46


 1014              	.LVL100:
 1015 0000 F0B5     		push	{r4, r5, r6, r7, lr}
 1016              		.cfi_def_cfa_offset 20
 1017              		.cfi_offset 4, -20
 1018              		.cfi_offset 5, -16
 1019              		.cfi_offset 6, -12
 1020              		.cfi_offset 7, -8
 1021              		.cfi_offset 14, -4
 1022 0002 83B0     		sub	sp, sp, #12
 1023              		.cfi_def_cfa_offset 32
 1024 0004 0400     		movs	r4, r0
 1025 0006 0192     		str	r2, [sp, #4]
 1026 0008 0093     		str	r3, [sp]
 1027 000a 08AB     		add	r3, sp, #32
 1028              	.LVL101:
 1029 000c 1878     		ldrb	r0, [r3]
 1030              	.LVL102:
1541:Generated_Source\PSoC4/CapSense_CSHL.c ****         #if ((CapSense_TOTAL_LINEAR_SLIDERS_COUNT > 0u) || (CapSense_TOTAL_TOUCH_PADS_BASIC_COUNT >
1542:Generated_Source\PSoC4/CapSense_CSHL.c ****             uint8 posPrev;
1543:Generated_Source\PSoC4/CapSense_CSHL.c ****             uint8 posNext;
1544:Generated_Source\PSoC4/CapSense_CSHL.c ****         #endif /* ((CapSense_TOTAL_LINEAR_SLIDERS_COUNT>0u) || (CapSense_TOTAL_TOUCH_PADS_BASIC_COU
1545:Generated_Source\PSoC4/CapSense_CSHL.c **** 
1546:Generated_Source\PSoC4/CapSense_CSHL.c ****         /* Helps during centroid calculation */
1547:Generated_Source\PSoC4/CapSense_CSHL.c ****         #if (CapSense_TOTAL_CENTROIDS_BASIC_COUNT)
1548:Generated_Source\PSoC4/CapSense_CSHL.c ****             static uint8 CapSense_centroid[3u];
1549:Generated_Source\PSoC4/CapSense_CSHL.c ****         #endif  /* (CapSense_TOTAL_CENTROIDS_BASIC_COUNT) */
1550:Generated_Source\PSoC4/CapSense_CSHL.c **** 
1551:Generated_Source\PSoC4/CapSense_CSHL.c ****         #if (CapSense_IS_DIPLEX_SLIDER)
1552:Generated_Source\PSoC4/CapSense_CSHL.c ****             uint8 pos;
1553:Generated_Source\PSoC4/CapSense_CSHL.c ****         #endif /* (CapSense_IS_DIPLEX_SLIDER) */
1554:Generated_Source\PSoC4/CapSense_CSHL.c **** 
1555:Generated_Source\PSoC4/CapSense_CSHL.c ****         uint8 position;
1556:Generated_Source\PSoC4/CapSense_CSHL.c ****         uint32 numerator;
1557:Generated_Source\PSoC4/CapSense_CSHL.c ****         int32 denominator;
1558:Generated_Source\PSoC4/CapSense_CSHL.c **** 
1559:Generated_Source\PSoC4/CapSense_CSHL.c ****         uint8  *startOfSlider = &CapSense_sensorSignal[offset];
 1031              		.loc 1 1559 0
 1032 000e 344B     		ldr	r3, .L99
 1033              	.LVL103:
 1034 0010 2433     		adds	r3, r3, #36
 1035 0012 5918     		adds	r1, r3, r1
 1036              	.LVL104:
1560:Generated_Source\PSoC4/CapSense_CSHL.c **** 
1561:Generated_Source\PSoC4/CapSense_CSHL.c ****         #if ((CapSense_TOTAL_LINEAR_SLIDERS_COUNT > 0u) || (CapSense_TOTAL_TOUCH_PADS_BASIC_COUNT >
1562:Generated_Source\PSoC4/CapSense_CSHL.c ****             posPrev = 0u;
1563:Generated_Source\PSoC4/CapSense_CSHL.c ****         #endif /* ((CapSense_TOTAL_LINEAR_SLIDERS_COUNT>0u) || (CapSense_TOTAL_TOUCH_PADS_BASIC_COU
1564:Generated_Source\PSoC4/CapSense_CSHL.c **** 
1565:Generated_Source\PSoC4/CapSense_CSHL.c ****         #if (CapSense_ADD_SLIDER_TYPE)
1566:Generated_Source\PSoC4/CapSense_CSHL.c ****             if(type == CapSense_TYPE_RADIAL_SLIDER)
1567:Generated_Source\PSoC4/CapSense_CSHL.c ****             {
1568:Generated_Source\PSoC4/CapSense_CSHL.c ****         #endif /* (CapSense_ADD_SLIDER_TYPE) */
1569:Generated_Source\PSoC4/CapSense_CSHL.c **** 
1570:Generated_Source\PSoC4/CapSense_CSHL.c ****             #if (CapSense_TOTAL_RADIAL_SLIDERS_COUNT > 0u)
1571:Generated_Source\PSoC4/CapSense_CSHL.c ****                 /* Copy Signal to the centroid array */
1572:Generated_Source\PSoC4/CapSense_CSHL.c ****                 CapSense_centroid[CapSense_POS] = startOfSlider[maximum];
1573:Generated_Source\PSoC4/CapSense_CSHL.c **** 
1574:Generated_Source\PSoC4/CapSense_CSHL.c ****                 /* Check borders for ROTARY Slider */
ARM GAS  C:\Users\SHOZO\AppData\Local\Temp\cc3BkmVy.s 			page 47


1575:Generated_Source\PSoC4/CapSense_CSHL.c ****                 if (maximum == 0u)                   /* Start of centroid */
1576:Generated_Source\PSoC4/CapSense_CSHL.c ****                 {
1577:Generated_Source\PSoC4/CapSense_CSHL.c ****                     CapSense_centroid[CapSense_POS_PREV] = startOfSlider[count - 1u];
1578:Generated_Source\PSoC4/CapSense_CSHL.c ****                     CapSense_centroid[CapSense_POS_NEXT] = startOfSlider[1u];
1579:Generated_Source\PSoC4/CapSense_CSHL.c ****                 }
1580:Generated_Source\PSoC4/CapSense_CSHL.c ****                 else if (maximum == (count - 1u))    /* End of centroid */
1581:Generated_Source\PSoC4/CapSense_CSHL.c ****                 {
1582:Generated_Source\PSoC4/CapSense_CSHL.c ****                     CapSense_centroid[CapSense_POS_PREV] = startOfSlider[maximum - 1u];
1583:Generated_Source\PSoC4/CapSense_CSHL.c ****                     CapSense_centroid[CapSense_POS_NEXT] = startOfSlider[0u];
1584:Generated_Source\PSoC4/CapSense_CSHL.c ****                 }
1585:Generated_Source\PSoC4/CapSense_CSHL.c ****                 else                                /* Not first Not last */
1586:Generated_Source\PSoC4/CapSense_CSHL.c ****                 {
1587:Generated_Source\PSoC4/CapSense_CSHL.c ****                     CapSense_centroid[CapSense_POS_PREV] = startOfSlider[maximum - 1u];
1588:Generated_Source\PSoC4/CapSense_CSHL.c ****                     CapSense_centroid[CapSense_POS_NEXT] = startOfSlider[maximum + 1u];
1589:Generated_Source\PSoC4/CapSense_CSHL.c ****                 }
1590:Generated_Source\PSoC4/CapSense_CSHL.c ****             #endif /* (CapSense_TOTAL_RADIAL_SLIDERS_COUNT > 0u) */
1591:Generated_Source\PSoC4/CapSense_CSHL.c **** 
1592:Generated_Source\PSoC4/CapSense_CSHL.c ****         #if (CapSense_ADD_SLIDER_TYPE)
1593:Generated_Source\PSoC4/CapSense_CSHL.c ****             }
1594:Generated_Source\PSoC4/CapSense_CSHL.c ****             else
1595:Generated_Source\PSoC4/CapSense_CSHL.c ****             {
1596:Generated_Source\PSoC4/CapSense_CSHL.c ****         #endif /* (CapSense_ADD_SLIDER_TYPE) */
1597:Generated_Source\PSoC4/CapSense_CSHL.c **** 
1598:Generated_Source\PSoC4/CapSense_CSHL.c ****             #if ((CapSense_TOTAL_LINEAR_SLIDERS_COUNT > 0u) || (CapSense_TOTAL_TOUCH_PADS_BASIC_COU
1599:Generated_Source\PSoC4/CapSense_CSHL.c ****                 #if (CapSense_IS_DIPLEX_SLIDER && CapSense_IS_NON_DIPLEX_SLIDER)
1600:Generated_Source\PSoC4/CapSense_CSHL.c ****                     /* Calculate next and previous near to maximum */
1601:Generated_Source\PSoC4/CapSense_CSHL.c ****                     if(diplex == 0u)
1602:Generated_Source\PSoC4/CapSense_CSHL.c ****                     {
1603:Generated_Source\PSoC4/CapSense_CSHL.c ****                         pos     = maximum;
1604:Generated_Source\PSoC4/CapSense_CSHL.c ****                         posPrev = maximum - 1u;
1605:Generated_Source\PSoC4/CapSense_CSHL.c ****                         posNext = maximum + 1u;
1606:Generated_Source\PSoC4/CapSense_CSHL.c ****                     }
1607:Generated_Source\PSoC4/CapSense_CSHL.c ****                     else
1608:Generated_Source\PSoC4/CapSense_CSHL.c ****                     {
1609:Generated_Source\PSoC4/CapSense_CSHL.c ****                         pos     = diplex[maximum];
1610:Generated_Source\PSoC4/CapSense_CSHL.c ****                         posPrev = diplex[maximum - 1u];
1611:Generated_Source\PSoC4/CapSense_CSHL.c ****                         posNext = diplex[maximum + 1u];
1612:Generated_Source\PSoC4/CapSense_CSHL.c ****                         count <<= 1u;
1613:Generated_Source\PSoC4/CapSense_CSHL.c ****                     }
1614:Generated_Source\PSoC4/CapSense_CSHL.c ****                 #elif (CapSense_IS_DIPLEX_SLIDER)
1615:Generated_Source\PSoC4/CapSense_CSHL.c ****                     /* Calculate next and previous near to maximum */
1616:Generated_Source\PSoC4/CapSense_CSHL.c ****                     pos     = diplex[maximum];
1617:Generated_Source\PSoC4/CapSense_CSHL.c ****                     posPrev = diplex[maximum - 1u];
1618:Generated_Source\PSoC4/CapSense_CSHL.c ****                     posNext = diplex[maximum + 1u];
1619:Generated_Source\PSoC4/CapSense_CSHL.c ****                     count <<= 1u;
1620:Generated_Source\PSoC4/CapSense_CSHL.c ****                 #else
1621:Generated_Source\PSoC4/CapSense_CSHL.c ****                     /* Calculate next and previous near to maximum */
1622:Generated_Source\PSoC4/CapSense_CSHL.c ****                     if (maximum >= 1u)
 1037              		.loc 1 1622 0
 1038 0014 002C     		cmp	r4, #0
 1039 0016 02D0     		beq	.L98
1623:Generated_Source\PSoC4/CapSense_CSHL.c ****                     {
1624:Generated_Source\PSoC4/CapSense_CSHL.c ****                         posPrev = maximum - 1u;
 1040              		.loc 1 1624 0
 1041 0018 661E     		subs	r6, r4, #1
 1042 001a F6B2     		uxtb	r6, r6
 1043              	.LVL105:
ARM GAS  C:\Users\SHOZO\AppData\Local\Temp\cc3BkmVy.s 			page 48


 1044 001c 00E0     		b	.L90
 1045              	.LVL106:
 1046              	.L98:
1562:Generated_Source\PSoC4/CapSense_CSHL.c ****         #endif /* ((CapSense_TOTAL_LINEAR_SLIDERS_COUNT>0u) || (CapSense_TOTAL_TOUCH_PADS_BASIC_COU
 1047              		.loc 1 1562 0
 1048 001e 0026     		movs	r6, #0
 1049              	.LVL107:
 1050              	.L90:
1625:Generated_Source\PSoC4/CapSense_CSHL.c ****                     }
1626:Generated_Source\PSoC4/CapSense_CSHL.c ****                     posNext = maximum + 1u;
 1051              		.loc 1 1626 0
 1052 0020 631C     		adds	r3, r4, #1
 1053 0022 DDB2     		uxtb	r5, r3
 1054              	.LVL108:
1627:Generated_Source\PSoC4/CapSense_CSHL.c ****                 #endif /* (CapSense_IS_DIPLEX_SLIDER && CapSense_IS_NON_DIPLEX_SLIDER) */
1628:Generated_Source\PSoC4/CapSense_CSHL.c **** 
1629:Generated_Source\PSoC4/CapSense_CSHL.c ****                 /* Copy Signal to the centroid array */
1630:Generated_Source\PSoC4/CapSense_CSHL.c ****                 #if (CapSense_IS_DIPLEX_SLIDER)
1631:Generated_Source\PSoC4/CapSense_CSHL.c ****                     CapSense_centroid[CapSense_POS] = startOfSlider[pos];
1632:Generated_Source\PSoC4/CapSense_CSHL.c ****                 #else
1633:Generated_Source\PSoC4/CapSense_CSHL.c ****                     CapSense_centroid[CapSense_POS] = startOfSlider[maximum];
 1055              		.loc 1 1633 0
 1056 0024 0B5D     		ldrb	r3, [r1, r4]
 1057 0026 9C46     		mov	ip, r3
 1058 0028 2D4B     		ldr	r3, .L99
 1059 002a 3833     		adds	r3, r3, #56
 1060 002c 6246     		mov	r2, ip
 1061              	.LVL109:
 1062 002e 5A70     		strb	r2, [r3, #1]
1634:Generated_Source\PSoC4/CapSense_CSHL.c ****                 #endif /* (CapSense_IS_DIPLEX_SLIDER) */
1635:Generated_Source\PSoC4/CapSense_CSHL.c **** 
1636:Generated_Source\PSoC4/CapSense_CSHL.c ****                 /* Check borders for LINEAR Slider */
1637:Generated_Source\PSoC4/CapSense_CSHL.c ****                 if (maximum == 0u)                   /* Start of centroid */
 1063              		.loc 1 1637 0
 1064 0030 002C     		cmp	r4, #0
 1065 0032 07D1     		bne	.L91
1638:Generated_Source\PSoC4/CapSense_CSHL.c ****                 {
1639:Generated_Source\PSoC4/CapSense_CSHL.c ****                     CapSense_centroid[CapSense_POS_PREV] = 0u;
 1066              		.loc 1 1639 0
 1067 0034 2A4B     		ldr	r3, .L99
 1068 0036 0026     		movs	r6, #0
 1069              	.LVL110:
 1070 0038 3822     		movs	r2, #56
 1071 003a 9E54     		strb	r6, [r3, r2]
1640:Generated_Source\PSoC4/CapSense_CSHL.c ****                     CapSense_centroid[CapSense_POS_NEXT] = startOfSlider[posNext];
 1072              		.loc 1 1640 0
 1073 003c 4A5D     		ldrb	r2, [r1, r5]
 1074 003e 3833     		adds	r3, r3, #56
 1075 0040 9A70     		strb	r2, [r3, #2]
 1076 0042 12E0     		b	.L92
 1077              	.LVL111:
 1078              	.L91:
1641:Generated_Source\PSoC4/CapSense_CSHL.c ****                 }
1642:Generated_Source\PSoC4/CapSense_CSHL.c ****                 else if (maximum == ((count) - 1u)) /* End of centroid */
 1079              		.loc 1 1642 0
 1080 0044 019A     		ldr	r2, [sp, #4]
 1081 0046 013A     		subs	r2, r2, #1
ARM GAS  C:\Users\SHOZO\AppData\Local\Temp\cc3BkmVy.s 			page 49


 1082 0048 9442     		cmp	r4, r2
 1083 004a 07D1     		bne	.L93
1643:Generated_Source\PSoC4/CapSense_CSHL.c ****                 {
1644:Generated_Source\PSoC4/CapSense_CSHL.c ****                     CapSense_centroid[CapSense_POS_PREV] = startOfSlider[posPrev];
 1084              		.loc 1 1644 0
 1085 004c 895D     		ldrb	r1, [r1, r6]
 1086              	.LVL112:
 1087 004e 244B     		ldr	r3, .L99
 1088 0050 3822     		movs	r2, #56
 1089 0052 9954     		strb	r1, [r3, r2]
1645:Generated_Source\PSoC4/CapSense_CSHL.c ****                     CapSense_centroid[CapSense_POS_NEXT] = 0u;
 1090              		.loc 1 1645 0
 1091 0054 3833     		adds	r3, r3, #56
 1092 0056 0022     		movs	r2, #0
 1093 0058 9A70     		strb	r2, [r3, #2]
 1094 005a 06E0     		b	.L92
 1095              	.LVL113:
 1096              	.L93:
1646:Generated_Source\PSoC4/CapSense_CSHL.c ****                 }
1647:Generated_Source\PSoC4/CapSense_CSHL.c ****                 else                                /* Not first Not last */
1648:Generated_Source\PSoC4/CapSense_CSHL.c ****                 {
1649:Generated_Source\PSoC4/CapSense_CSHL.c ****                     CapSense_centroid[CapSense_POS_PREV] = startOfSlider[posPrev];
 1097              		.loc 1 1649 0
 1098 005c 8E5D     		ldrb	r6, [r1, r6]
 1099              	.LVL114:
 1100 005e 204B     		ldr	r3, .L99
 1101 0060 3822     		movs	r2, #56
 1102 0062 9E54     		strb	r6, [r3, r2]
1650:Generated_Source\PSoC4/CapSense_CSHL.c ****                     CapSense_centroid[CapSense_POS_NEXT] = startOfSlider[posNext];
 1103              		.loc 1 1650 0
 1104 0064 4A5D     		ldrb	r2, [r1, r5]
 1105 0066 3833     		adds	r3, r3, #56
 1106 0068 9A70     		strb	r2, [r3, #2]
 1107              	.LVL115:
 1108              	.L92:
1651:Generated_Source\PSoC4/CapSense_CSHL.c ****                 }
1652:Generated_Source\PSoC4/CapSense_CSHL.c ****             #endif /* ((CapSense_TOTAL_LINEAR_SLIDERS_COUNT>0u)||(CapSense_TOTAL_TOUCH_PADS_BASIC_C
1653:Generated_Source\PSoC4/CapSense_CSHL.c **** 
1654:Generated_Source\PSoC4/CapSense_CSHL.c ****         #if (CapSense_ADD_SLIDER_TYPE)
1655:Generated_Source\PSoC4/CapSense_CSHL.c ****             }
1656:Generated_Source\PSoC4/CapSense_CSHL.c ****         #endif /* (CapSense_ADD_SLIDER_TYPE) */
1657:Generated_Source\PSoC4/CapSense_CSHL.c **** 
1658:Generated_Source\PSoC4/CapSense_CSHL.c ****         /* Subtract noiseThreshold */
1659:Generated_Source\PSoC4/CapSense_CSHL.c ****         if(CapSense_centroid[CapSense_POS_PREV] > noiseThreshold)
 1109              		.loc 1 1659 0
 1110 006a 3823     		movs	r3, #56
 1111 006c 1C4A     		ldr	r2, .L99
 1112 006e D35C     		ldrb	r3, [r2, r3]
 1113 0070 8342     		cmp	r3, r0
 1114 0072 04D9     		bls	.L94
1660:Generated_Source\PSoC4/CapSense_CSHL.c ****         {
1661:Generated_Source\PSoC4/CapSense_CSHL.c ****             CapSense_centroid[CapSense_POS_PREV] -= noiseThreshold;
 1115              		.loc 1 1661 0
 1116 0074 1B1A     		subs	r3, r3, r0
 1117 0076 3822     		movs	r2, #56
 1118 0078 1949     		ldr	r1, .L99
 1119 007a 8B54     		strb	r3, [r1, r2]
ARM GAS  C:\Users\SHOZO\AppData\Local\Temp\cc3BkmVy.s 			page 50


 1120 007c 03E0     		b	.L95
 1121              	.L94:
1662:Generated_Source\PSoC4/CapSense_CSHL.c ****         }
1663:Generated_Source\PSoC4/CapSense_CSHL.c ****         else
1664:Generated_Source\PSoC4/CapSense_CSHL.c ****         {
1665:Generated_Source\PSoC4/CapSense_CSHL.c ****             CapSense_centroid[CapSense_POS_PREV] = 0u;
 1122              		.loc 1 1665 0
 1123 007e 0021     		movs	r1, #0
 1124 0080 3823     		movs	r3, #56
 1125 0082 174A     		ldr	r2, .L99
 1126 0084 D154     		strb	r1, [r2, r3]
 1127              	.L95:
1666:Generated_Source\PSoC4/CapSense_CSHL.c ****         }
1667:Generated_Source\PSoC4/CapSense_CSHL.c **** 
1668:Generated_Source\PSoC4/CapSense_CSHL.c ****         /* Maximum always greater than fingerThreshold, so greater than noiseThreshold */
1669:Generated_Source\PSoC4/CapSense_CSHL.c ****         CapSense_centroid[CapSense_POS] -= noiseThreshold;
 1128              		.loc 1 1669 0
 1129 0086 164A     		ldr	r2, .L99
 1130 0088 3832     		adds	r2, r2, #56
 1131 008a 5378     		ldrb	r3, [r2, #1]
 1132 008c 1B1A     		subs	r3, r3, r0
 1133 008e DBB2     		uxtb	r3, r3
 1134 0090 5370     		strb	r3, [r2, #1]
1670:Generated_Source\PSoC4/CapSense_CSHL.c **** 
1671:Generated_Source\PSoC4/CapSense_CSHL.c ****         /* Subtract noiseThreshold */
1672:Generated_Source\PSoC4/CapSense_CSHL.c ****         if(CapSense_centroid[CapSense_POS_NEXT] > noiseThreshold)
 1135              		.loc 1 1672 0
 1136 0092 9278     		ldrb	r2, [r2, #2]
 1137 0094 9042     		cmp	r0, r2
 1138 0096 04D2     		bcs	.L96
1673:Generated_Source\PSoC4/CapSense_CSHL.c ****         {
1674:Generated_Source\PSoC4/CapSense_CSHL.c ****             CapSense_centroid[CapSense_POS_NEXT] -= noiseThreshold;
 1139              		.loc 1 1674 0
 1140 0098 101A     		subs	r0, r2, r0
 1141 009a 114A     		ldr	r2, .L99
 1142 009c 3832     		adds	r2, r2, #56
 1143 009e 9070     		strb	r0, [r2, #2]
 1144 00a0 03E0     		b	.L97
 1145              	.L96:
1675:Generated_Source\PSoC4/CapSense_CSHL.c ****         }
1676:Generated_Source\PSoC4/CapSense_CSHL.c ****         else
1677:Generated_Source\PSoC4/CapSense_CSHL.c ****         {
1678:Generated_Source\PSoC4/CapSense_CSHL.c ****             CapSense_centroid[CapSense_POS_NEXT] = 0u;
 1146              		.loc 1 1678 0
 1147 00a2 0021     		movs	r1, #0
 1148 00a4 0E4A     		ldr	r2, .L99
 1149 00a6 3832     		adds	r2, r2, #56
 1150 00a8 9170     		strb	r1, [r2, #2]
 1151              	.L97:
1679:Generated_Source\PSoC4/CapSense_CSHL.c ****         }
1680:Generated_Source\PSoC4/CapSense_CSHL.c **** 
1681:Generated_Source\PSoC4/CapSense_CSHL.c **** 
1682:Generated_Source\PSoC4/CapSense_CSHL.c ****         /* Si+1 - Si-1 */
1683:Generated_Source\PSoC4/CapSense_CSHL.c ****         numerator = (uint32) CapSense_centroid[CapSense_POS_NEXT] -
 1152              		.loc 1 1683 0
 1153 00aa 0D49     		ldr	r1, .L99
 1154 00ac 0A00     		movs	r2, r1
ARM GAS  C:\Users\SHOZO\AppData\Local\Temp\cc3BkmVy.s 			page 51


 1155 00ae 3832     		adds	r2, r2, #56
 1156 00b0 9278     		ldrb	r2, [r2, #2]
1684:Generated_Source\PSoC4/CapSense_CSHL.c ****                     (uint32) CapSense_centroid[CapSense_POS_PREV];
 1157              		.loc 1 1684 0
 1158 00b2 3820     		movs	r0, #56
 1159 00b4 095C     		ldrb	r1, [r1, r0]
1683:Generated_Source\PSoC4/CapSense_CSHL.c ****                     (uint32) CapSense_centroid[CapSense_POS_PREV];
 1160              		.loc 1 1683 0
 1161 00b6 501A     		subs	r0, r2, r1
 1162              	.LVL116:
1685:Generated_Source\PSoC4/CapSense_CSHL.c **** 
1686:Generated_Source\PSoC4/CapSense_CSHL.c ****         /* Si+1 + Si + Si-1 */
1687:Generated_Source\PSoC4/CapSense_CSHL.c ****         denominator = (int32) CapSense_centroid[CapSense_POS_PREV] +
 1163              		.loc 1 1687 0
 1164 00b8 C918     		adds	r1, r1, r3
 1165 00ba 8918     		adds	r1, r1, r2
 1166              	.LVL117:
1688:Generated_Source\PSoC4/CapSense_CSHL.c ****                       (int32) CapSense_centroid[CapSense_POS] +
1689:Generated_Source\PSoC4/CapSense_CSHL.c ****                       (int32) CapSense_centroid[CapSense_POS_NEXT];
1690:Generated_Source\PSoC4/CapSense_CSHL.c **** 
1691:Generated_Source\PSoC4/CapSense_CSHL.c ****         /* (numerator/denominator) + maximum */
1692:Generated_Source\PSoC4/CapSense_CSHL.c ****         denominator = (((int32)(uint32)((uint32)numerator << 8u)/denominator) + (int32)(uint32)((ui
 1167              		.loc 1 1692 0
 1168 00bc 0002     		lsls	r0, r0, #8
 1169              	.LVL118:
 1170 00be FFF7FEFF 		bl	__aeabi_idiv
 1171              	.LVL119:
 1172 00c2 2402     		lsls	r4, r4, #8
 1173 00c4 0019     		adds	r0, r0, r4
 1174              	.LVL120:
1693:Generated_Source\PSoC4/CapSense_CSHL.c **** 
1694:Generated_Source\PSoC4/CapSense_CSHL.c ****         #if(CapSense_TOTAL_RADIAL_SLIDERS_COUNT > 0u)
1695:Generated_Source\PSoC4/CapSense_CSHL.c ****             /* Only required for RADIAL Slider */
1696:Generated_Source\PSoC4/CapSense_CSHL.c ****             if(denominator < 0)
1697:Generated_Source\PSoC4/CapSense_CSHL.c ****             {
1698:Generated_Source\PSoC4/CapSense_CSHL.c ****                 denominator += (int32)((uint16)((uint16) count << 8u));
1699:Generated_Source\PSoC4/CapSense_CSHL.c ****             }
1700:Generated_Source\PSoC4/CapSense_CSHL.c ****         #endif /* (CapSense_TOTAL_RADIAL_SLIDERS_COUNT > 0u) */
1701:Generated_Source\PSoC4/CapSense_CSHL.c **** 
1702:Generated_Source\PSoC4/CapSense_CSHL.c ****         denominator *= (int16)resolution;
 1175              		.loc 1 1702 0
 1176 00c6 6B46     		mov	r3, sp
 1177 00c8 0025     		movs	r5, #0
 1178 00ca 5D5F     		ldrsh	r5, [r3, r5]
 1179              	.LVL121:
 1180 00cc 6843     		muls	r0, r5
 1181              	.LVL122:
1703:Generated_Source\PSoC4/CapSense_CSHL.c **** 
1704:Generated_Source\PSoC4/CapSense_CSHL.c ****         /* Round result and put it to uint8 */
1705:Generated_Source\PSoC4/CapSense_CSHL.c ****         position = ((uint8) HI16((uint32)denominator + CapSense_CENTROID_ROUND_VALUE));
 1182              		.loc 1 1705 0
 1183 00ce FE23     		movs	r3, #254
 1184 00d0 DB01     		lsls	r3, r3, #7
 1185 00d2 9C46     		mov	ip, r3
 1186 00d4 6044     		add	r0, r0, ip
 1187              	.LVL123:
 1188 00d6 000C     		lsrs	r0, r0, #16
ARM GAS  C:\Users\SHOZO\AppData\Local\Temp\cc3BkmVy.s 			page 52


 1189              	.LVL124:
 1190 00d8 C0B2     		uxtb	r0, r0
 1191              	.LVL125:
1706:Generated_Source\PSoC4/CapSense_CSHL.c **** 
1707:Generated_Source\PSoC4/CapSense_CSHL.c ****         return (position);
1708:Generated_Source\PSoC4/CapSense_CSHL.c ****     }
 1192              		.loc 1 1708 0
 1193 00da 03B0     		add	sp, sp, #12
 1194              		@ sp needed
 1195 00dc F0BD     		pop	{r4, r5, r6, r7, pc}
 1196              	.L100:
 1197 00de C046     		.align	2
 1198              	.L99:
 1199 00e0 00000000 		.word	.LANCHOR0
 1200              		.cfi_endproc
 1201              	.LFE60:
 1202              		.size	CapSense_CalcCentroid, .-CapSense_CalcCentroid
 1203              		.section	.text.CapSense_GetRadialCentroidPos,"ax",%progbits
 1204              		.align	2
 1205              		.global	CapSense_GetRadialCentroidPos
 1206              		.code	16
 1207              		.thumb_func
 1208              		.type	CapSense_GetRadialCentroidPos, %function
 1209              	CapSense_GetRadialCentroidPos:
 1210              	.LFB62:
1709:Generated_Source\PSoC4/CapSense_CSHL.c **** #endif /* (CapSense_TOTAL_CENTROIDS_BASIC_COUNT) */
1710:Generated_Source\PSoC4/CapSense_CSHL.c **** 
1711:Generated_Source\PSoC4/CapSense_CSHL.c **** 
1712:Generated_Source\PSoC4/CapSense_CSHL.c **** #if((CapSense_TOTAL_RADIAL_SLIDERS_COUNT > 0u) || (CapSense_TOTAL_LINEAR_SLIDERS_COUNT > 0u))
1713:Generated_Source\PSoC4/CapSense_CSHL.c ****     /*******************************************************************************
1714:Generated_Source\PSoC4/CapSense_CSHL.c ****     * Function Name: CapSense_GetCentroidPos
1715:Generated_Source\PSoC4/CapSense_CSHL.c ****     ********************************************************************************
1716:Generated_Source\PSoC4/CapSense_CSHL.c ****     *
1717:Generated_Source\PSoC4/CapSense_CSHL.c ****     * Summary:
1718:Generated_Source\PSoC4/CapSense_CSHL.c ****     *  Checks the CapSense_Signal[ ] array for a centroid within
1719:Generated_Source\PSoC4/CapSense_CSHL.c ****     *  a slider specified range. The centroid position is calculated according to the resolution
1720:Generated_Source\PSoC4/CapSense_CSHL.c ****     *  specified in the CapSense customizer. The position filters are applied to the
1721:Generated_Source\PSoC4/CapSense_CSHL.c ****     *  result if enabled.
1722:Generated_Source\PSoC4/CapSense_CSHL.c ****     *
1723:Generated_Source\PSoC4/CapSense_CSHL.c ****     * Parameters:
1724:Generated_Source\PSoC4/CapSense_CSHL.c ****     *  widget:  Widget number.
1725:Generated_Source\PSoC4/CapSense_CSHL.c ****     *  For every linear slider widget there are defines in this format:
1726:Generated_Source\PSoC4/CapSense_CSHL.c ****     *  #define CapSense_"widget_name"__LS           5
1727:Generated_Source\PSoC4/CapSense_CSHL.c ****     *
1728:Generated_Source\PSoC4/CapSense_CSHL.c ****     * Return:
1729:Generated_Source\PSoC4/CapSense_CSHL.c ****     *  Returns a position value of the linear slider.
1730:Generated_Source\PSoC4/CapSense_CSHL.c ****     *
1731:Generated_Source\PSoC4/CapSense_CSHL.c ****     * Global Variables:
1732:Generated_Source\PSoC4/CapSense_CSHL.c ****     *  None
1733:Generated_Source\PSoC4/CapSense_CSHL.c ****     *
1734:Generated_Source\PSoC4/CapSense_CSHL.c ****     * Side Effects:
1735:Generated_Source\PSoC4/CapSense_CSHL.c ****     *  If any sensor within the slider widget is active, the function returns values
1736:Generated_Source\PSoC4/CapSense_CSHL.c ****     *  from zero to the API resolution value set in the CapSense customizer. If no
1737:Generated_Source\PSoC4/CapSense_CSHL.c ****     *  sensors are active, the function returns 0xFFFF. If an error occurs during
1738:Generated_Source\PSoC4/CapSense_CSHL.c ****     *  execution of the centroid/diplexing algorithm, the function returns 0xFFFF.
1739:Generated_Source\PSoC4/CapSense_CSHL.c ****     *  There are no checks of the widget type argument provided to this function.
1740:Generated_Source\PSoC4/CapSense_CSHL.c ****     *  The unproper widget type provided will cause unexpected position calculations.
ARM GAS  C:\Users\SHOZO\AppData\Local\Temp\cc3BkmVy.s 			page 53


1741:Generated_Source\PSoC4/CapSense_CSHL.c ****     *
1742:Generated_Source\PSoC4/CapSense_CSHL.c ****     * Note:
1743:Generated_Source\PSoC4/CapSense_CSHL.c ****     *  If noise counts on the slider segments are greater than the noise
1744:Generated_Source\PSoC4/CapSense_CSHL.c ****     *  threshold, this subroutine may generate a false centroid result. The noise
1745:Generated_Source\PSoC4/CapSense_CSHL.c ****     *  threshold should be set carefully (high enough above the noise level) so
1746:Generated_Source\PSoC4/CapSense_CSHL.c ****     *  that noise will not generate a false centroid.
1747:Generated_Source\PSoC4/CapSense_CSHL.c ****     *******************************************************************************/
1748:Generated_Source\PSoC4/CapSense_CSHL.c ****     uint16 CapSense_GetCentroidPos(uint32 widget)
1749:Generated_Source\PSoC4/CapSense_CSHL.c ****     {
1750:Generated_Source\PSoC4/CapSense_CSHL.c ****         #if (CapSense_IS_DIPLEX_SLIDER)
1751:Generated_Source\PSoC4/CapSense_CSHL.c ****             const uint8 *diplex;
1752:Generated_Source\PSoC4/CapSense_CSHL.c ****         #endif /* (CapSense_IS_DIPLEX_SLIDER) */
1753:Generated_Source\PSoC4/CapSense_CSHL.c **** 
1754:Generated_Source\PSoC4/CapSense_CSHL.c ****         #if (0u != CapSense_LINEAR_SLIDERS_POS_FILTERS_MASK)
1755:Generated_Source\PSoC4/CapSense_CSHL.c ****             uint8 posIndex;
1756:Generated_Source\PSoC4/CapSense_CSHL.c ****             uint8 firstTimeIndex = CapSense_posFiltersData[widget];
1757:Generated_Source\PSoC4/CapSense_CSHL.c ****             uint8 posFiltersMask = CapSense_posFiltersMask[widget];
1758:Generated_Source\PSoC4/CapSense_CSHL.c ****         #endif /* (0u != CapSense_LINEAR_SLIDERS_POS_FILTERS_MASK) */
1759:Generated_Source\PSoC4/CapSense_CSHL.c **** 
1760:Generated_Source\PSoC4/CapSense_CSHL.c ****         #if ((0u != (CapSense_MEDIAN_FILTER & CapSense_LINEAR_SLIDERS_POS_FILTERS_MASK)) || \
1761:Generated_Source\PSoC4/CapSense_CSHL.c ****              (0u != (CapSense_AVERAGING_FILTER & CapSense_LINEAR_SLIDERS_POS_FILTERS_MASK)))
1762:Generated_Source\PSoC4/CapSense_CSHL.c ****             uint8 tempPos;
1763:Generated_Source\PSoC4/CapSense_CSHL.c ****         #endif /* ((0u != (CapSense_MEDIAN_FILTER & CapSense_LINEAR_SLIDERS_POS_FILTERS_MASK)) || \
1764:Generated_Source\PSoC4/CapSense_CSHL.c ****                *   (0u != (CapSense_AVERAGING_FILTER & CapSense_LINEAR_SLIDERS_POS_FILTERS_MASK)))
1765:Generated_Source\PSoC4/CapSense_CSHL.c ****                */
1766:Generated_Source\PSoC4/CapSense_CSHL.c **** 
1767:Generated_Source\PSoC4/CapSense_CSHL.c ****         uint8 maximum;
1768:Generated_Source\PSoC4/CapSense_CSHL.c ****         uint16 position;
1769:Generated_Source\PSoC4/CapSense_CSHL.c ****         uint8 offset = CapSense_rawDataIndex[widget];
1770:Generated_Source\PSoC4/CapSense_CSHL.c ****         uint8 count = CapSense_numberOfSensors[widget];
1771:Generated_Source\PSoC4/CapSense_CSHL.c **** 
1772:Generated_Source\PSoC4/CapSense_CSHL.c ****         #if (CapSense_IS_DIPLEX_SLIDER)
1773:Generated_Source\PSoC4/CapSense_CSHL.c ****             if(widget < CapSense_TOTAL_DIPLEXED_SLIDERS_COUNT)
1774:Generated_Source\PSoC4/CapSense_CSHL.c ****             {
1775:Generated_Source\PSoC4/CapSense_CSHL.c ****                 maximum = CapSense_diplexTable[widget];
1776:Generated_Source\PSoC4/CapSense_CSHL.c ****                 diplex = &CapSense_diplexTable[maximum];
1777:Generated_Source\PSoC4/CapSense_CSHL.c ****             }
1778:Generated_Source\PSoC4/CapSense_CSHL.c ****             else
1779:Generated_Source\PSoC4/CapSense_CSHL.c ****             {
1780:Generated_Source\PSoC4/CapSense_CSHL.c ****                 diplex = 0u;
1781:Generated_Source\PSoC4/CapSense_CSHL.c ****             }
1782:Generated_Source\PSoC4/CapSense_CSHL.c ****         #endif /* (CapSense_IS_DIPLEX_SLIDER) */
1783:Generated_Source\PSoC4/CapSense_CSHL.c **** 
1784:Generated_Source\PSoC4/CapSense_CSHL.c ****         /* Find Maximum within centroid */
1785:Generated_Source\PSoC4/CapSense_CSHL.c ****         #if (CapSense_IS_DIPLEX_SLIDER)
1786:Generated_Source\PSoC4/CapSense_CSHL.c ****             maximum = CapSense_FindMaximum(offset, count, (uint8)CapSense_fingerThreshold[widget], 
1787:Generated_Source\PSoC4/CapSense_CSHL.c ****         #else
1788:Generated_Source\PSoC4/CapSense_CSHL.c ****             maximum = CapSense_FindMaximum(offset, count, (uint8)CapSense_fingerThreshold[widget]);
1789:Generated_Source\PSoC4/CapSense_CSHL.c ****         #endif /* (CapSense_IS_DIPLEX_SLIDER) */
1790:Generated_Source\PSoC4/CapSense_CSHL.c **** 
1791:Generated_Source\PSoC4/CapSense_CSHL.c ****         if (maximum != 0xFFu)
1792:Generated_Source\PSoC4/CapSense_CSHL.c ****         {
1793:Generated_Source\PSoC4/CapSense_CSHL.c ****             /* Calculate centroid */
1794:Generated_Source\PSoC4/CapSense_CSHL.c ****             position = (uint16) CapSense_CalcCentroid(maximum,
1795:Generated_Source\PSoC4/CapSense_CSHL.c ****                          offset, count, CapSense_centroidMult[widget], CapSense_noiseThreshold[widg
1796:Generated_Source\PSoC4/CapSense_CSHL.c **** 
1797:Generated_Source\PSoC4/CapSense_CSHL.c ****             #if (0u != CapSense_LINEAR_SLIDERS_POS_FILTERS_MASK)
ARM GAS  C:\Users\SHOZO\AppData\Local\Temp\cc3BkmVy.s 			page 54


1798:Generated_Source\PSoC4/CapSense_CSHL.c ****                 /* Check if this linear slider has enabled filters */
1799:Generated_Source\PSoC4/CapSense_CSHL.c ****                 if (0u != (posFiltersMask & CapSense_ANY_POS_FILTER))
1800:Generated_Source\PSoC4/CapSense_CSHL.c ****                 {
1801:Generated_Source\PSoC4/CapSense_CSHL.c ****                     /* Calculate position to store filters data */
1802:Generated_Source\PSoC4/CapSense_CSHL.c ****                     posIndex  = firstTimeIndex + 1u;
1803:Generated_Source\PSoC4/CapSense_CSHL.c **** 
1804:Generated_Source\PSoC4/CapSense_CSHL.c ****                     if (0u == CapSense_posFiltersData[firstTimeIndex])
1805:Generated_Source\PSoC4/CapSense_CSHL.c ****                     {
1806:Generated_Source\PSoC4/CapSense_CSHL.c ****                         /* Init filters */
1807:Generated_Source\PSoC4/CapSense_CSHL.c ****                         CapSense_posFiltersData[posIndex] = (uint8) position;
1808:Generated_Source\PSoC4/CapSense_CSHL.c ****                         #if ((0u != (CapSense_MEDIAN_FILTER & \
1809:Generated_Source\PSoC4/CapSense_CSHL.c ****                                      CapSense_LINEAR_SLIDERS_POS_FILTERS_MASK)) || \
1810:Generated_Source\PSoC4/CapSense_CSHL.c ****                              (0u != (CapSense_AVERAGING_FILTER & \
1811:Generated_Source\PSoC4/CapSense_CSHL.c ****                                      CapSense_LINEAR_SLIDERS_POS_FILTERS_MASK)))
1812:Generated_Source\PSoC4/CapSense_CSHL.c **** 
1813:Generated_Source\PSoC4/CapSense_CSHL.c ****                             if ( (0u != (posFiltersMask & CapSense_MEDIAN_FILTER)) ||
1814:Generated_Source\PSoC4/CapSense_CSHL.c ****                                  (0u != (posFiltersMask & CapSense_AVERAGING_FILTER)) )
1815:Generated_Source\PSoC4/CapSense_CSHL.c ****                             {
1816:Generated_Source\PSoC4/CapSense_CSHL.c ****                                 CapSense_posFiltersData[posIndex + 1u] = (uint8) position;
1817:Generated_Source\PSoC4/CapSense_CSHL.c ****                             }
1818:Generated_Source\PSoC4/CapSense_CSHL.c ****                         #endif /* ((0u != (CapSense_MEDIAN_FILTER & \
1819:Generated_Source\PSoC4/CapSense_CSHL.c ****                                *           CapSense_LINEAR_SLIDERS_POS_FILTERS_MASK)) || \
1820:Generated_Source\PSoC4/CapSense_CSHL.c ****                                *   (0u != (CapSense_AVERAGING_FILTER & \
1821:Generated_Source\PSoC4/CapSense_CSHL.c ****                                *           CapSense_LINEAR_SLIDERS_POS_FILTERS_MASK)))
1822:Generated_Source\PSoC4/CapSense_CSHL.c ****                                */
1823:Generated_Source\PSoC4/CapSense_CSHL.c **** 
1824:Generated_Source\PSoC4/CapSense_CSHL.c ****                         CapSense_posFiltersData[firstTimeIndex] = 1u;
1825:Generated_Source\PSoC4/CapSense_CSHL.c ****                     }
1826:Generated_Source\PSoC4/CapSense_CSHL.c ****                     else
1827:Generated_Source\PSoC4/CapSense_CSHL.c ****                     {
1828:Generated_Source\PSoC4/CapSense_CSHL.c ****                         /* Do filtering */
1829:Generated_Source\PSoC4/CapSense_CSHL.c ****                         #if (0u != (CapSense_MEDIAN_FILTER & CapSense_LINEAR_SLIDERS_POS_FILTERS_MA
1830:Generated_Source\PSoC4/CapSense_CSHL.c ****                             if (0u != (posFiltersMask & CapSense_MEDIAN_FILTER))
1831:Generated_Source\PSoC4/CapSense_CSHL.c ****                             {
1832:Generated_Source\PSoC4/CapSense_CSHL.c ****                                 tempPos = (uint8) position;
1833:Generated_Source\PSoC4/CapSense_CSHL.c ****                                 position = CapSense_MedianFilter(position,
1834:Generated_Source\PSoC4/CapSense_CSHL.c ****                                                                 (uint16)CapSense_posFiltersData[pos
1835:Generated_Source\PSoC4/CapSense_CSHL.c ****                                                                 (uint16)CapSense_posFiltersData[pos
1836:Generated_Source\PSoC4/CapSense_CSHL.c ****                                 CapSense_posFiltersData[posIndex + 1u] =
1837:Generated_Source\PSoC4/CapSense_CSHL.c ****                                                                              CapSense_posFiltersDat
1838:Generated_Source\PSoC4/CapSense_CSHL.c ****                                 CapSense_posFiltersData[posIndex] = tempPos;
1839:Generated_Source\PSoC4/CapSense_CSHL.c ****                             }
1840:Generated_Source\PSoC4/CapSense_CSHL.c ****                         #endif /*(0u != (CapSense_MEDIAN_FILTER &
1841:Generated_Source\PSoC4/CapSense_CSHL.c ****                                *         CapSense_LINEAR_SLIDERS_POS_FILTERS_MASK))
1842:Generated_Source\PSoC4/CapSense_CSHL.c ****                                */
1843:Generated_Source\PSoC4/CapSense_CSHL.c **** 
1844:Generated_Source\PSoC4/CapSense_CSHL.c ****                         #if(0u!=(CapSense_AVERAGING_FILTER & CapSense_LINEAR_SLIDERS_POS_FILTERS_MA
1845:Generated_Source\PSoC4/CapSense_CSHL.c ****                             if (0u != (posFiltersMask & CapSense_AVERAGING_FILTER))
1846:Generated_Source\PSoC4/CapSense_CSHL.c ****                             {
1847:Generated_Source\PSoC4/CapSense_CSHL.c ****                                 tempPos = (uint8) position;
1848:Generated_Source\PSoC4/CapSense_CSHL.c ****                                 position = CapSense_AveragingFilter(position,
1849:Generated_Source\PSoC4/CapSense_CSHL.c ****                                                                 (uint16)CapSense_posFiltersData[pos
1850:Generated_Source\PSoC4/CapSense_CSHL.c ****                                                                 (uint16)CapSense_posFiltersData[pos
1851:Generated_Source\PSoC4/CapSense_CSHL.c ****                                 CapSense_posFiltersData[posIndex+1u]=CapSense_posFiltersData[posInd
1852:Generated_Source\PSoC4/CapSense_CSHL.c ****                                 CapSense_posFiltersData[posIndex] = tempPos;
1853:Generated_Source\PSoC4/CapSense_CSHL.c ****                             }
1854:Generated_Source\PSoC4/CapSense_CSHL.c ****                         #endif /* (0u != (CapSense_AVERAGING_FILTER & \
ARM GAS  C:\Users\SHOZO\AppData\Local\Temp\cc3BkmVy.s 			page 55


1855:Generated_Source\PSoC4/CapSense_CSHL.c ****                                *           CapSense_LINEAR_SLIDERS_POS_FILTERS_MASK))
1856:Generated_Source\PSoC4/CapSense_CSHL.c ****                                */
1857:Generated_Source\PSoC4/CapSense_CSHL.c **** 
1858:Generated_Source\PSoC4/CapSense_CSHL.c ****                         #if (0u != (CapSense_IIR2_FILTER & CapSense_LINEAR_SLIDERS_POS_FILTERS_MASK
1859:Generated_Source\PSoC4/CapSense_CSHL.c ****                             if (0u != (posFiltersMask & CapSense_IIR2_FILTER))
1860:Generated_Source\PSoC4/CapSense_CSHL.c ****                             {
1861:Generated_Source\PSoC4/CapSense_CSHL.c ****                                 position = CapSense_IIR2Filter(position,
1862:Generated_Source\PSoC4/CapSense_CSHL.c ****                                                                     (uint16)CapSense_posFiltersData
1863:Generated_Source\PSoC4/CapSense_CSHL.c ****                                 CapSense_posFiltersData[posIndex] = (uint8) position;
1864:Generated_Source\PSoC4/CapSense_CSHL.c ****                             }
1865:Generated_Source\PSoC4/CapSense_CSHL.c ****                         #endif /* (0u != (CapSense_IIR2_FILTER & \
1866:Generated_Source\PSoC4/CapSense_CSHL.c ****                                *          CapSense_LINEAR_SLIDERS_POS_FILTERS_MASK))
1867:Generated_Source\PSoC4/CapSense_CSHL.c ****                                */
1868:Generated_Source\PSoC4/CapSense_CSHL.c **** 
1869:Generated_Source\PSoC4/CapSense_CSHL.c ****                         #if (0u != (CapSense_IIR4_FILTER & CapSense_LINEAR_SLIDERS_POS_FILTERS_MASK
1870:Generated_Source\PSoC4/CapSense_CSHL.c ****                             if (0u != (posFiltersMask & CapSense_IIR4_FILTER))
1871:Generated_Source\PSoC4/CapSense_CSHL.c ****                             {
1872:Generated_Source\PSoC4/CapSense_CSHL.c ****                                 position = CapSense_IIR4Filter(position,
1873:Generated_Source\PSoC4/CapSense_CSHL.c ****                                                                     (uint16)CapSense_posFiltersData
1874:Generated_Source\PSoC4/CapSense_CSHL.c ****                                 CapSense_posFiltersData[posIndex] = (uint8) position;
1875:Generated_Source\PSoC4/CapSense_CSHL.c ****                             }
1876:Generated_Source\PSoC4/CapSense_CSHL.c ****                         #endif /* (0u != (CapSense_IIR4_FILTER & \
1877:Generated_Source\PSoC4/CapSense_CSHL.c ****                                *          CapSense_LINEAR_SLIDERS_POS_FILTERS_MASK))
1878:Generated_Source\PSoC4/CapSense_CSHL.c ****                                */
1879:Generated_Source\PSoC4/CapSense_CSHL.c **** 
1880:Generated_Source\PSoC4/CapSense_CSHL.c ****                         #if (0u != (CapSense_JITTER_FILTER & CapSense_LINEAR_SLIDERS_POS_FILTERS_MA
1881:Generated_Source\PSoC4/CapSense_CSHL.c ****                             if (0u != (posFiltersMask & CapSense_JITTER_FILTER))
1882:Generated_Source\PSoC4/CapSense_CSHL.c ****                             {
1883:Generated_Source\PSoC4/CapSense_CSHL.c ****                                 position = CapSense_JitterFilter(position,
1884:Generated_Source\PSoC4/CapSense_CSHL.c ****                                                                     (uint16)CapSense_posFiltersData
1885:Generated_Source\PSoC4/CapSense_CSHL.c ****                                 CapSense_posFiltersData[posIndex] = (uint8) position;
1886:Generated_Source\PSoC4/CapSense_CSHL.c ****                             }
1887:Generated_Source\PSoC4/CapSense_CSHL.c ****                         #endif /* (0u != (CapSense_JITTER_FILTER & \
1888:Generated_Source\PSoC4/CapSense_CSHL.c ****                                *           CapSense_LINEAR_SLIDERS_POS_FILTERS_MASK))
1889:Generated_Source\PSoC4/CapSense_CSHL.c ****                                */
1890:Generated_Source\PSoC4/CapSense_CSHL.c ****                     }
1891:Generated_Source\PSoC4/CapSense_CSHL.c ****                 }
1892:Generated_Source\PSoC4/CapSense_CSHL.c ****             #endif /* (0u != CapSense_LINEAR_SLIDERS_POS_FILTERS_MASK) */
1893:Generated_Source\PSoC4/CapSense_CSHL.c **** 
1894:Generated_Source\PSoC4/CapSense_CSHL.c ****         }
1895:Generated_Source\PSoC4/CapSense_CSHL.c ****         else
1896:Generated_Source\PSoC4/CapSense_CSHL.c ****         {
1897:Generated_Source\PSoC4/CapSense_CSHL.c ****             /* Maximum wasn't found */
1898:Generated_Source\PSoC4/CapSense_CSHL.c ****             position = 0xFFFFu;
1899:Generated_Source\PSoC4/CapSense_CSHL.c **** 
1900:Generated_Source\PSoC4/CapSense_CSHL.c ****             #if(0u != CapSense_LINEAR_SLIDERS_POS_FILTERS_MASK)
1901:Generated_Source\PSoC4/CapSense_CSHL.c ****                 /* Reset filters */
1902:Generated_Source\PSoC4/CapSense_CSHL.c ****                 if(0u != (posFiltersMask & CapSense_ANY_POS_FILTER))
1903:Generated_Source\PSoC4/CapSense_CSHL.c ****                 {
1904:Generated_Source\PSoC4/CapSense_CSHL.c ****                     CapSense_posFiltersData[firstTimeIndex] = 0u;
1905:Generated_Source\PSoC4/CapSense_CSHL.c ****                 }
1906:Generated_Source\PSoC4/CapSense_CSHL.c ****             #endif /* (0u != CapSense_LINEAR_SLIDERS_POS_FILTERS_MASK) */
1907:Generated_Source\PSoC4/CapSense_CSHL.c ****         }
1908:Generated_Source\PSoC4/CapSense_CSHL.c **** 
1909:Generated_Source\PSoC4/CapSense_CSHL.c **** 
1910:Generated_Source\PSoC4/CapSense_CSHL.c ****         return (position);
1911:Generated_Source\PSoC4/CapSense_CSHL.c ****     }
ARM GAS  C:\Users\SHOZO\AppData\Local\Temp\cc3BkmVy.s 			page 56


1912:Generated_Source\PSoC4/CapSense_CSHL.c **** #endif /* ((CapSense_TOTAL_RADIAL_SLIDERS_COUNT > 0u) || (CapSense_TOTAL_LINEAR_SLIDERS_COUNT > 0u)
1913:Generated_Source\PSoC4/CapSense_CSHL.c **** 
1914:Generated_Source\PSoC4/CapSense_CSHL.c **** 
1915:Generated_Source\PSoC4/CapSense_CSHL.c **** #if((CapSense_TOTAL_RADIAL_SLIDERS_COUNT > 0u) || (CapSense_TOTAL_LINEAR_SLIDERS_COUNT > 0u))
1916:Generated_Source\PSoC4/CapSense_CSHL.c ****     /*******************************************************************************
1917:Generated_Source\PSoC4/CapSense_CSHL.c ****     * Function Name: CapSense_GetRadialCentroidPos
1918:Generated_Source\PSoC4/CapSense_CSHL.c ****     ********************************************************************************
1919:Generated_Source\PSoC4/CapSense_CSHL.c ****     *
1920:Generated_Source\PSoC4/CapSense_CSHL.c ****     * Summary:
1921:Generated_Source\PSoC4/CapSense_CSHL.c ****     *  Checks the CapSense_Signal[ ] array for a centroid within
1922:Generated_Source\PSoC4/CapSense_CSHL.c ****     *  a slider specified range. The centroid position is calculated according to the resolution
1923:Generated_Source\PSoC4/CapSense_CSHL.c ****     *  specified in the CapSense customizer. The position filters are applied to the
1924:Generated_Source\PSoC4/CapSense_CSHL.c ****     *  result if enabled.
1925:Generated_Source\PSoC4/CapSense_CSHL.c ****     *
1926:Generated_Source\PSoC4/CapSense_CSHL.c ****     * Parameters:
1927:Generated_Source\PSoC4/CapSense_CSHL.c ****     *  widget:  Widget number.
1928:Generated_Source\PSoC4/CapSense_CSHL.c ****     *  For every radial slider widget there are defines in this format:
1929:Generated_Source\PSoC4/CapSense_CSHL.c ****     *  #define CapSense_"widget_name"__RS           5
1930:Generated_Source\PSoC4/CapSense_CSHL.c ****     *
1931:Generated_Source\PSoC4/CapSense_CSHL.c ****     * Return:
1932:Generated_Source\PSoC4/CapSense_CSHL.c ****     *  Returns a position value of the radial slider.
1933:Generated_Source\PSoC4/CapSense_CSHL.c ****     *
1934:Generated_Source\PSoC4/CapSense_CSHL.c ****     * Global Variables:
1935:Generated_Source\PSoC4/CapSense_CSHL.c ****     *  None.
1936:Generated_Source\PSoC4/CapSense_CSHL.c ****     *
1937:Generated_Source\PSoC4/CapSense_CSHL.c ****     * Side Effects:
1938:Generated_Source\PSoC4/CapSense_CSHL.c ****     *  If any sensor within the slider widget is active, the function returns values
1939:Generated_Source\PSoC4/CapSense_CSHL.c ****     *  from zero to the API resolution value set in the CapSense customizer. If no
1940:Generated_Source\PSoC4/CapSense_CSHL.c ****     *  sensors are active, the function returns 0xFFFF.
1941:Generated_Source\PSoC4/CapSense_CSHL.c ****     *  There are no checks of the widget type argument provided to this function.
1942:Generated_Source\PSoC4/CapSense_CSHL.c ****     *  The unproper widget type provided will cause unexpected position calculations.
1943:Generated_Source\PSoC4/CapSense_CSHL.c ****     *
1944:Generated_Source\PSoC4/CapSense_CSHL.c ****     * Note:
1945:Generated_Source\PSoC4/CapSense_CSHL.c ****     *  If noise counts on the slider segments are greater than the noise
1946:Generated_Source\PSoC4/CapSense_CSHL.c ****     *  threshold, this subroutine may generate a false centroid result. The noise
1947:Generated_Source\PSoC4/CapSense_CSHL.c ****     *  threshold should be set carefully (high enough above the noise level) so
1948:Generated_Source\PSoC4/CapSense_CSHL.c ****     *  that noise will not generate a false centroid.
1949:Generated_Source\PSoC4/CapSense_CSHL.c ****     *
1950:Generated_Source\PSoC4/CapSense_CSHL.c ****     *******************************************************************************/
1951:Generated_Source\PSoC4/CapSense_CSHL.c ****      uint16 CapSense_GetRadialCentroidPos(uint32 widget)
1952:Generated_Source\PSoC4/CapSense_CSHL.c ****     {
 1211              		.loc 1 1952 0
 1212              		.cfi_startproc
 1213              		@ args = 0, pretend = 0, frame = 0
 1214              		@ frame_needed = 0, uses_anonymous_args = 0
 1215              	.LVL126:
 1216 0000 10B5     		push	{r4, lr}
 1217              		.cfi_def_cfa_offset 8
 1218              		.cfi_offset 4, -8
 1219              		.cfi_offset 14, -4
 1220 0002 82B0     		sub	sp, sp, #8
 1221              		.cfi_def_cfa_offset 16
 1222 0004 0400     		movs	r4, r0
 1223              	.LVL127:
1953:Generated_Source\PSoC4/CapSense_CSHL.c ****         #if (0u != CapSense_RADIAL_SLIDERS_POS_FILTERS_MASK)
1954:Generated_Source\PSoC4/CapSense_CSHL.c ****             uint8 posIndex;
1955:Generated_Source\PSoC4/CapSense_CSHL.c ****             uint8 firstTimeIndex = CapSense_posFiltersData[widget];
ARM GAS  C:\Users\SHOZO\AppData\Local\Temp\cc3BkmVy.s 			page 57


1956:Generated_Source\PSoC4/CapSense_CSHL.c ****             uint8 posFiltersMask = CapSense_posFiltersMask[widget];
1957:Generated_Source\PSoC4/CapSense_CSHL.c ****         #endif /* (0u != CapSense_RADIAL_SLIDERS_POS_FILTERS_MASK) */
1958:Generated_Source\PSoC4/CapSense_CSHL.c **** 
1959:Generated_Source\PSoC4/CapSense_CSHL.c ****         #if ((0u != (CapSense_MEDIAN_FILTER & CapSense_RADIAL_SLIDERS_POS_FILTERS_MASK)) || \
1960:Generated_Source\PSoC4/CapSense_CSHL.c ****              (0u != (CapSense_AVERAGING_FILTER & CapSense_RADIAL_SLIDERS_POS_FILTERS_MASK)))
1961:Generated_Source\PSoC4/CapSense_CSHL.c ****             uint8 tempPos;
1962:Generated_Source\PSoC4/CapSense_CSHL.c ****         #endif /* ((0u != (CapSense_MEDIAN_FILTER & CapSense_RADIAL_SLIDERS_POS_FILTERS_MASK)) || \
1963:Generated_Source\PSoC4/CapSense_CSHL.c ****                *   (0u != (CapSense_AVERAGING_FILTER & CapSense_RADIAL_SLIDERS_POS_FILTERS_MASK)))
1964:Generated_Source\PSoC4/CapSense_CSHL.c ****                */
1965:Generated_Source\PSoC4/CapSense_CSHL.c **** 
1966:Generated_Source\PSoC4/CapSense_CSHL.c ****         uint8 maximum;
1967:Generated_Source\PSoC4/CapSense_CSHL.c ****         uint16 position;
1968:Generated_Source\PSoC4/CapSense_CSHL.c ****         uint8 offset = CapSense_rawDataIndex[widget];
1969:Generated_Source\PSoC4/CapSense_CSHL.c ****         uint8 count = CapSense_numberOfSensors[widget];
1970:Generated_Source\PSoC4/CapSense_CSHL.c **** 
1971:Generated_Source\PSoC4/CapSense_CSHL.c ****         /* Find Maximum within centroid */
1972:Generated_Source\PSoC4/CapSense_CSHL.c ****         #if (CapSense_IS_DIPLEX_SLIDER)
1973:Generated_Source\PSoC4/CapSense_CSHL.c ****             maximum = CapSense_FindMaximum(offset, count, (uint8)CapSense_fingerThreshold[widget], 
1974:Generated_Source\PSoC4/CapSense_CSHL.c ****         #else
1975:Generated_Source\PSoC4/CapSense_CSHL.c ****             maximum = CapSense_FindMaximum(offset, count, (uint8)CapSense_fingerThreshold[widget]);
 1224              		.loc 1 1975 0
 1225 0006 0B4B     		ldr	r3, .L104
 1226 0008 1A5C     		ldrb	r2, [r3, r0]
 1227 000a 0C21     		movs	r1, #12
 1228 000c 0020     		movs	r0, #0
 1229              	.LVL128:
 1230 000e FFF7FEFF 		bl	CapSense_FindMaximum
 1231              	.LVL129:
1976:Generated_Source\PSoC4/CapSense_CSHL.c ****         #endif /* (CapSense_IS_DIPLEX_SLIDER) */
1977:Generated_Source\PSoC4/CapSense_CSHL.c **** 
1978:Generated_Source\PSoC4/CapSense_CSHL.c ****         if (maximum != CapSense_MAXIMUM_CENTROID)
 1232              		.loc 1 1978 0
 1233 0012 FF28     		cmp	r0, #255
 1234 0014 0AD0     		beq	.L103
1979:Generated_Source\PSoC4/CapSense_CSHL.c ****         {
1980:Generated_Source\PSoC4/CapSense_CSHL.c ****             /* Calculate centroid */
1981:Generated_Source\PSoC4/CapSense_CSHL.c ****             position = (uint16) CapSense_CalcCentroid(maximum,
 1235              		.loc 1 1981 0
 1236 0016 084B     		ldr	r3, .L104+4
 1237 0018 1B5D     		ldrb	r3, [r3, r4]
 1238 001a 0093     		str	r3, [sp]
 1239 001c 9023     		movs	r3, #144
 1240 001e 1B01     		lsls	r3, r3, #4
 1241 0020 0C22     		movs	r2, #12
 1242 0022 0021     		movs	r1, #0
 1243 0024 FFF7FEFF 		bl	CapSense_CalcCentroid
 1244              	.LVL130:
 1245 0028 80B2     		uxth	r0, r0
 1246              	.LVL131:
 1247 002a 00E0     		b	.L102
 1248              	.LVL132:
 1249              	.L103:
1982:Generated_Source\PSoC4/CapSense_CSHL.c ****                          offset, count, CapSense_centroidMult[widget], CapSense_noiseThreshold[widg
1983:Generated_Source\PSoC4/CapSense_CSHL.c **** 
1984:Generated_Source\PSoC4/CapSense_CSHL.c ****             #if (0u != CapSense_RADIAL_SLIDERS_POS_FILTERS_MASK)
1985:Generated_Source\PSoC4/CapSense_CSHL.c ****                 /* Check if this Radial slider has enabled filters */
1986:Generated_Source\PSoC4/CapSense_CSHL.c ****                 if (0u != (posFiltersMask & CapSense_ANY_POS_FILTER))
ARM GAS  C:\Users\SHOZO\AppData\Local\Temp\cc3BkmVy.s 			page 58


1987:Generated_Source\PSoC4/CapSense_CSHL.c ****                 {
1988:Generated_Source\PSoC4/CapSense_CSHL.c ****                     /* Calculate position to store filters data */
1989:Generated_Source\PSoC4/CapSense_CSHL.c ****                     posIndex  = firstTimeIndex + 1u;
1990:Generated_Source\PSoC4/CapSense_CSHL.c **** 
1991:Generated_Source\PSoC4/CapSense_CSHL.c ****                     if (0u == CapSense_posFiltersData[firstTimeIndex])
1992:Generated_Source\PSoC4/CapSense_CSHL.c ****                     {
1993:Generated_Source\PSoC4/CapSense_CSHL.c ****                         /* Init filters */
1994:Generated_Source\PSoC4/CapSense_CSHL.c ****                         CapSense_posFiltersData[posIndex] = (uint8) position;
1995:Generated_Source\PSoC4/CapSense_CSHL.c ****                         #if ((0u != (CapSense_MEDIAN_FILTER & \
1996:Generated_Source\PSoC4/CapSense_CSHL.c ****                                      CapSense_RADIAL_SLIDERS_POS_FILTERS_MASK)) || \
1997:Generated_Source\PSoC4/CapSense_CSHL.c ****                              (0u != (CapSense_AVERAGING_FILTER & \
1998:Generated_Source\PSoC4/CapSense_CSHL.c ****                                      CapSense_RADIAL_SLIDERS_POS_FILTERS_MASK)))
1999:Generated_Source\PSoC4/CapSense_CSHL.c **** 
2000:Generated_Source\PSoC4/CapSense_CSHL.c ****                             if ( (0u != (posFiltersMask & CapSense_MEDIAN_FILTER))  ||
2001:Generated_Source\PSoC4/CapSense_CSHL.c ****                                  (0u != (posFiltersMask & CapSense_AVERAGING_FILTER)) )
2002:Generated_Source\PSoC4/CapSense_CSHL.c ****                             {
2003:Generated_Source\PSoC4/CapSense_CSHL.c ****                                 CapSense_posFiltersData[posIndex + 1u] = (uint8) position;
2004:Generated_Source\PSoC4/CapSense_CSHL.c ****                             }
2005:Generated_Source\PSoC4/CapSense_CSHL.c ****                         #endif /* ((0u != (CapSense_MEDIAN_FILTER & \
2006:Generated_Source\PSoC4/CapSense_CSHL.c ****                                *           CapSense_RADIAL_SLIDERS_POS_FILTERS_MASK)) || \
2007:Generated_Source\PSoC4/CapSense_CSHL.c ****                                *   (0u != (CapSense_AVERAGING_FILTER & \
2008:Generated_Source\PSoC4/CapSense_CSHL.c ****                                *           CapSense_RADIAL_SLIDERS_POS_FILTERS_MASK)))
2009:Generated_Source\PSoC4/CapSense_CSHL.c ****                                */
2010:Generated_Source\PSoC4/CapSense_CSHL.c **** 
2011:Generated_Source\PSoC4/CapSense_CSHL.c ****                         CapSense_posFiltersData[firstTimeIndex] = 1u;
2012:Generated_Source\PSoC4/CapSense_CSHL.c ****                     }
2013:Generated_Source\PSoC4/CapSense_CSHL.c ****                     else
2014:Generated_Source\PSoC4/CapSense_CSHL.c ****                     {
2015:Generated_Source\PSoC4/CapSense_CSHL.c ****                         /* Do filtering */
2016:Generated_Source\PSoC4/CapSense_CSHL.c ****                         #if (0u != (CapSense_MEDIAN_FILTER & CapSense_RADIAL_SLIDERS_POS_FILTERS_MA
2017:Generated_Source\PSoC4/CapSense_CSHL.c ****                             if (0u != (posFiltersMask & CapSense_MEDIAN_FILTER))
2018:Generated_Source\PSoC4/CapSense_CSHL.c ****                             {
2019:Generated_Source\PSoC4/CapSense_CSHL.c ****                                 tempPos = (uint8) position;
2020:Generated_Source\PSoC4/CapSense_CSHL.c ****                                 position = CapSense_MedianFilter(position,
2021:Generated_Source\PSoC4/CapSense_CSHL.c ****                                                                         CapSense_posFiltersData[pos
2022:Generated_Source\PSoC4/CapSense_CSHL.c ****                                                                         CapSense_posFiltersData[pos
2023:Generated_Source\PSoC4/CapSense_CSHL.c ****                                 CapSense_posFiltersData[posIndex + 1u] =
2024:Generated_Source\PSoC4/CapSense_CSHL.c ****                                                                               CapSense_posFiltersDa
2025:Generated_Source\PSoC4/CapSense_CSHL.c ****                                 CapSense_posFiltersData[posIndex] = tempPos;
2026:Generated_Source\PSoC4/CapSense_CSHL.c ****                             }
2027:Generated_Source\PSoC4/CapSense_CSHL.c ****                         #endif /* (0u != (CapSense_MEDIAN_FILTER &
2028:Generated_Source\PSoC4/CapSense_CSHL.c ****                                *          CapSense_RADIAL_SLIDERS_POS_FILTERS_MASK))
2029:Generated_Source\PSoC4/CapSense_CSHL.c ****                                */
2030:Generated_Source\PSoC4/CapSense_CSHL.c **** 
2031:Generated_Source\PSoC4/CapSense_CSHL.c ****                         #if (0u != (CapSense_AVERAGING_FILTER & \
2032:Generated_Source\PSoC4/CapSense_CSHL.c ****                                     CapSense_RADIAL_SLIDERS_POS_FILTERS_MASK))
2033:Generated_Source\PSoC4/CapSense_CSHL.c ****                             if (0u != (posFiltersMask & CapSense_AVERAGING_FILTER))
2034:Generated_Source\PSoC4/CapSense_CSHL.c ****                             {
2035:Generated_Source\PSoC4/CapSense_CSHL.c ****                                 tempPos = (uint8) position;
2036:Generated_Source\PSoC4/CapSense_CSHL.c ****                                 position = CapSense_AveragingFilter(position,
2037:Generated_Source\PSoC4/CapSense_CSHL.c ****                                                                        CapSense_posFiltersData[posI
2038:Generated_Source\PSoC4/CapSense_CSHL.c ****                                                                        CapSense_posFiltersData[posI
2039:Generated_Source\PSoC4/CapSense_CSHL.c ****                                 CapSense_posFiltersData[posIndex+1u]= CapSense_posFiltersData[posIn
2040:Generated_Source\PSoC4/CapSense_CSHL.c ****                                 CapSense_posFiltersData[posIndex] = tempPos;
2041:Generated_Source\PSoC4/CapSense_CSHL.c ****                             }
2042:Generated_Source\PSoC4/CapSense_CSHL.c ****                         #endif /* (0u != (CapSense_AVERAGING_FILTER & \
2043:Generated_Source\PSoC4/CapSense_CSHL.c ****                                *          CapSense_RADIAL_SLIDERS_POS_FILTERS_MASK))
ARM GAS  C:\Users\SHOZO\AppData\Local\Temp\cc3BkmVy.s 			page 59


2044:Generated_Source\PSoC4/CapSense_CSHL.c ****                                */
2045:Generated_Source\PSoC4/CapSense_CSHL.c **** 
2046:Generated_Source\PSoC4/CapSense_CSHL.c ****                         #if (0u != (CapSense_IIR2_FILTER & CapSense_RADIAL_SLIDERS_POS_FILTERS_MASK
2047:Generated_Source\PSoC4/CapSense_CSHL.c ****                             if (0u != (posFiltersMask & CapSense_IIR2_FILTER))
2048:Generated_Source\PSoC4/CapSense_CSHL.c ****                             {
2049:Generated_Source\PSoC4/CapSense_CSHL.c ****                                 position = CapSense_IIR2Filter(position,
2050:Generated_Source\PSoC4/CapSense_CSHL.c ****                                                                     (uint16)CapSense_posFiltersData
2051:Generated_Source\PSoC4/CapSense_CSHL.c ****                                 CapSense_posFiltersData[posIndex] = (uint8) position;
2052:Generated_Source\PSoC4/CapSense_CSHL.c ****                             }
2053:Generated_Source\PSoC4/CapSense_CSHL.c ****                         #endif /* (0u != (CapSense_IIR2_FILTER &
2054:Generated_Source\PSoC4/CapSense_CSHL.c ****                                *          CapSense_RADIAL_SLIDERS_POS_FILTERS_MASK))
2055:Generated_Source\PSoC4/CapSense_CSHL.c ****                                */
2056:Generated_Source\PSoC4/CapSense_CSHL.c **** 
2057:Generated_Source\PSoC4/CapSense_CSHL.c ****                         #if (0u != (CapSense_IIR4_FILTER & CapSense_RADIAL_SLIDERS_POS_FILTERS_MASK
2058:Generated_Source\PSoC4/CapSense_CSHL.c ****                             if (0u != (posFiltersMask & CapSense_IIR4_FILTER))
2059:Generated_Source\PSoC4/CapSense_CSHL.c ****                             {
2060:Generated_Source\PSoC4/CapSense_CSHL.c ****                                 position = CapSense_IIR4Filter(position,
2061:Generated_Source\PSoC4/CapSense_CSHL.c ****                                                                     (uint16)CapSense_posFiltersData
2062:Generated_Source\PSoC4/CapSense_CSHL.c ****                                 CapSense_posFiltersData[posIndex] = (uint8) position;
2063:Generated_Source\PSoC4/CapSense_CSHL.c ****                             }
2064:Generated_Source\PSoC4/CapSense_CSHL.c ****                         #endif /* (0u != (CapSense_IIR4_FILTER &
2065:Generated_Source\PSoC4/CapSense_CSHL.c ****                                *          CapSense_RADIAL_SLIDERS_POS_FILTERS_MASK))
2066:Generated_Source\PSoC4/CapSense_CSHL.c ****                                */
2067:Generated_Source\PSoC4/CapSense_CSHL.c **** 
2068:Generated_Source\PSoC4/CapSense_CSHL.c ****                         #if (0u != (CapSense_JITTER_FILTER & CapSense_RADIAL_SLIDERS_POS_FILTERS_MA
2069:Generated_Source\PSoC4/CapSense_CSHL.c ****                             if (0u != (posFiltersMask & CapSense_JITTER_FILTER))
2070:Generated_Source\PSoC4/CapSense_CSHL.c ****                             {
2071:Generated_Source\PSoC4/CapSense_CSHL.c ****                                 position = CapSense_JitterFilter(position,
2072:Generated_Source\PSoC4/CapSense_CSHL.c ****                                                                          CapSense_posFiltersData[po
2073:Generated_Source\PSoC4/CapSense_CSHL.c ****                                 CapSense_posFiltersData[posIndex] = (uint8) position;
2074:Generated_Source\PSoC4/CapSense_CSHL.c ****                             }
2075:Generated_Source\PSoC4/CapSense_CSHL.c ****                         #endif /* (0u != (CapSense_JITTER_FILTER &
2076:Generated_Source\PSoC4/CapSense_CSHL.c ****                                *           CapSense_RADIAL_SLIDERS_POS_FILTERS_MASK))
2077:Generated_Source\PSoC4/CapSense_CSHL.c ****                                */
2078:Generated_Source\PSoC4/CapSense_CSHL.c ****                     }
2079:Generated_Source\PSoC4/CapSense_CSHL.c ****                 }
2080:Generated_Source\PSoC4/CapSense_CSHL.c ****             #endif /* (0u != CapSense_RADIAL_SLIDERS_POS_FILTERS_MASK) */
2081:Generated_Source\PSoC4/CapSense_CSHL.c **** 
2082:Generated_Source\PSoC4/CapSense_CSHL.c ****         }
2083:Generated_Source\PSoC4/CapSense_CSHL.c ****         else
2084:Generated_Source\PSoC4/CapSense_CSHL.c ****         {
2085:Generated_Source\PSoC4/CapSense_CSHL.c ****             /* Maximum was not found */
2086:Generated_Source\PSoC4/CapSense_CSHL.c ****             position = 0xFFFFu;
 1250              		.loc 1 2086 0
 1251 002c 0348     		ldr	r0, .L104+8
 1252              	.LVL133:
 1253              	.L102:
2087:Generated_Source\PSoC4/CapSense_CSHL.c **** 
2088:Generated_Source\PSoC4/CapSense_CSHL.c ****             #if (0u != CapSense_RADIAL_SLIDERS_POS_FILTERS_MASK)
2089:Generated_Source\PSoC4/CapSense_CSHL.c ****                 /* Reset filters */
2090:Generated_Source\PSoC4/CapSense_CSHL.c ****                 if((posFiltersMask & CapSense_ANY_POS_FILTER) != 0u)
2091:Generated_Source\PSoC4/CapSense_CSHL.c ****                 {
2092:Generated_Source\PSoC4/CapSense_CSHL.c ****                     CapSense_posFiltersData[firstTimeIndex] = 0u;
2093:Generated_Source\PSoC4/CapSense_CSHL.c ****                 }
2094:Generated_Source\PSoC4/CapSense_CSHL.c ****             #endif /* (0u != CapSense_RADIAL_SLIDERS_POS_FILTERS_MASK) */
2095:Generated_Source\PSoC4/CapSense_CSHL.c ****         }
2096:Generated_Source\PSoC4/CapSense_CSHL.c **** 
ARM GAS  C:\Users\SHOZO\AppData\Local\Temp\cc3BkmVy.s 			page 60


2097:Generated_Source\PSoC4/CapSense_CSHL.c ****         return (position);
2098:Generated_Source\PSoC4/CapSense_CSHL.c ****     }
 1254              		.loc 1 2098 0
 1255 002e 02B0     		add	sp, sp, #8
 1256              		@ sp needed
 1257              	.LVL134:
 1258 0030 10BD     		pop	{r4, pc}
 1259              	.L105:
 1260 0032 C046     		.align	2
 1261              	.L104:
 1262 0034 00000000 		.word	CapSense_fingerThreshold
 1263 0038 00000000 		.word	CapSense_noiseThreshold
 1264 003c FFFF0000 		.word	65535
 1265              		.cfi_endproc
 1266              	.LFE62:
 1267              		.size	CapSense_GetRadialCentroidPos, .-CapSense_GetRadialCentroidPos
 1268              		.section	.text.CapSense_MedianFilter,"ax",%progbits
 1269              		.align	2
 1270              		.global	CapSense_MedianFilter
 1271              		.code	16
 1272              		.thumb_func
 1273              		.type	CapSense_MedianFilter, %function
 1274              	CapSense_MedianFilter:
 1275              	.LFB63:
2099:Generated_Source\PSoC4/CapSense_CSHL.c **** #endif /* ((CapSense_TOTAL_RADIAL_SLIDERS_COUNT > 0u) || (CapSense_TOTAL_LINEAR_SLIDERS_COUNT > 0u)
2100:Generated_Source\PSoC4/CapSense_CSHL.c **** 
2101:Generated_Source\PSoC4/CapSense_CSHL.c **** 
2102:Generated_Source\PSoC4/CapSense_CSHL.c **** #if(CapSense_TOTAL_TOUCH_PADS_BASIC_COUNT > 0u)
2103:Generated_Source\PSoC4/CapSense_CSHL.c ****     /*******************************************************************************
2104:Generated_Source\PSoC4/CapSense_CSHL.c ****     * Function Name: CapSense_GetTouchCentroidPos
2105:Generated_Source\PSoC4/CapSense_CSHL.c ****     ********************************************************************************
2106:Generated_Source\PSoC4/CapSense_CSHL.c ****     *
2107:Generated_Source\PSoC4/CapSense_CSHL.c ****     * Summary:
2108:Generated_Source\PSoC4/CapSense_CSHL.c ****     *  If a finger is present on a touchpad, this function calculates the X and Y
2109:Generated_Source\PSoC4/CapSense_CSHL.c ****     *  position of the finger by calculating the centroids within touchpad specified
2110:Generated_Source\PSoC4/CapSense_CSHL.c ****     *  range. The X and Y positions are calculated according to the API resolutions set in the
2111:Generated_Source\PSoC4/CapSense_CSHL.c ****     *  CapSense customizer. Returns 1 if a finger is on the touchpad.
2112:Generated_Source\PSoC4/CapSense_CSHL.c ****     *  The position filter is applied to the result if enabled.
2113:Generated_Source\PSoC4/CapSense_CSHL.c ****     *  This function is available only if a touch pad is defined by the CapSense
2114:Generated_Source\PSoC4/CapSense_CSHL.c ****     *  customizer.
2115:Generated_Source\PSoC4/CapSense_CSHL.c ****     *
2116:Generated_Source\PSoC4/CapSense_CSHL.c ****     * Parameters:
2117:Generated_Source\PSoC4/CapSense_CSHL.c ****     *  widget:  Widget number.
2118:Generated_Source\PSoC4/CapSense_CSHL.c ****     *  For every touchpad widget there are defines in this format:
2119:Generated_Source\PSoC4/CapSense_CSHL.c ****     *  #define CapSense_"widget_name"__TP            5
2120:Generated_Source\PSoC4/CapSense_CSHL.c ****     *
2121:Generated_Source\PSoC4/CapSense_CSHL.c ****     *  pos:     Pointer to the array of two uint16 elements, where result
2122:Generated_Source\PSoC4/CapSense_CSHL.c ****     *  result of calculation of X and Y position are stored.
2123:Generated_Source\PSoC4/CapSense_CSHL.c ****     *  pos[0u]  - position of X
2124:Generated_Source\PSoC4/CapSense_CSHL.c ****     *  pos[1u]  - position of Y
2125:Generated_Source\PSoC4/CapSense_CSHL.c ****     *
2126:Generated_Source\PSoC4/CapSense_CSHL.c ****     * Return:
2127:Generated_Source\PSoC4/CapSense_CSHL.c ****     *  Returns a 1 if a finger is on the touch pad, 0 - if not.
2128:Generated_Source\PSoC4/CapSense_CSHL.c ****     *
2129:Generated_Source\PSoC4/CapSense_CSHL.c ****     * Global Variables:
2130:Generated_Source\PSoC4/CapSense_CSHL.c ****     *  None.
2131:Generated_Source\PSoC4/CapSense_CSHL.c ****     *
ARM GAS  C:\Users\SHOZO\AppData\Local\Temp\cc3BkmVy.s 			page 61


2132:Generated_Source\PSoC4/CapSense_CSHL.c ****     * Side Effects:
2133:Generated_Source\PSoC4/CapSense_CSHL.c ****     *   There are no checks of the widget type argument provided to this function.
2134:Generated_Source\PSoC4/CapSense_CSHL.c ****     *   The unproper widget type provided will cause unexpected position
2135:Generated_Source\PSoC4/CapSense_CSHL.c ****     *   calculations.
2136:Generated_Source\PSoC4/CapSense_CSHL.c ****     *
2137:Generated_Source\PSoC4/CapSense_CSHL.c ****     *******************************************************************************/
2138:Generated_Source\PSoC4/CapSense_CSHL.c ****     uint32 CapSense_GetTouchCentroidPos(uint32 widget, uint16* pos)
2139:Generated_Source\PSoC4/CapSense_CSHL.c ****     {
2140:Generated_Source\PSoC4/CapSense_CSHL.c ****         #if (0u != CapSense_TOUCH_PADS_POS_FILTERS_MASK)
2141:Generated_Source\PSoC4/CapSense_CSHL.c ****             uint8 posXIndex;
2142:Generated_Source\PSoC4/CapSense_CSHL.c ****             uint8 posYIndex;
2143:Generated_Source\PSoC4/CapSense_CSHL.c ****             uint8 firstTimeIndex = CapSense_posFiltersData[widget];
2144:Generated_Source\PSoC4/CapSense_CSHL.c ****             uint8 posFiltersMask = CapSense_posFiltersMask[widget];
2145:Generated_Source\PSoC4/CapSense_CSHL.c ****         #endif /* (0u != CapSense_TOUCH_PADS_POS_FILTERS_MASK) */
2146:Generated_Source\PSoC4/CapSense_CSHL.c **** 
2147:Generated_Source\PSoC4/CapSense_CSHL.c ****         #if ((0u != (CapSense_MEDIAN_FILTER & CapSense_TOUCH_PADS_POS_FILTERS_MASK)) || \
2148:Generated_Source\PSoC4/CapSense_CSHL.c ****              (0u != (CapSense_AVERAGING_FILTER & CapSense_TOUCH_PADS_POS_FILTERS_MASK)))
2149:Generated_Source\PSoC4/CapSense_CSHL.c ****             uint16 tempPos;
2150:Generated_Source\PSoC4/CapSense_CSHL.c ****         #endif /* ((0u != (CapSense_MEDIAN_FILTER & CapSense_TOUCH_PADS_POS_FILTERS_MASK)) || \
2151:Generated_Source\PSoC4/CapSense_CSHL.c ****                *   (0u != (CapSense_AVERAGING_FILTER & CapSense_TOUCH_PADS_POS_FILTERS_MASK)))
2152:Generated_Source\PSoC4/CapSense_CSHL.c ****                */
2153:Generated_Source\PSoC4/CapSense_CSHL.c **** 
2154:Generated_Source\PSoC4/CapSense_CSHL.c ****         uint8 MaxX;
2155:Generated_Source\PSoC4/CapSense_CSHL.c ****         uint8 MaxY;
2156:Generated_Source\PSoC4/CapSense_CSHL.c ****         uint8 posX;
2157:Generated_Source\PSoC4/CapSense_CSHL.c ****         uint8 posY;
2158:Generated_Source\PSoC4/CapSense_CSHL.c ****         uint32 touch = 0u;
2159:Generated_Source\PSoC4/CapSense_CSHL.c ****         uint8 offset = CapSense_rawDataIndex[widget];
2160:Generated_Source\PSoC4/CapSense_CSHL.c ****         uint8 count = CapSense_numberOfSensors[widget];
2161:Generated_Source\PSoC4/CapSense_CSHL.c **** 
2162:Generated_Source\PSoC4/CapSense_CSHL.c ****         /* Find Maximum within X centroid */
2163:Generated_Source\PSoC4/CapSense_CSHL.c ****         #if (CapSense_IS_DIPLEX_SLIDER)
2164:Generated_Source\PSoC4/CapSense_CSHL.c ****             MaxX = CapSense_FindMaximum(offset, count, CapSense_fingerThreshold[widget], 0u);
2165:Generated_Source\PSoC4/CapSense_CSHL.c ****         #else
2166:Generated_Source\PSoC4/CapSense_CSHL.c ****             MaxX = CapSense_FindMaximum(offset, count, CapSense_fingerThreshold[widget]);
2167:Generated_Source\PSoC4/CapSense_CSHL.c ****         #endif /* (CapSense_IS_DIPLEX_SLIDER) */
2168:Generated_Source\PSoC4/CapSense_CSHL.c **** 
2169:Generated_Source\PSoC4/CapSense_CSHL.c ****         if (MaxX != CapSense_MAXIMUM_CENTROID)
2170:Generated_Source\PSoC4/CapSense_CSHL.c ****         {
2171:Generated_Source\PSoC4/CapSense_CSHL.c ****             offset = CapSense_rawDataIndex[widget + 1u];
2172:Generated_Source\PSoC4/CapSense_CSHL.c ****             count = CapSense_numberOfSensors[widget + 1u];
2173:Generated_Source\PSoC4/CapSense_CSHL.c **** 
2174:Generated_Source\PSoC4/CapSense_CSHL.c ****             /* Find Maximum within Y centroid */
2175:Generated_Source\PSoC4/CapSense_CSHL.c ****             #if (CapSense_IS_DIPLEX_SLIDER)
2176:Generated_Source\PSoC4/CapSense_CSHL.c ****                 MaxY = CapSense_FindMaximum(offset, count, CapSense_fingerThreshold[widget + 1u], 0
2177:Generated_Source\PSoC4/CapSense_CSHL.c ****             #else
2178:Generated_Source\PSoC4/CapSense_CSHL.c ****                 MaxY = CapSense_FindMaximum(offset, count, CapSense_fingerThreshold[widget + 1u]);
2179:Generated_Source\PSoC4/CapSense_CSHL.c ****             #endif /* (CapSense_IS_DIPLEX_SLIDER) */
2180:Generated_Source\PSoC4/CapSense_CSHL.c **** 
2181:Generated_Source\PSoC4/CapSense_CSHL.c ****             if (MaxY != CapSense_MAXIMUM_CENTROID)
2182:Generated_Source\PSoC4/CapSense_CSHL.c ****             {
2183:Generated_Source\PSoC4/CapSense_CSHL.c ****                 /* X and Y maximums are found = true touch */
2184:Generated_Source\PSoC4/CapSense_CSHL.c ****                 touch = 1u;
2185:Generated_Source\PSoC4/CapSense_CSHL.c **** 
2186:Generated_Source\PSoC4/CapSense_CSHL.c ****                 /* Calculate Y centroid */
2187:Generated_Source\PSoC4/CapSense_CSHL.c ****                 posY = CapSense_CalcCentroid(MaxY, offset, count,
2188:Generated_Source\PSoC4/CapSense_CSHL.c ****                             CapSense_centroidMult[widget + 1u], CapSense_noiseThreshold[widget + 1u
ARM GAS  C:\Users\SHOZO\AppData\Local\Temp\cc3BkmVy.s 			page 62


2189:Generated_Source\PSoC4/CapSense_CSHL.c **** 
2190:Generated_Source\PSoC4/CapSense_CSHL.c ****                 /* Calculate X centroid */
2191:Generated_Source\PSoC4/CapSense_CSHL.c ****                 offset = CapSense_rawDataIndex[widget];
2192:Generated_Source\PSoC4/CapSense_CSHL.c ****                 count = CapSense_numberOfSensors[widget];
2193:Generated_Source\PSoC4/CapSense_CSHL.c **** 
2194:Generated_Source\PSoC4/CapSense_CSHL.c ****                 posX = CapSense_CalcCentroid(MaxX, offset, count,
2195:Generated_Source\PSoC4/CapSense_CSHL.c ****                             CapSense_centroidMult[widget],CapSense_noiseThreshold[widget]);
2196:Generated_Source\PSoC4/CapSense_CSHL.c **** 
2197:Generated_Source\PSoC4/CapSense_CSHL.c ****                 #if (0u != CapSense_TOUCH_PADS_POS_FILTERS_MASK)
2198:Generated_Source\PSoC4/CapSense_CSHL.c ****                     /* Check if this TP has enabled filters */
2199:Generated_Source\PSoC4/CapSense_CSHL.c ****                     if (0u != (posFiltersMask & CapSense_ANY_POS_FILTER))
2200:Generated_Source\PSoC4/CapSense_CSHL.c ****                     {
2201:Generated_Source\PSoC4/CapSense_CSHL.c ****                         /* Calculate position to store filters data */
2202:Generated_Source\PSoC4/CapSense_CSHL.c ****                         posXIndex  = firstTimeIndex + 1u;
2203:Generated_Source\PSoC4/CapSense_CSHL.c ****                         posYIndex  = CapSense_posFiltersData[widget + 1u];
2204:Generated_Source\PSoC4/CapSense_CSHL.c **** 
2205:Generated_Source\PSoC4/CapSense_CSHL.c ****                         if (0u == CapSense_posFiltersData[firstTimeIndex])
2206:Generated_Source\PSoC4/CapSense_CSHL.c ****                         {
2207:Generated_Source\PSoC4/CapSense_CSHL.c ****                             /* Init filters */
2208:Generated_Source\PSoC4/CapSense_CSHL.c ****                             CapSense_posFiltersData[posXIndex] = posX;
2209:Generated_Source\PSoC4/CapSense_CSHL.c ****                             CapSense_posFiltersData[posYIndex] = posY;
2210:Generated_Source\PSoC4/CapSense_CSHL.c **** 
2211:Generated_Source\PSoC4/CapSense_CSHL.c ****                             #if((0u != (CapSense_MEDIAN_FILTER & \
2212:Generated_Source\PSoC4/CapSense_CSHL.c ****                                         CapSense_TOUCH_PADS_POS_FILTERS_MASK))|| \
2213:Generated_Source\PSoC4/CapSense_CSHL.c ****                                 (0u != (CapSense_AVERAGING_FILTER & \
2214:Generated_Source\PSoC4/CapSense_CSHL.c ****                                         CapSense_TOUCH_PADS_POS_FILTERS_MASK)))
2215:Generated_Source\PSoC4/CapSense_CSHL.c **** 
2216:Generated_Source\PSoC4/CapSense_CSHL.c ****                                 if ( (0u != (posFiltersMask & CapSense_MEDIAN_FILTER)) ||
2217:Generated_Source\PSoC4/CapSense_CSHL.c ****                                      (0u != (posFiltersMask & CapSense_AVERAGING_FILTER)) )
2218:Generated_Source\PSoC4/CapSense_CSHL.c ****                                 {
2219:Generated_Source\PSoC4/CapSense_CSHL.c ****                                     CapSense_posFiltersData[posXIndex + 1u] = posX;
2220:Generated_Source\PSoC4/CapSense_CSHL.c ****                                     CapSense_posFiltersData[posYIndex + 1u] = posY;
2221:Generated_Source\PSoC4/CapSense_CSHL.c ****                                 }
2222:Generated_Source\PSoC4/CapSense_CSHL.c ****                             #endif /* ((0u != (CapSense_MEDIAN_FILTER & \
2223:Generated_Source\PSoC4/CapSense_CSHL.c ****                                    *           CapSense_TOUCH_PADS_POS_FILTERS_MASK)) || \
2224:Generated_Source\PSoC4/CapSense_CSHL.c ****                                    *    (0u != (CapSense_AVERAGING_FILTER & \
2225:Generated_Source\PSoC4/CapSense_CSHL.c ****                                    *            CapSense_TOUCH_PADS_POS_FILTERS_MASK)))
2226:Generated_Source\PSoC4/CapSense_CSHL.c ****                                    */
2227:Generated_Source\PSoC4/CapSense_CSHL.c **** 
2228:Generated_Source\PSoC4/CapSense_CSHL.c ****                             CapSense_posFiltersData[firstTimeIndex] = 1u;
2229:Generated_Source\PSoC4/CapSense_CSHL.c ****                         }
2230:Generated_Source\PSoC4/CapSense_CSHL.c ****                         else
2231:Generated_Source\PSoC4/CapSense_CSHL.c ****                         {
2232:Generated_Source\PSoC4/CapSense_CSHL.c ****                             /* Do filtering */
2233:Generated_Source\PSoC4/CapSense_CSHL.c ****                             #if (0u != (CapSense_MEDIAN_FILTER & CapSense_TOUCH_PADS_POS_FILTERS_MA
2234:Generated_Source\PSoC4/CapSense_CSHL.c ****                                 if (0u != (posFiltersMask & CapSense_MEDIAN_FILTER))
2235:Generated_Source\PSoC4/CapSense_CSHL.c ****                                 {
2236:Generated_Source\PSoC4/CapSense_CSHL.c ****                                     tempPos = posX;
2237:Generated_Source\PSoC4/CapSense_CSHL.c ****                                     posX = (uint8) CapSense_MedianFilter(posX,
2238:Generated_Source\PSoC4/CapSense_CSHL.c ****                                                                       CapSense_posFiltersData[posXI
2239:Generated_Source\PSoC4/CapSense_CSHL.c ****                                                                       CapSense_posFiltersData[posXI
2240:Generated_Source\PSoC4/CapSense_CSHL.c ****                                     CapSense_posFiltersData[posXIndex + 1u] =
2241:Generated_Source\PSoC4/CapSense_CSHL.c ****                                                                              CapSense_posFiltersDat
2242:Generated_Source\PSoC4/CapSense_CSHL.c ****                                     CapSense_posFiltersData[posXIndex] = tempPos;
2243:Generated_Source\PSoC4/CapSense_CSHL.c **** 
2244:Generated_Source\PSoC4/CapSense_CSHL.c ****                                     tempPos = posY;
2245:Generated_Source\PSoC4/CapSense_CSHL.c ****                                     posY = (uint8) CapSense_MedianFilter(posY,
ARM GAS  C:\Users\SHOZO\AppData\Local\Temp\cc3BkmVy.s 			page 63


2246:Generated_Source\PSoC4/CapSense_CSHL.c ****                                                                        CapSense_posFiltersData[posY
2247:Generated_Source\PSoC4/CapSense_CSHL.c ****                                                                        CapSense_posFiltersData[posY
2248:Generated_Source\PSoC4/CapSense_CSHL.c ****                                     CapSense_posFiltersData[posYIndex + 1u] =
2249:Generated_Source\PSoC4/CapSense_CSHL.c ****                                                                              CapSense_posFiltersDat
2250:Generated_Source\PSoC4/CapSense_CSHL.c ****                                     CapSense_posFiltersData[posYIndex] = tempPos;
2251:Generated_Source\PSoC4/CapSense_CSHL.c ****                                 }
2252:Generated_Source\PSoC4/CapSense_CSHL.c **** 
2253:Generated_Source\PSoC4/CapSense_CSHL.c ****                             #endif /* (0u != (CapSense_MEDIAN_FILTER & \
2254:Generated_Source\PSoC4/CapSense_CSHL.c ****                                    *          CapSense_TOUCH_PADS_POS_FILTERS_MASK))
2255:Generated_Source\PSoC4/CapSense_CSHL.c ****                                    */
2256:Generated_Source\PSoC4/CapSense_CSHL.c **** 
2257:Generated_Source\PSoC4/CapSense_CSHL.c ****                             #if(0u !=(CapSense_AVERAGING_FILTER & CapSense_TOUCH_PADS_POS_FILTERS_M
2258:Generated_Source\PSoC4/CapSense_CSHL.c ****                                 if (0u != (posFiltersMask & CapSense_AVERAGING_FILTER))
2259:Generated_Source\PSoC4/CapSense_CSHL.c ****                                 {
2260:Generated_Source\PSoC4/CapSense_CSHL.c ****                                     tempPos = posX;
2261:Generated_Source\PSoC4/CapSense_CSHL.c ****                                     posX = (uint8) CapSense_AveragingFilter(posX,
2262:Generated_Source\PSoC4/CapSense_CSHL.c ****                                                                        CapSense_posFiltersData[posX
2263:Generated_Source\PSoC4/CapSense_CSHL.c ****                                                                        CapSense_posFiltersData[posX
2264:Generated_Source\PSoC4/CapSense_CSHL.c ****                                     CapSense_posFiltersData[posXIndex + 1u] =
2265:Generated_Source\PSoC4/CapSense_CSHL.c ****                                                                              CapSense_posFiltersDat
2266:Generated_Source\PSoC4/CapSense_CSHL.c ****                                     CapSense_posFiltersData[posXIndex] = tempPos;
2267:Generated_Source\PSoC4/CapSense_CSHL.c **** 
2268:Generated_Source\PSoC4/CapSense_CSHL.c ****                                     tempPos = posY;
2269:Generated_Source\PSoC4/CapSense_CSHL.c ****                                     posY = (uint8) CapSense_AveragingFilter(posY,
2270:Generated_Source\PSoC4/CapSense_CSHL.c ****                                                                       CapSense_posFiltersData[posYI
2271:Generated_Source\PSoC4/CapSense_CSHL.c ****                                                                       CapSense_posFiltersData[posYI
2272:Generated_Source\PSoC4/CapSense_CSHL.c ****                                     CapSense_posFiltersData[posYIndex + 1u] =
2273:Generated_Source\PSoC4/CapSense_CSHL.c ****                                                                             CapSense_posFiltersData
2274:Generated_Source\PSoC4/CapSense_CSHL.c ****                                     CapSense_posFiltersData[posYIndex] = tempPos;
2275:Generated_Source\PSoC4/CapSense_CSHL.c ****                                 }
2276:Generated_Source\PSoC4/CapSense_CSHL.c **** 
2277:Generated_Source\PSoC4/CapSense_CSHL.c ****                             #endif /* (0u != (CapSense_AVERAGING_FILTER & \
2278:Generated_Source\PSoC4/CapSense_CSHL.c ****                                    *           CapSense_TOUCH_PADS_POS_FILTERS_MASK))
2279:Generated_Source\PSoC4/CapSense_CSHL.c ****                                    */
2280:Generated_Source\PSoC4/CapSense_CSHL.c **** 
2281:Generated_Source\PSoC4/CapSense_CSHL.c ****                             #if (0u != (CapSense_IIR2_FILTER & CapSense_TOUCH_PADS_POS_FILTERS_MASK
2282:Generated_Source\PSoC4/CapSense_CSHL.c ****                                 if (0u != (posFiltersMask & CapSense_IIR2_FILTER))
2283:Generated_Source\PSoC4/CapSense_CSHL.c ****                                 {
2284:Generated_Source\PSoC4/CapSense_CSHL.c ****                                     posX = (uint8) CapSense_IIR2Filter(posX,
2285:Generated_Source\PSoC4/CapSense_CSHL.c ****                                                                            CapSense_posFiltersData[
2286:Generated_Source\PSoC4/CapSense_CSHL.c ****                                     CapSense_posFiltersData[posXIndex] = posX;
2287:Generated_Source\PSoC4/CapSense_CSHL.c **** 
2288:Generated_Source\PSoC4/CapSense_CSHL.c ****                                     posY = (uint8) CapSense_IIR2Filter(posY,
2289:Generated_Source\PSoC4/CapSense_CSHL.c ****                                                                             CapSense_posFiltersData
2290:Generated_Source\PSoC4/CapSense_CSHL.c ****                                     CapSense_posFiltersData[posYIndex] = posY;
2291:Generated_Source\PSoC4/CapSense_CSHL.c ****                                 }
2292:Generated_Source\PSoC4/CapSense_CSHL.c **** 
2293:Generated_Source\PSoC4/CapSense_CSHL.c ****                             #endif /* (0u != (CapSense_IIR2_FILTER & \
2294:Generated_Source\PSoC4/CapSense_CSHL.c ****                                    *          CapSense_TOUCH_PADS_POS_FILTERS_MASK))
2295:Generated_Source\PSoC4/CapSense_CSHL.c ****                                    */
2296:Generated_Source\PSoC4/CapSense_CSHL.c **** 
2297:Generated_Source\PSoC4/CapSense_CSHL.c ****                             #if (0u != (CapSense_IIR4_FILTER & CapSense_TOUCH_PADS_POS_FILTERS_MASK
2298:Generated_Source\PSoC4/CapSense_CSHL.c ****                                 if (0u != (posFiltersMask & CapSense_IIR4_FILTER))
2299:Generated_Source\PSoC4/CapSense_CSHL.c ****                                 {
2300:Generated_Source\PSoC4/CapSense_CSHL.c ****                                     posX = (uint8) CapSense_IIR4Filter((uint16)posX,
2301:Generated_Source\PSoC4/CapSense_CSHL.c ****                                                                     (uint16)CapSense_posFiltersData
2302:Generated_Source\PSoC4/CapSense_CSHL.c ****                                     CapSense_posFiltersData[posXIndex] = posX;
ARM GAS  C:\Users\SHOZO\AppData\Local\Temp\cc3BkmVy.s 			page 64


2303:Generated_Source\PSoC4/CapSense_CSHL.c **** 
2304:Generated_Source\PSoC4/CapSense_CSHL.c ****                                     posY = (uint8) CapSense_IIR4Filter((uint16)posY,
2305:Generated_Source\PSoC4/CapSense_CSHL.c ****                                                                     (uint16)CapSense_posFiltersData
2306:Generated_Source\PSoC4/CapSense_CSHL.c ****                                     CapSense_posFiltersData[posYIndex] = posY;
2307:Generated_Source\PSoC4/CapSense_CSHL.c ****                                 }
2308:Generated_Source\PSoC4/CapSense_CSHL.c **** 
2309:Generated_Source\PSoC4/CapSense_CSHL.c ****                             #endif /* (0u != (CapSense_IIR4_FILTER & \
2310:Generated_Source\PSoC4/CapSense_CSHL.c ****                                    *           CapSense_TOUCH_PADS_POS_FILTERS_MASK))
2311:Generated_Source\PSoC4/CapSense_CSHL.c ****                                    */
2312:Generated_Source\PSoC4/CapSense_CSHL.c **** 
2313:Generated_Source\PSoC4/CapSense_CSHL.c ****                             #if (0u != (CapSense_JITTER_FILTER & CapSense_TOUCH_PADS_POS_FILTERS_MA
2314:Generated_Source\PSoC4/CapSense_CSHL.c ****                                 if (0u != (posFiltersMask & CapSense_JITTER_FILTER))
2315:Generated_Source\PSoC4/CapSense_CSHL.c ****                                     {
2316:Generated_Source\PSoC4/CapSense_CSHL.c ****                                         posX = (uint8) CapSense_JitterFilter(posX,
2317:Generated_Source\PSoC4/CapSense_CSHL.c ****                                                                             CapSense_posFiltersData
2318:Generated_Source\PSoC4/CapSense_CSHL.c ****                                         CapSense_posFiltersData[posXIndex] = posX;
2319:Generated_Source\PSoC4/CapSense_CSHL.c **** 
2320:Generated_Source\PSoC4/CapSense_CSHL.c ****                                         posY = (uint8) CapSense_JitterFilter(posY,
2321:Generated_Source\PSoC4/CapSense_CSHL.c ****                                                                             CapSense_posFiltersData
2322:Generated_Source\PSoC4/CapSense_CSHL.c ****                                         CapSense_posFiltersData[posYIndex] = posY;
2323:Generated_Source\PSoC4/CapSense_CSHL.c ****                                     }
2324:Generated_Source\PSoC4/CapSense_CSHL.c ****                             #endif /* (0u != (CapSense_JITTER_FILTER & \
2325:Generated_Source\PSoC4/CapSense_CSHL.c ****                                    *           CapSense_TOUCH_PADS_POS_FILTERS_MASK))
2326:Generated_Source\PSoC4/CapSense_CSHL.c ****                                    */
2327:Generated_Source\PSoC4/CapSense_CSHL.c ****                         }
2328:Generated_Source\PSoC4/CapSense_CSHL.c ****                     }
2329:Generated_Source\PSoC4/CapSense_CSHL.c ****                 #endif /* (0u != CapSense_TOUCH_PADS_POS_FILTERS_MASK) */
2330:Generated_Source\PSoC4/CapSense_CSHL.c **** 
2331:Generated_Source\PSoC4/CapSense_CSHL.c ****                 /* Save positions */
2332:Generated_Source\PSoC4/CapSense_CSHL.c ****                 pos[0u] = posX;
2333:Generated_Source\PSoC4/CapSense_CSHL.c ****                 pos[1u] = posY;
2334:Generated_Source\PSoC4/CapSense_CSHL.c ****             }
2335:Generated_Source\PSoC4/CapSense_CSHL.c ****         }
2336:Generated_Source\PSoC4/CapSense_CSHL.c **** 
2337:Generated_Source\PSoC4/CapSense_CSHL.c ****         #if (0u != CapSense_TOUCH_PADS_POS_FILTERS_MASK)
2338:Generated_Source\PSoC4/CapSense_CSHL.c ****             if(touch == 0u)
2339:Generated_Source\PSoC4/CapSense_CSHL.c ****             {
2340:Generated_Source\PSoC4/CapSense_CSHL.c ****                 /* Reset filters */
2341:Generated_Source\PSoC4/CapSense_CSHL.c ****                 if ((posFiltersMask & CapSense_ANY_POS_FILTER) != 0u)
2342:Generated_Source\PSoC4/CapSense_CSHL.c ****                 {
2343:Generated_Source\PSoC4/CapSense_CSHL.c ****                     CapSense_posFiltersData[firstTimeIndex] = 0u;
2344:Generated_Source\PSoC4/CapSense_CSHL.c ****                 }
2345:Generated_Source\PSoC4/CapSense_CSHL.c ****             }
2346:Generated_Source\PSoC4/CapSense_CSHL.c ****         #endif /* (0u != CapSense_TOUCH_PADS_POS_FILTERS_MASK) */
2347:Generated_Source\PSoC4/CapSense_CSHL.c **** 
2348:Generated_Source\PSoC4/CapSense_CSHL.c ****         return (touch);
2349:Generated_Source\PSoC4/CapSense_CSHL.c ****     }
2350:Generated_Source\PSoC4/CapSense_CSHL.c **** #endif /* (CapSense_TOTAL_TOUCH_PADS_BASIC_COUNT > 0u) */
2351:Generated_Source\PSoC4/CapSense_CSHL.c **** 
2352:Generated_Source\PSoC4/CapSense_CSHL.c **** 
2353:Generated_Source\PSoC4/CapSense_CSHL.c **** #if ( (0u != (CapSense_RAW_FILTER_MASK & CapSense_MEDIAN_FILTER)) || \
2354:Generated_Source\PSoC4/CapSense_CSHL.c ****       (0u != (CapSense_POS_FILTERS_MASK & CapSense_MEDIAN_FILTER)) || \
2355:Generated_Source\PSoC4/CapSense_CSHL.c ****       ((CapSense_TUNING_METHOD == CapSense__TUNING_AUTO)) )
2356:Generated_Source\PSoC4/CapSense_CSHL.c ****     /*******************************************************************************
2357:Generated_Source\PSoC4/CapSense_CSHL.c ****     * Function Name: CapSense_MedianFilter
2358:Generated_Source\PSoC4/CapSense_CSHL.c ****     ********************************************************************************
2359:Generated_Source\PSoC4/CapSense_CSHL.c ****     *
ARM GAS  C:\Users\SHOZO\AppData\Local\Temp\cc3BkmVy.s 			page 65


2360:Generated_Source\PSoC4/CapSense_CSHL.c ****     * Summary:
2361:Generated_Source\PSoC4/CapSense_CSHL.c ****     *  This is the Median filter function.
2362:Generated_Source\PSoC4/CapSense_CSHL.c ****     *  The median filter looks at the three most recent samples and reports the
2363:Generated_Source\PSoC4/CapSense_CSHL.c ****     *  median value.
2364:Generated_Source\PSoC4/CapSense_CSHL.c ****     *
2365:Generated_Source\PSoC4/CapSense_CSHL.c ****     * Parameters:
2366:Generated_Source\PSoC4/CapSense_CSHL.c ****     *  x1:  Current value.
2367:Generated_Source\PSoC4/CapSense_CSHL.c ****     *  x2:  Previous value.
2368:Generated_Source\PSoC4/CapSense_CSHL.c ****     *  x3:  Before previous value.
2369:Generated_Source\PSoC4/CapSense_CSHL.c ****     *
2370:Generated_Source\PSoC4/CapSense_CSHL.c ****     * Return:
2371:Generated_Source\PSoC4/CapSense_CSHL.c ****     *  Returns filtered value.
2372:Generated_Source\PSoC4/CapSense_CSHL.c ****     *
2373:Generated_Source\PSoC4/CapSense_CSHL.c ****     * Global Variables:
2374:Generated_Source\PSoC4/CapSense_CSHL.c ****     *  None.
2375:Generated_Source\PSoC4/CapSense_CSHL.c ****     *
2376:Generated_Source\PSoC4/CapSense_CSHL.c ****     * Side Effects:
2377:Generated_Source\PSoC4/CapSense_CSHL.c ****     *  None
2378:Generated_Source\PSoC4/CapSense_CSHL.c ****     *
2379:Generated_Source\PSoC4/CapSense_CSHL.c ****     *******************************************************************************/
2380:Generated_Source\PSoC4/CapSense_CSHL.c ****     uint16 CapSense_MedianFilter(uint16 x1, uint16 x2, uint16 x3)
2381:Generated_Source\PSoC4/CapSense_CSHL.c ****     {
 1276              		.loc 1 2381 0
 1277              		.cfi_startproc
 1278              		@ args = 0, pretend = 0, frame = 0
 1279              		@ frame_needed = 0, uses_anonymous_args = 0
 1280              		@ link register save eliminated.
 1281              	.LVL135:
2382:Generated_Source\PSoC4/CapSense_CSHL.c ****         uint16 tmp;
2383:Generated_Source\PSoC4/CapSense_CSHL.c **** 
2384:Generated_Source\PSoC4/CapSense_CSHL.c ****         if (x1 > x2)
 1282              		.loc 1 2384 0
 1283 0000 8842     		cmp	r0, r1
 1284 0002 02D9     		bls	.L107
 1285 0004 0300     		movs	r3, r0
2385:Generated_Source\PSoC4/CapSense_CSHL.c ****         {
2386:Generated_Source\PSoC4/CapSense_CSHL.c ****             tmp = x2;
2387:Generated_Source\PSoC4/CapSense_CSHL.c ****             x2 = x1;
2388:Generated_Source\PSoC4/CapSense_CSHL.c ****             x1 = tmp;
 1286              		.loc 1 2388 0
 1287 0006 0800     		movs	r0, r1
 1288              	.LVL136:
2387:Generated_Source\PSoC4/CapSense_CSHL.c ****             x1 = tmp;
 1289              		.loc 1 2387 0
 1290 0008 1900     		movs	r1, r3
 1291              	.LVL137:
 1292              	.L107:
2389:Generated_Source\PSoC4/CapSense_CSHL.c ****         }
2390:Generated_Source\PSoC4/CapSense_CSHL.c **** 
2391:Generated_Source\PSoC4/CapSense_CSHL.c ****         if (x2 > x3)
 1293              		.loc 1 2391 0
 1294 000a 9142     		cmp	r1, r2
 1295 000c 00D9     		bls	.L108
2392:Generated_Source\PSoC4/CapSense_CSHL.c ****         {
2393:Generated_Source\PSoC4/CapSense_CSHL.c ****             x2 = x3;
 1296              		.loc 1 2393 0
 1297 000e 1100     		movs	r1, r2
ARM GAS  C:\Users\SHOZO\AppData\Local\Temp\cc3BkmVy.s 			page 66


 1298              	.LVL138:
 1299              	.L108:
2394:Generated_Source\PSoC4/CapSense_CSHL.c ****         }
2395:Generated_Source\PSoC4/CapSense_CSHL.c **** 
2396:Generated_Source\PSoC4/CapSense_CSHL.c ****         return ((x1 > x2) ? x1 : x2);
 1300              		.loc 1 2396 0
 1301 0010 031C     		adds	r3, r0, #0
 1302 0012 8842     		cmp	r0, r1
 1303 0014 00D2     		bcs	.L109
 1304 0016 0B1C     		adds	r3, r1, #0
 1305              	.L109:
 1306 0018 98B2     		uxth	r0, r3
 1307              	.LVL139:
2397:Generated_Source\PSoC4/CapSense_CSHL.c ****     }
 1308              		.loc 1 2397 0
 1309              		@ sp needed
 1310 001a 7047     		bx	lr
 1311              		.cfi_endproc
 1312              	.LFE63:
 1313              		.size	CapSense_MedianFilter, .-CapSense_MedianFilter
 1314              		.section	.text.CapSense_JitterFilter,"ax",%progbits
 1315              		.align	2
 1316              		.global	CapSense_JitterFilter
 1317              		.code	16
 1318              		.thumb_func
 1319              		.type	CapSense_JitterFilter, %function
 1320              	CapSense_JitterFilter:
 1321              	.LFB64:
2398:Generated_Source\PSoC4/CapSense_CSHL.c **** #endif /* ( (0u != (CapSense_RAW_FILTER_MASK & CapSense_MEDIAN_FILTER)) || \
2399:Generated_Source\PSoC4/CapSense_CSHL.c ****       (0u != (CapSense_POS_FILTERS_MASK & CapSense_MEDIAN_FILTER)) || \
2400:Generated_Source\PSoC4/CapSense_CSHL.c ****       ((CapSense_TUNING_METHOD == CapSense__TUNING_AUTO)) ) */
2401:Generated_Source\PSoC4/CapSense_CSHL.c **** 
2402:Generated_Source\PSoC4/CapSense_CSHL.c **** 
2403:Generated_Source\PSoC4/CapSense_CSHL.c **** #if ( (0u != (CapSense_RAW_FILTER_MASK & CapSense_AVERAGING_FILTER)) || \
2404:Generated_Source\PSoC4/CapSense_CSHL.c ****       (0u != (CapSense_POS_FILTERS_MASK & CapSense_AVERAGING_FILTER)) )
2405:Generated_Source\PSoC4/CapSense_CSHL.c ****     /*******************************************************************************
2406:Generated_Source\PSoC4/CapSense_CSHL.c ****     * Function Name: CapSense_AveragingFilter
2407:Generated_Source\PSoC4/CapSense_CSHL.c ****     ********************************************************************************
2408:Generated_Source\PSoC4/CapSense_CSHL.c ****     *
2409:Generated_Source\PSoC4/CapSense_CSHL.c ****     * Summary:
2410:Generated_Source\PSoC4/CapSense_CSHL.c ****     *  This is the Averaging filter function.
2411:Generated_Source\PSoC4/CapSense_CSHL.c ****     *  The averaging filter looks at the three most recent samples of a position and
2412:Generated_Source\PSoC4/CapSense_CSHL.c ****     *  reports the averaging value.
2413:Generated_Source\PSoC4/CapSense_CSHL.c ****     *
2414:Generated_Source\PSoC4/CapSense_CSHL.c ****     * Parameters:
2415:Generated_Source\PSoC4/CapSense_CSHL.c ****     *  x1:  Current value.
2416:Generated_Source\PSoC4/CapSense_CSHL.c ****     *  x2:  Previous value.
2417:Generated_Source\PSoC4/CapSense_CSHL.c ****     *  x3:  Before previous value.
2418:Generated_Source\PSoC4/CapSense_CSHL.c ****     *
2419:Generated_Source\PSoC4/CapSense_CSHL.c ****     * Return:
2420:Generated_Source\PSoC4/CapSense_CSHL.c ****     *  Returns filtered value.
2421:Generated_Source\PSoC4/CapSense_CSHL.c ****     *
2422:Generated_Source\PSoC4/CapSense_CSHL.c ****     * Global Variables:
2423:Generated_Source\PSoC4/CapSense_CSHL.c ****     *  None.
2424:Generated_Source\PSoC4/CapSense_CSHL.c ****     *
2425:Generated_Source\PSoC4/CapSense_CSHL.c ****     * Side Effects:
2426:Generated_Source\PSoC4/CapSense_CSHL.c ****     *  None
ARM GAS  C:\Users\SHOZO\AppData\Local\Temp\cc3BkmVy.s 			page 67


2427:Generated_Source\PSoC4/CapSense_CSHL.c ****     *
2428:Generated_Source\PSoC4/CapSense_CSHL.c ****     *******************************************************************************/
2429:Generated_Source\PSoC4/CapSense_CSHL.c ****     uint16 CapSense_AveragingFilter(uint16 x1, uint16 x2, uint16 x3)
2430:Generated_Source\PSoC4/CapSense_CSHL.c ****     {
2431:Generated_Source\PSoC4/CapSense_CSHL.c ****         uint32 tmp = ((uint32)x1 + (uint32)x2 + (uint32)x3) / 3u;
2432:Generated_Source\PSoC4/CapSense_CSHL.c **** 
2433:Generated_Source\PSoC4/CapSense_CSHL.c ****         return ((uint16) tmp);
2434:Generated_Source\PSoC4/CapSense_CSHL.c ****     }
2435:Generated_Source\PSoC4/CapSense_CSHL.c **** #endif /* ( (0u != (CapSense_RAW_FILTER_MASK & CapSense_AVERAGING_FILTER) || \
2436:Generated_Source\PSoC4/CapSense_CSHL.c ****       (0u != (CapSense_POS_FILTERS_MASK & CapSense_AVERAGING_FILTER) ) */
2437:Generated_Source\PSoC4/CapSense_CSHL.c **** 
2438:Generated_Source\PSoC4/CapSense_CSHL.c **** 
2439:Generated_Source\PSoC4/CapSense_CSHL.c **** #if ( (0u != (CapSense_RAW_FILTER_MASK & CapSense_IIR2_FILTER)) || \
2440:Generated_Source\PSoC4/CapSense_CSHL.c ****       (0u != (CapSense_POS_FILTERS_MASK & CapSense_IIR2_FILTER)) )
2441:Generated_Source\PSoC4/CapSense_CSHL.c ****     /*******************************************************************************
2442:Generated_Source\PSoC4/CapSense_CSHL.c ****     * Function Name: CapSense_IIR2Filter
2443:Generated_Source\PSoC4/CapSense_CSHL.c ****     ********************************************************************************
2444:Generated_Source\PSoC4/CapSense_CSHL.c ****     *
2445:Generated_Source\PSoC4/CapSense_CSHL.c ****     * Summary:
2446:Generated_Source\PSoC4/CapSense_CSHL.c ****     *  This is the IIR1/2 filter function. IIR1/2 = 1/2current + 1/2previous.
2447:Generated_Source\PSoC4/CapSense_CSHL.c ****     *
2448:Generated_Source\PSoC4/CapSense_CSHL.c ****     * Parameters:
2449:Generated_Source\PSoC4/CapSense_CSHL.c ****     *  x1:  Current value.
2450:Generated_Source\PSoC4/CapSense_CSHL.c ****     *  x2:  Previous value.
2451:Generated_Source\PSoC4/CapSense_CSHL.c ****     *
2452:Generated_Source\PSoC4/CapSense_CSHL.c ****     * Return:
2453:Generated_Source\PSoC4/CapSense_CSHL.c ****     *  Returns filtered value.
2454:Generated_Source\PSoC4/CapSense_CSHL.c ****     *
2455:Generated_Source\PSoC4/CapSense_CSHL.c ****     * Global Variables:
2456:Generated_Source\PSoC4/CapSense_CSHL.c ****     *  None.
2457:Generated_Source\PSoC4/CapSense_CSHL.c ****     *
2458:Generated_Source\PSoC4/CapSense_CSHL.c ****     * Side Effects:
2459:Generated_Source\PSoC4/CapSense_CSHL.c ****     *  None
2460:Generated_Source\PSoC4/CapSense_CSHL.c ****     *
2461:Generated_Source\PSoC4/CapSense_CSHL.c ****     *******************************************************************************/
2462:Generated_Source\PSoC4/CapSense_CSHL.c ****     uint16 CapSense_IIR2Filter(uint16 x1, uint16 x2)
2463:Generated_Source\PSoC4/CapSense_CSHL.c ****     {
2464:Generated_Source\PSoC4/CapSense_CSHL.c ****         uint32 tmp;
2465:Generated_Source\PSoC4/CapSense_CSHL.c **** 
2466:Generated_Source\PSoC4/CapSense_CSHL.c ****         /* IIR = 1/2 Current Value+ 1/2 Previous Value */
2467:Generated_Source\PSoC4/CapSense_CSHL.c ****         tmp = (uint32)x1 + (uint32)x2;
2468:Generated_Source\PSoC4/CapSense_CSHL.c ****         tmp >>= 1u;
2469:Generated_Source\PSoC4/CapSense_CSHL.c **** 
2470:Generated_Source\PSoC4/CapSense_CSHL.c ****         return ((uint16) tmp);
2471:Generated_Source\PSoC4/CapSense_CSHL.c ****     }
2472:Generated_Source\PSoC4/CapSense_CSHL.c **** #endif /* ( (0u != (CapSense_RAW_FILTER_MASK & CapSense_IIR2_FILTER)) || \
2473:Generated_Source\PSoC4/CapSense_CSHL.c ****        *    (0u != (CapSense_POS_FILTERS_MASK & CapSense_IIR2_FILTER)) )
2474:Generated_Source\PSoC4/CapSense_CSHL.c ****        */
2475:Generated_Source\PSoC4/CapSense_CSHL.c **** 
2476:Generated_Source\PSoC4/CapSense_CSHL.c **** 
2477:Generated_Source\PSoC4/CapSense_CSHL.c **** #if ( (0u != (CapSense_RAW_FILTER_MASK & CapSense_IIR4_FILTER)) || \
2478:Generated_Source\PSoC4/CapSense_CSHL.c ****       (0u != (CapSense_POS_FILTERS_MASK & CapSense_IIR4_FILTER)) )
2479:Generated_Source\PSoC4/CapSense_CSHL.c ****     /*******************************************************************************
2480:Generated_Source\PSoC4/CapSense_CSHL.c ****     * Function Name: CapSense_IIR4Filter
2481:Generated_Source\PSoC4/CapSense_CSHL.c ****     ********************************************************************************
2482:Generated_Source\PSoC4/CapSense_CSHL.c ****     *
2483:Generated_Source\PSoC4/CapSense_CSHL.c ****     * Summary:
ARM GAS  C:\Users\SHOZO\AppData\Local\Temp\cc3BkmVy.s 			page 68


2484:Generated_Source\PSoC4/CapSense_CSHL.c ****     *  This is the IIR1/4 filter function. IIR1/4 = 1/4current + 3/4previous.
2485:Generated_Source\PSoC4/CapSense_CSHL.c ****     *
2486:Generated_Source\PSoC4/CapSense_CSHL.c ****     * Parameters:
2487:Generated_Source\PSoC4/CapSense_CSHL.c ****     *  x1:  Current value.
2488:Generated_Source\PSoC4/CapSense_CSHL.c ****     *  x2:  Previous value.
2489:Generated_Source\PSoC4/CapSense_CSHL.c ****     *
2490:Generated_Source\PSoC4/CapSense_CSHL.c ****     * Return:
2491:Generated_Source\PSoC4/CapSense_CSHL.c ****     *  Returns a filtered value.
2492:Generated_Source\PSoC4/CapSense_CSHL.c ****     *
2493:Generated_Source\PSoC4/CapSense_CSHL.c ****     * Global Variables:
2494:Generated_Source\PSoC4/CapSense_CSHL.c ****     *  None.
2495:Generated_Source\PSoC4/CapSense_CSHL.c ****     *
2496:Generated_Source\PSoC4/CapSense_CSHL.c ****     * Side Effects:
2497:Generated_Source\PSoC4/CapSense_CSHL.c ****     *  None
2498:Generated_Source\PSoC4/CapSense_CSHL.c ****     *
2499:Generated_Source\PSoC4/CapSense_CSHL.c ****     *******************************************************************************/
2500:Generated_Source\PSoC4/CapSense_CSHL.c ****     uint16 CapSense_IIR4Filter(uint16 x1, uint16 x2)
2501:Generated_Source\PSoC4/CapSense_CSHL.c ****     {
2502:Generated_Source\PSoC4/CapSense_CSHL.c ****         uint32 tmp;
2503:Generated_Source\PSoC4/CapSense_CSHL.c **** 
2504:Generated_Source\PSoC4/CapSense_CSHL.c ****         /* IIR = 1/4 Current Value + 3/4 Previous Value */
2505:Generated_Source\PSoC4/CapSense_CSHL.c ****         tmp = (uint32)x1 + (uint32)x2;
2506:Generated_Source\PSoC4/CapSense_CSHL.c ****         tmp += ((uint32)x2 << 1u);
2507:Generated_Source\PSoC4/CapSense_CSHL.c ****         tmp >>= 2u;
2508:Generated_Source\PSoC4/CapSense_CSHL.c **** 
2509:Generated_Source\PSoC4/CapSense_CSHL.c ****         return ((uint16) tmp);
2510:Generated_Source\PSoC4/CapSense_CSHL.c ****     }
2511:Generated_Source\PSoC4/CapSense_CSHL.c **** #endif /* ( (0u != (CapSense_RAW_FILTER_MASK & CapSense_IIR4_FILTER)) || \
2512:Generated_Source\PSoC4/CapSense_CSHL.c ****        *    (0u != (CapSense_POS_FILTERS_MASK & CapSense_IIR4_FILTER)) )
2513:Generated_Source\PSoC4/CapSense_CSHL.c ****        */
2514:Generated_Source\PSoC4/CapSense_CSHL.c **** 
2515:Generated_Source\PSoC4/CapSense_CSHL.c **** 
2516:Generated_Source\PSoC4/CapSense_CSHL.c **** #if ( (0u != (CapSense_RAW_FILTER_MASK & CapSense_JITTER_FILTER)) || \
2517:Generated_Source\PSoC4/CapSense_CSHL.c ****       (0u != (CapSense_POS_FILTERS_MASK & CapSense_JITTER_FILTER)) || \
2518:Generated_Source\PSoC4/CapSense_CSHL.c ****       (0u != (CapSense_TRACKPAD_GEST_POS_FILTERS_MASK & CapSense_JITTER_FILTER)))
2519:Generated_Source\PSoC4/CapSense_CSHL.c ****     /*******************************************************************************
2520:Generated_Source\PSoC4/CapSense_CSHL.c ****     * Function Name: uint16 CapSense_JitterFilter
2521:Generated_Source\PSoC4/CapSense_CSHL.c ****     ********************************************************************************
2522:Generated_Source\PSoC4/CapSense_CSHL.c ****     *
2523:Generated_Source\PSoC4/CapSense_CSHL.c ****     * Summary:
2524:Generated_Source\PSoC4/CapSense_CSHL.c ****     *  This is the Jitter filter function.
2525:Generated_Source\PSoC4/CapSense_CSHL.c ****     *
2526:Generated_Source\PSoC4/CapSense_CSHL.c ****     * Parameters:
2527:Generated_Source\PSoC4/CapSense_CSHL.c ****     *  x1:  Current value.
2528:Generated_Source\PSoC4/CapSense_CSHL.c ****     *  x2:  Previous value.
2529:Generated_Source\PSoC4/CapSense_CSHL.c ****     *
2530:Generated_Source\PSoC4/CapSense_CSHL.c ****     * Return:
2531:Generated_Source\PSoC4/CapSense_CSHL.c ****     *  Returns filtered value.
2532:Generated_Source\PSoC4/CapSense_CSHL.c ****     *
2533:Generated_Source\PSoC4/CapSense_CSHL.c ****     * Global Variables:
2534:Generated_Source\PSoC4/CapSense_CSHL.c ****     *  None.
2535:Generated_Source\PSoC4/CapSense_CSHL.c ****     *
2536:Generated_Source\PSoC4/CapSense_CSHL.c ****     * Side Effects:
2537:Generated_Source\PSoC4/CapSense_CSHL.c ****     *  None
2538:Generated_Source\PSoC4/CapSense_CSHL.c ****     *
2539:Generated_Source\PSoC4/CapSense_CSHL.c ****     *******************************************************************************/
2540:Generated_Source\PSoC4/CapSense_CSHL.c ****     uint16 CapSense_JitterFilter(uint16 x1, uint16 x2)
ARM GAS  C:\Users\SHOZO\AppData\Local\Temp\cc3BkmVy.s 			page 69


2541:Generated_Source\PSoC4/CapSense_CSHL.c ****     {
 1322              		.loc 1 2541 0
 1323              		.cfi_startproc
 1324              		@ args = 0, pretend = 0, frame = 0
 1325              		@ frame_needed = 0, uses_anonymous_args = 0
 1326              		@ link register save eliminated.
 1327              	.LVL140:
2542:Generated_Source\PSoC4/CapSense_CSHL.c ****         if (x1 > x2)
 1328              		.loc 1 2542 0
 1329 0000 8842     		cmp	r0, r1
 1330 0002 02D9     		bls	.L113
2543:Generated_Source\PSoC4/CapSense_CSHL.c ****         {
2544:Generated_Source\PSoC4/CapSense_CSHL.c ****             x1--;
 1331              		.loc 1 2544 0
 1332 0004 0138     		subs	r0, r0, #1
 1333              	.LVL141:
 1334 0006 80B2     		uxth	r0, r0
 1335              	.LVL142:
 1336 0008 03E0     		b	.L114
 1337              	.L113:
2545:Generated_Source\PSoC4/CapSense_CSHL.c ****         }
2546:Generated_Source\PSoC4/CapSense_CSHL.c ****         else
2547:Generated_Source\PSoC4/CapSense_CSHL.c ****         {
2548:Generated_Source\PSoC4/CapSense_CSHL.c ****             if (x1 < x2)
 1338              		.loc 1 2548 0
 1339 000a 8842     		cmp	r0, r1
 1340 000c 01D2     		bcs	.L114
2549:Generated_Source\PSoC4/CapSense_CSHL.c ****             {
2550:Generated_Source\PSoC4/CapSense_CSHL.c ****                 x1++;
 1341              		.loc 1 2550 0
 1342 000e 0130     		adds	r0, r0, #1
 1343              	.LVL143:
 1344 0010 80B2     		uxth	r0, r0
 1345              	.LVL144:
 1346              	.L114:
2551:Generated_Source\PSoC4/CapSense_CSHL.c ****             }
2552:Generated_Source\PSoC4/CapSense_CSHL.c ****         }
2553:Generated_Source\PSoC4/CapSense_CSHL.c **** 
2554:Generated_Source\PSoC4/CapSense_CSHL.c ****         return x1;
2555:Generated_Source\PSoC4/CapSense_CSHL.c ****     }
 1347              		.loc 1 2555 0
 1348              		@ sp needed
 1349 0012 7047     		bx	lr
 1350              		.cfi_endproc
 1351              	.LFE64:
 1352              		.size	CapSense_JitterFilter, .-CapSense_JitterFilter
 1353              		.section	.text.CapSense_UpdateBaselineNoThreshold,"ax",%progbits
 1354              		.align	2
 1355              		.global	CapSense_UpdateBaselineNoThreshold
 1356              		.code	16
 1357              		.thumb_func
 1358              		.type	CapSense_UpdateBaselineNoThreshold, %function
 1359              	CapSense_UpdateBaselineNoThreshold:
 1360              	.LFB36:
 355:Generated_Source\PSoC4/CapSense_CSHL.c ****     uint32 calc;
 1361              		.loc 1 355 0
 1362              		.cfi_startproc
ARM GAS  C:\Users\SHOZO\AppData\Local\Temp\cc3BkmVy.s 			page 70


 1363              		@ args = 0, pretend = 0, frame = 8
 1364              		@ frame_needed = 0, uses_anonymous_args = 0
 1365              	.LVL145:
 1366 0000 F0B5     		push	{r4, r5, r6, r7, lr}
 1367              		.cfi_def_cfa_offset 20
 1368              		.cfi_offset 4, -20
 1369              		.cfi_offset 5, -16
 1370              		.cfi_offset 6, -12
 1371              		.cfi_offset 7, -8
 1372              		.cfi_offset 14, -4
 1373 0002 4F46     		mov	r7, r9
 1374 0004 4646     		mov	r6, r8
 1375 0006 C0B4     		push	{r6, r7}
 1376              		.cfi_def_cfa_offset 28
 1377              		.cfi_offset 8, -28
 1378              		.cfi_offset 9, -24
 1379 0008 83B0     		sub	sp, sp, #12
 1380              		.cfi_def_cfa_offset 40
 1381 000a 0400     		movs	r4, r0
 360:Generated_Source\PSoC4/CapSense_CSHL.c ****     uint8 noiseThreshold;
 1382              		.loc 1 360 0
 1383 000c 384B     		ldr	r3, .L125
 1384 000e 1B5C     		ldrb	r3, [r3, r0]
 1385 0010 9946     		mov	r9, r3
 369:Generated_Source\PSoC4/CapSense_CSHL.c ****     filteredRawData = CapSense_sensorRaw[sensor];
 1386              		.loc 1 369 0
 1387 0012 384B     		ldr	r3, .L125+4
 1388 0014 4A46     		mov	r2, r9
 1389 0016 9B5C     		ldrb	r3, [r3, r2]
 1390 0018 9846     		mov	r8, r3
 1391              	.LVL146:
 370:Generated_Source\PSoC4/CapSense_CSHL.c **** 
 1392              		.loc 1 370 0
 1393 001a 4200     		lsls	r2, r0, #1
 1394 001c 364B     		ldr	r3, .L125+8
 1395 001e D65A     		ldrh	r6, [r2, r3]
 1396              	.LVL147:
 373:Generated_Source\PSoC4/CapSense_CSHL.c ****     {
 1397              		.loc 1 373 0
 1398 0020 364B     		ldr	r3, .L125+12
 1399 0022 1B7C     		ldrb	r3, [r3, #16]
 1400 0024 002B     		cmp	r3, #0
 1401 0026 07D0     		beq	.L116
 398:Generated_Source\PSoC4/CapSense_CSHL.c ****             CapSense_rawFilterData1[sensor] = filteredRawData;
 1402              		.loc 1 398 0
 1403 0028 354D     		ldr	r5, .L125+16
 1404 002a 1700     		movs	r7, r2
 1405 002c 515B     		ldrh	r1, [r2, r5]
 1406 002e 3000     		movs	r0, r6
 1407              	.LVL148:
 1408 0030 FFF7FEFF 		bl	CapSense_JitterFilter
 1409              	.LVL149:
 1410 0034 0600     		movs	r6, r0
 1411              	.LVL150:
 399:Generated_Source\PSoC4/CapSense_CSHL.c **** 
 1412              		.loc 1 399 0
 1413 0036 7853     		strh	r0, [r7, r5]
ARM GAS  C:\Users\SHOZO\AppData\Local\Temp\cc3BkmVy.s 			page 71


 1414              	.LVL151:
 1415              	.L116:
 416:Generated_Source\PSoC4/CapSense_CSHL.c ****     #endif /* (CapSense_TUNING_METHOD == CapSense__TUNING_AUTO) */
 1416              		.loc 1 416 0
 1417 0038 E1B2     		uxtb	r1, r4
 1418 003a 2F4A     		ldr	r2, .L125+8
 1419 003c 3148     		ldr	r0, .L125+20
 1420 003e FFF7FEFF 		bl	MeasureNoiseEnvelope_P4_v2_60
 1421              	.LVL152:
 421:Generated_Source\PSoC4/CapSense_CSHL.c ****     {
 1422              		.loc 1 421 0
 1423 0042 6300     		lsls	r3, r4, #1
 1424 0044 304A     		ldr	r2, .L125+24
 1425 0046 9A5A     		ldrh	r2, [r3, r2]
 1426 0048 9642     		cmp	r6, r2
 1427 004a 06D3     		bcc	.L117
 423:Generated_Source\PSoC4/CapSense_CSHL.c ****         tempRaw = filteredRawData - CapSense_sensorBaseline[sensor];
 1428              		.loc 1 423 0
 1429 004c 0021     		movs	r1, #0
 1430 004e 2F4B     		ldr	r3, .L125+28
 1431 0050 1955     		strb	r1, [r3, r4]
 424:Generated_Source\PSoC4/CapSense_CSHL.c ****         sign = 1u;    /* Positive difference - Calculate the Signal */
 1432              		.loc 1 424 0
 1433 0052 B51A     		subs	r5, r6, r2
 1434 0054 ADB2     		uxth	r5, r5
 1435              	.LVL153:
 425:Generated_Source\PSoC4/CapSense_CSHL.c ****     }
 1436              		.loc 1 425 0
 1437 0056 0127     		movs	r7, #1
 1438 0058 02E0     		b	.L118
 1439              	.LVL154:
 1440              	.L117:
 429:Generated_Source\PSoC4/CapSense_CSHL.c ****         sign = 0u;    /* Negative difference - Do NOT calculate the Signal */
 1441              		.loc 1 429 0
 1442 005a 951B     		subs	r5, r2, r6
 1443 005c ADB2     		uxth	r5, r5
 1444              	.LVL155:
 430:Generated_Source\PSoC4/CapSense_CSHL.c ****     }
 1445              		.loc 1 430 0
 1446 005e 0027     		movs	r7, #0
 1447              	.LVL156:
 1448              	.L118:
 434:Generated_Source\PSoC4/CapSense_CSHL.c ****     #else
 1449              		.loc 1 434 0
 1450 0060 002F     		cmp	r7, #0
 1451 0062 16D1     		bne	.L119
 434:Generated_Source\PSoC4/CapSense_CSHL.c ****     #else
 1452              		.loc 1 434 0 is_stmt 0 discriminator 1
 1453 0064 2A4B     		ldr	r3, .L125+32
 1454 0066 4946     		mov	r1, r9
 1455 0068 5B5C     		ldrb	r3, [r3, r1]
 1456 006a 9D42     		cmp	r5, r3
 1457 006c 11D9     		bls	.L119
 439:Generated_Source\PSoC4/CapSense_CSHL.c ****         {
 1458              		.loc 1 439 0 is_stmt 1
 1459 006e 274B     		ldr	r3, .L125+28
 1460 0070 1B5D     		ldrb	r3, [r3, r4]
ARM GAS  C:\Users\SHOZO\AppData\Local\Temp\cc3BkmVy.s 			page 72


 1461 0072 224A     		ldr	r2, .L125+12
 1462 0074 1219     		adds	r2, r2, r4
 1463 0076 1279     		ldrb	r2, [r2, #4]
 1464 0078 9342     		cmp	r3, r2
 1465 007a 06D3     		bcc	.L120
 441:Generated_Source\PSoC4/CapSense_CSHL.c ****             CapSense_lowBaselineResetCnt[sensor] = 0u;
 1466              		.loc 1 441 0
 1467 007c 2000     		movs	r0, r4
 1468 007e FFF7FEFF 		bl	CapSense_BaseInit
 1469              	.LVL157:
 442:Generated_Source\PSoC4/CapSense_CSHL.c ****         }
 1470              		.loc 1 442 0
 1471 0082 0022     		movs	r2, #0
 1472 0084 214B     		ldr	r3, .L125+28
 1473 0086 1A55     		strb	r2, [r3, r4]
 1474 0088 13E0     		b	.L121
 1475              	.L120:
 446:Generated_Source\PSoC4/CapSense_CSHL.c ****         }
 1476              		.loc 1 446 0
 1477 008a 0133     		adds	r3, r3, #1
 1478 008c 1F4A     		ldr	r2, .L125+28
 1479 008e 1355     		strb	r3, [r2, r4]
 1480 0090 0FE0     		b	.L121
 1481              	.L119:
 467:Generated_Source\PSoC4/CapSense_CSHL.c ****                 calc |= (uint32) CapSense_sensorBaselineLow[sensor];
 1482              		.loc 1 467 0
 1483 0092 1002     		lsls	r0, r2, #8
 1484              	.LVL158:
 468:Generated_Source\PSoC4/CapSense_CSHL.c **** 
 1485              		.loc 1 468 0
 1486 0094 1C4B     		ldr	r3, .L125+24
 1487 0096 9C46     		mov	ip, r3
 1488 0098 1919     		adds	r1, r3, r4
 1489 009a 0B7E     		ldrb	r3, [r1, #24]
 1490 009c 1843     		orrs	r0, r3
 1491              	.LVL159:
 471:Generated_Source\PSoC4/CapSense_CSHL.c **** 
 1492              		.loc 1 471 0
 1493 009e 3018     		adds	r0, r6, r0
 1494              	.LVL160:
 474:Generated_Source\PSoC4/CapSense_CSHL.c **** 
 1495              		.loc 1 474 0
 1496 00a0 801A     		subs	r0, r0, r2
 1497              	.LVL161:
 477:Generated_Source\PSoC4/CapSense_CSHL.c ****                 CapSense_sensorBaselineLow[sensor] = ((uint8) calc);
 1498              		.loc 1 477 0
 1499 00a2 020A     		lsrs	r2, r0, #8
 1500 00a4 6300     		lsls	r3, r4, #1
 1501 00a6 6646     		mov	r6, ip
 1502              	.LVL162:
 1503 00a8 F252     		strh	r2, [r6, r3]
 478:Generated_Source\PSoC4/CapSense_CSHL.c **** 
 1504              		.loc 1 478 0
 1505 00aa 0876     		strb	r0, [r1, #24]
 480:Generated_Source\PSoC4/CapSense_CSHL.c ****         #if (CapSense_AUTO_RESET == CapSense_AUTO_RESET_DISABLE)
 1506              		.loc 1 480 0
 1507 00ac 0022     		movs	r2, #0
ARM GAS  C:\Users\SHOZO\AppData\Local\Temp\cc3BkmVy.s 			page 73


 1508 00ae 174B     		ldr	r3, .L125+28
 1509 00b0 1A55     		strb	r2, [r3, r4]
 1510              	.LVL163:
 1511              	.L121:
 487:Generated_Source\PSoC4/CapSense_CSHL.c ****     {
 1512              		.loc 1 487 0
 1513 00b2 4346     		mov	r3, r8
 1514 00b4 6A46     		mov	r2, sp
 1515 00b6 D380     		strh	r3, [r2, #6]
 1516 00b8 D688     		ldrh	r6, [r2, #6]
 1517 00ba B542     		cmp	r5, r6
 1518 00bc 0ED9     		bls	.L122
 487:Generated_Source\PSoC4/CapSense_CSHL.c ****     {
 1519              		.loc 1 487 0 is_stmt 0 discriminator 1
 1520 00be 002F     		cmp	r7, #0
 1521 00c0 0CD0     		beq	.L122
 491:Generated_Source\PSoC4/CapSense_CSHL.c ****             {
 1522              		.loc 1 491 0 is_stmt 1
 1523 00c2 FF2D     		cmp	r5, #255
 1524 00c4 05D9     		bls	.L123
 493:Generated_Source\PSoC4/CapSense_CSHL.c ****             }
 1525              		.loc 1 493 0
 1526 00c6 104B     		ldr	r3, .L125+24
 1527 00c8 1C19     		adds	r4, r3, r4
 1528              	.LVL164:
 1529 00ca FF22     		movs	r2, #255
 1530 00cc 2423     		movs	r3, #36
 1531 00ce E254     		strb	r2, [r4, r3]
 1532 00d0 09E0     		b	.L115
 1533              	.LVL165:
 1534              	.L123:
 497:Generated_Source\PSoC4/CapSense_CSHL.c ****             }
 1535              		.loc 1 497 0
 1536 00d2 0D4B     		ldr	r3, .L125+24
 1537 00d4 1C19     		adds	r4, r3, r4
 1538              	.LVL166:
 1539 00d6 2423     		movs	r3, #36
 1540 00d8 E554     		strb	r5, [r4, r3]
 1541 00da 04E0     		b	.L115
 1542              	.LVL167:
 1543              	.L122:
 506:Generated_Source\PSoC4/CapSense_CSHL.c ****     }
 1544              		.loc 1 506 0
 1545 00dc 0A4B     		ldr	r3, .L125+24
 1546 00de 1C19     		adds	r4, r3, r4
 1547              	.LVL168:
 1548 00e0 0022     		movs	r2, #0
 1549 00e2 2423     		movs	r3, #36
 1550 00e4 E254     		strb	r2, [r4, r3]
 1551              	.L115:
 513:Generated_Source\PSoC4/CapSense_CSHL.c **** 
 1552              		.loc 1 513 0
 1553 00e6 03B0     		add	sp, sp, #12
 1554              		@ sp needed
 1555              	.LVL169:
 1556              	.LVL170:
 1557              	.LVL171:
ARM GAS  C:\Users\SHOZO\AppData\Local\Temp\cc3BkmVy.s 			page 74


 1558 00e8 0CBC     		pop	{r2, r3}
 1559 00ea 9046     		mov	r8, r2
 1560 00ec 9946     		mov	r9, r3
 1561 00ee F0BD     		pop	{r4, r5, r6, r7, pc}
 1562              	.L126:
 1563              		.align	2
 1564              	.L125:
 1565 00f0 00000000 		.word	CapSense_widgetNumber
 1566 00f4 00000000 		.word	CapSense_noiseThreshold
 1567 00f8 00000000 		.word	CapSense_sensorRaw
 1568 00fc 00000000 		.word	.LANCHOR1
 1569 0100 00000000 		.word	CapSense_rawFilterData1
 1570 0104 00000000 		.word	CapSense_config
 1571 0108 00000000 		.word	.LANCHOR0
 1572 010c 00000000 		.word	CapSense_lowBaselineResetCnt
 1573 0110 00000000 		.word	CapSense_negativeNoiseThreshold
 1574              		.cfi_endproc
 1575              	.LFE36:
 1576              		.size	CapSense_UpdateBaselineNoThreshold, .-CapSense_UpdateBaselineNoThreshold
 1577              		.section	.text.CapSense_UpdateSensorBaseline,"ax",%progbits
 1578              		.align	2
 1579              		.global	CapSense_UpdateSensorBaseline
 1580              		.code	16
 1581              		.thumb_func
 1582              		.type	CapSense_UpdateSensorBaseline, %function
 1583              	CapSense_UpdateSensorBaseline:
 1584              	.LFB37:
 547:Generated_Source\PSoC4/CapSense_CSHL.c ****     #if (CapSense_TOTAL_GENERICS_COUNT)
 1585              		.loc 1 547 0
 1586              		.cfi_startproc
 1587              		@ args = 0, pretend = 0, frame = 0
 1588              		@ frame_needed = 0, uses_anonymous_args = 0
 1589              	.LVL172:
 1590 0000 10B5     		push	{r4, lr}
 1591              		.cfi_def_cfa_offset 8
 1592              		.cfi_offset 4, -8
 1593              		.cfi_offset 14, -4
 1594 0002 0400     		movs	r4, r0
 559:Generated_Source\PSoC4/CapSense_CSHL.c ****     #endif /* (CapSense_TUNING_METHOD == CapSense__TUNING_AUTO) */
 1595              		.loc 1 559 0
 1596 0004 FFF7FEFF 		bl	CapSense_UpdateThresholds
 1597              	.LVL173:
 562:Generated_Source\PSoC4/CapSense_CSHL.c **** 
 1598              		.loc 1 562 0
 1599 0008 2000     		movs	r0, r4
 1600 000a FFF7FEFF 		bl	CapSense_UpdateBaselineNoThreshold
 1601              	.LVL174:
 568:Generated_Source\PSoC4/CapSense_CSHL.c **** 
 1602              		.loc 1 568 0
 1603              		@ sp needed
 1604              	.LVL175:
 1605 000e 10BD     		pop	{r4, pc}
 1606              		.cfi_endproc
 1607              	.LFE37:
 1608              		.size	CapSense_UpdateSensorBaseline, .-CapSense_UpdateSensorBaseline
 1609              		.section	.text.CapSense_UpdateEnabledBaselines,"ax",%progbits
 1610              		.align	2
ARM GAS  C:\Users\SHOZO\AppData\Local\Temp\cc3BkmVy.s 			page 75


 1611              		.global	CapSense_UpdateEnabledBaselines
 1612              		.code	16
 1613              		.thumb_func
 1614              		.type	CapSense_UpdateEnabledBaselines, %function
 1615              	CapSense_UpdateEnabledBaselines:
 1616              	.LFB38:
 601:Generated_Source\PSoC4/CapSense_CSHL.c ****     uint32 i;
 1617              		.loc 1 601 0
 1618              		.cfi_startproc
 1619              		@ args = 0, pretend = 0, frame = 0
 1620              		@ frame_needed = 0, uses_anonymous_args = 0
 1621 0000 10B5     		push	{r4, lr}
 1622              		.cfi_def_cfa_offset 8
 1623              		.cfi_offset 4, -8
 1624              		.cfi_offset 14, -4
 1625              	.LVL176:
 605:Generated_Source\PSoC4/CapSense_CSHL.c ****     {
 1626              		.loc 1 605 0
 1627 0002 0024     		movs	r4, #0
 1628 0004 09E0     		b	.L129
 1629              	.LVL177:
 1630              	.L131:
 607:Generated_Source\PSoC4/CapSense_CSHL.c **** 
 1631              		.loc 1 607 0
 1632 0006 2100     		movs	r1, r4
 1633 0008 0548     		ldr	r0, .L132
 1634 000a FFF7FEFF 		bl	CapSense_GetBitValue
 1635              	.LVL178:
 609:Generated_Source\PSoC4/CapSense_CSHL.c ****         {
 1636              		.loc 1 609 0
 1637 000e 0028     		cmp	r0, #0
 1638 0010 02D0     		beq	.L130
 611:Generated_Source\PSoC4/CapSense_CSHL.c ****         }
 1639              		.loc 1 611 0
 1640 0012 2000     		movs	r0, r4
 1641              	.LVL179:
 1642 0014 FFF7FEFF 		bl	CapSense_UpdateSensorBaseline
 1643              	.LVL180:
 1644              	.L130:
 605:Generated_Source\PSoC4/CapSense_CSHL.c ****     {
 1645              		.loc 1 605 0 discriminator 2
 1646 0018 0134     		adds	r4, r4, #1
 1647              	.LVL181:
 1648              	.L129:
 605:Generated_Source\PSoC4/CapSense_CSHL.c ****     {
 1649              		.loc 1 605 0 is_stmt 0 discriminator 1
 1650 001a 0B2C     		cmp	r4, #11
 1651 001c F3D9     		bls	.L131
 614:Generated_Source\PSoC4/CapSense_CSHL.c **** 
 1652              		.loc 1 614 0 is_stmt 1
 1653              		@ sp needed
 1654              	.LVL182:
 1655 001e 10BD     		pop	{r4, pc}
 1656              	.L133:
 1657              		.align	2
 1658              	.L132:
 1659 0020 00000000 		.word	CapSense_sensorEnableMask
ARM GAS  C:\Users\SHOZO\AppData\Local\Temp\cc3BkmVy.s 			page 76


 1660              		.cfi_endproc
 1661              	.LFE38:
 1662              		.size	CapSense_UpdateEnabledBaselines, .-CapSense_UpdateEnabledBaselines
 1663              		.section	.text.CapSense_UpdateWidgetBaseline,"ax",%progbits
 1664              		.align	2
 1665              		.global	CapSense_UpdateWidgetBaseline
 1666              		.code	16
 1667              		.thumb_func
 1668              		.type	CapSense_UpdateWidgetBaseline, %function
 1669              	CapSense_UpdateWidgetBaseline:
 1670              	.LFB39:
 646:Generated_Source\PSoC4/CapSense_CSHL.c ****     uint32 sensorsPerWidget;
 1671              		.loc 1 646 0
 1672              		.cfi_startproc
 1673              		@ args = 0, pretend = 0, frame = 0
 1674              		@ frame_needed = 0, uses_anonymous_args = 0
 1675              	.LVL183:
 1676 0000 10B5     		push	{r4, lr}
 1677              		.cfi_def_cfa_offset 8
 1678              		.cfi_offset 4, -8
 1679              		.cfi_offset 14, -4
 1680              	.LVL184:
 662:Generated_Source\PSoC4/CapSense_CSHL.c ****     {
 1681              		.loc 1 662 0
 1682 0002 0024     		movs	r4, #0
 1683 0004 09E0     		b	.L135
 1684              	.LVL185:
 1685              	.L137:
 664:Generated_Source\PSoC4/CapSense_CSHL.c **** 
 1686              		.loc 1 664 0
 1687 0006 2100     		movs	r1, r4
 1688 0008 0548     		ldr	r0, .L138
 1689 000a FFF7FEFF 		bl	CapSense_GetBitValue
 1690              	.LVL186:
 666:Generated_Source\PSoC4/CapSense_CSHL.c ****         {
 1691              		.loc 1 666 0
 1692 000e 0028     		cmp	r0, #0
 1693 0010 02D0     		beq	.L136
 668:Generated_Source\PSoC4/CapSense_CSHL.c ****         }
 1694              		.loc 1 668 0
 1695 0012 2000     		movs	r0, r4
 1696              	.LVL187:
 1697 0014 FFF7FEFF 		bl	CapSense_UpdateSensorBaseline
 1698              	.LVL188:
 1699              	.L136:
 662:Generated_Source\PSoC4/CapSense_CSHL.c ****     {
 1700              		.loc 1 662 0 discriminator 2
 1701 0018 0134     		adds	r4, r4, #1
 1702              	.LVL189:
 1703              	.L135:
 662:Generated_Source\PSoC4/CapSense_CSHL.c ****     {
 1704              		.loc 1 662 0 is_stmt 0 discriminator 1
 1705 001a 0B2C     		cmp	r4, #11
 1706 001c F3D9     		bls	.L137
 671:Generated_Source\PSoC4/CapSense_CSHL.c **** 
 1707              		.loc 1 671 0 is_stmt 1
 1708              		@ sp needed
ARM GAS  C:\Users\SHOZO\AppData\Local\Temp\cc3BkmVy.s 			page 77


 1709              	.LVL190:
 1710 001e 10BD     		pop	{r4, pc}
 1711              	.L139:
 1712              		.align	2
 1713              	.L138:
 1714 0020 00000000 		.word	CapSense_sensorEnableMask
 1715              		.cfi_endproc
 1716              	.LFE39:
 1717              		.size	CapSense_UpdateWidgetBaseline, .-CapSense_UpdateWidgetBaseline
 1718              		.section	.text.CapSense_GetCentroidPos,"ax",%progbits
 1719              		.align	2
 1720              		.global	CapSense_GetCentroidPos
 1721              		.code	16
 1722              		.thumb_func
 1723              		.type	CapSense_GetCentroidPos, %function
 1724              	CapSense_GetCentroidPos:
 1725              	.LFB61:
1749:Generated_Source\PSoC4/CapSense_CSHL.c ****         #if (CapSense_IS_DIPLEX_SLIDER)
 1726              		.loc 1 1749 0
 1727              		.cfi_startproc
 1728              		@ args = 0, pretend = 0, frame = 0
 1729              		@ frame_needed = 0, uses_anonymous_args = 0
 1730              	.LVL191:
 1731 0000 30B5     		push	{r4, r5, lr}
 1732              		.cfi_def_cfa_offset 12
 1733              		.cfi_offset 4, -12
 1734              		.cfi_offset 5, -8
 1735              		.cfi_offset 14, -4
 1736 0002 83B0     		sub	sp, sp, #12
 1737              		.cfi_def_cfa_offset 24
 1738 0004 0400     		movs	r4, r0
1756:Generated_Source\PSoC4/CapSense_CSHL.c ****             uint8 posFiltersMask = CapSense_posFiltersMask[widget];
 1739              		.loc 1 1756 0
 1740 0006 194B     		ldr	r3, .L144
 1741 0008 1B18     		adds	r3, r3, r0
 1742 000a 1D7D     		ldrb	r5, [r3, #20]
 1743              	.LVL192:
1788:Generated_Source\PSoC4/CapSense_CSHL.c ****         #endif /* (CapSense_IS_DIPLEX_SLIDER) */
 1744              		.loc 1 1788 0
 1745 000c 184B     		ldr	r3, .L144+4
 1746 000e 1A5C     		ldrb	r2, [r3, r0]
 1747 0010 0C21     		movs	r1, #12
 1748 0012 0020     		movs	r0, #0
 1749              	.LVL193:
 1750 0014 FFF7FEFF 		bl	CapSense_FindMaximum
 1751              	.LVL194:
1791:Generated_Source\PSoC4/CapSense_CSHL.c ****         {
 1752              		.loc 1 1791 0
 1753 0018 FF28     		cmp	r0, #255
 1754 001a 1FD0     		beq	.L141
1794:Generated_Source\PSoC4/CapSense_CSHL.c ****                          offset, count, CapSense_centroidMult[widget], CapSense_noiseThreshold[widg
 1755              		.loc 1 1794 0
 1756 001c 154B     		ldr	r3, .L144+8
 1757 001e 1B5D     		ldrb	r3, [r3, r4]
 1758 0020 0093     		str	r3, [sp]
 1759 0022 9023     		movs	r3, #144
 1760 0024 1B01     		lsls	r3, r3, #4
ARM GAS  C:\Users\SHOZO\AppData\Local\Temp\cc3BkmVy.s 			page 78


 1761 0026 0C22     		movs	r2, #12
 1762 0028 0021     		movs	r1, #0
 1763 002a FFF7FEFF 		bl	CapSense_CalcCentroid
 1764              	.LVL195:
 1765 002e 0100     		movs	r1, r0
 1766 0030 80B2     		uxth	r0, r0
 1767              	.LVL196:
1802:Generated_Source\PSoC4/CapSense_CSHL.c **** 
 1768              		.loc 1 1802 0
 1769 0032 6B1C     		adds	r3, r5, #1
 1770 0034 DBB2     		uxtb	r3, r3
 1771              	.LVL197:
1804:Generated_Source\PSoC4/CapSense_CSHL.c ****                     {
 1772              		.loc 1 1804 0
 1773 0036 0D4A     		ldr	r2, .L144
 1774 0038 5219     		adds	r2, r2, r5
 1775 003a 127D     		ldrb	r2, [r2, #20]
 1776 003c 002A     		cmp	r2, #0
 1777 003e 06D1     		bne	.L142
1807:Generated_Source\PSoC4/CapSense_CSHL.c ****                         #if ((0u != (CapSense_MEDIAN_FILTER & \
 1778              		.loc 1 1807 0
 1779 0040 0A4A     		ldr	r2, .L144
 1780 0042 D318     		adds	r3, r2, r3
 1781              	.LVL198:
 1782 0044 1975     		strb	r1, [r3, #20]
1824:Generated_Source\PSoC4/CapSense_CSHL.c ****                     }
 1783              		.loc 1 1824 0
 1784 0046 5519     		adds	r5, r2, r5
 1785              	.LVL199:
 1786 0048 0123     		movs	r3, #1
 1787 004a 2B75     		strb	r3, [r5, #20]
 1788 004c 0BE0     		b	.L143
 1789              	.LVL200:
 1790              	.L142:
1884:Generated_Source\PSoC4/CapSense_CSHL.c ****                                 CapSense_posFiltersData[posIndex] = (uint8) position;
 1791              		.loc 1 1884 0
 1792 004e 074C     		ldr	r4, .L144
 1793              	.LVL201:
 1794 0050 E418     		adds	r4, r4, r3
1883:Generated_Source\PSoC4/CapSense_CSHL.c ****                                                                     (uint16)CapSense_posFiltersData
 1795              		.loc 1 1883 0
 1796 0052 217D     		ldrb	r1, [r4, #20]
 1797 0054 FFF7FEFF 		bl	CapSense_JitterFilter
 1798              	.LVL202:
1885:Generated_Source\PSoC4/CapSense_CSHL.c ****                             }
 1799              		.loc 1 1885 0
 1800 0058 2075     		strb	r0, [r4, #20]
 1801 005a 04E0     		b	.L143
 1802              	.LVL203:
 1803              	.L141:
1904:Generated_Source\PSoC4/CapSense_CSHL.c ****                 }
 1804              		.loc 1 1904 0
 1805 005c 034B     		ldr	r3, .L144
 1806 005e 5D19     		adds	r5, r3, r5
 1807              	.LVL204:
 1808 0060 0023     		movs	r3, #0
 1809 0062 2B75     		strb	r3, [r5, #20]
ARM GAS  C:\Users\SHOZO\AppData\Local\Temp\cc3BkmVy.s 			page 79


1898:Generated_Source\PSoC4/CapSense_CSHL.c **** 
 1810              		.loc 1 1898 0
 1811 0064 0448     		ldr	r0, .L144+12
 1812              	.LVL205:
 1813              	.L143:
1911:Generated_Source\PSoC4/CapSense_CSHL.c **** #endif /* ((CapSense_TOTAL_RADIAL_SLIDERS_COUNT > 0u) || (CapSense_TOTAL_LINEAR_SLIDERS_COUNT > 0u)
 1814              		.loc 1 1911 0
 1815 0066 03B0     		add	sp, sp, #12
 1816              		@ sp needed
 1817 0068 30BD     		pop	{r4, r5, pc}
 1818              	.L145:
 1819 006a C046     		.align	2
 1820              	.L144:
 1821 006c 00000000 		.word	.LANCHOR1
 1822 0070 00000000 		.word	CapSense_fingerThreshold
 1823 0074 00000000 		.word	CapSense_noiseThreshold
 1824 0078 FFFF0000 		.word	65535
 1825              		.cfi_endproc
 1826              	.LFE61:
 1827              		.size	CapSense_GetCentroidPos, .-CapSense_GetCentroidPos
 1828              		.section	.text.CapSense_GetWidgetNumber,"ax",%progbits
 1829              		.align	2
 1830              		.global	CapSense_GetWidgetNumber
 1831              		.code	16
 1832              		.thumb_func
 1833              		.type	CapSense_GetWidgetNumber, %function
 1834              	CapSense_GetWidgetNumber:
 1835              	.LFB65:
2556:Generated_Source\PSoC4/CapSense_CSHL.c **** #endif /* ( (0u != (CapSense_RAW_FILTER_MASK & CapSense_JITTER_FILTER)) || \
2557:Generated_Source\PSoC4/CapSense_CSHL.c ****        *    (0u != (CapSense_POS_FILTERS_MASK & CapSense_JITTER_FILTER)) )
2558:Generated_Source\PSoC4/CapSense_CSHL.c ****        *    (0u != (CapSense_TRACKPAD_GEST_POS_FILTERS_MASK & CapSense_JITTER_FILTER)) )
2559:Generated_Source\PSoC4/CapSense_CSHL.c ****        */
2560:Generated_Source\PSoC4/CapSense_CSHL.c **** 
2561:Generated_Source\PSoC4/CapSense_CSHL.c **** 
2562:Generated_Source\PSoC4/CapSense_CSHL.c **** #if (0u != (CapSense_RAW_FILTER_MASK & CapSense_IIR8_FILTER))
2563:Generated_Source\PSoC4/CapSense_CSHL.c ****     /*******************************************************************************
2564:Generated_Source\PSoC4/CapSense_CSHL.c ****     * Function Name: CapSense_IIR8Filter
2565:Generated_Source\PSoC4/CapSense_CSHL.c ****     ********************************************************************************
2566:Generated_Source\PSoC4/CapSense_CSHL.c ****     *
2567:Generated_Source\PSoC4/CapSense_CSHL.c ****     * Summary:
2568:Generated_Source\PSoC4/CapSense_CSHL.c ****     *  This is the IIR1/8 filter function. IIR1/8 = 1/8current + 7/8previous.
2569:Generated_Source\PSoC4/CapSense_CSHL.c ****     *  Only applies for raw data.
2570:Generated_Source\PSoC4/CapSense_CSHL.c ****     *
2571:Generated_Source\PSoC4/CapSense_CSHL.c ****     * Parameters:
2572:Generated_Source\PSoC4/CapSense_CSHL.c ****     *  x1:  Current value.
2573:Generated_Source\PSoC4/CapSense_CSHL.c ****     *  x2:  Previous value.
2574:Generated_Source\PSoC4/CapSense_CSHL.c ****     *
2575:Generated_Source\PSoC4/CapSense_CSHL.c ****     * Return:
2576:Generated_Source\PSoC4/CapSense_CSHL.c ****     *  Returns filtered value.
2577:Generated_Source\PSoC4/CapSense_CSHL.c ****     *
2578:Generated_Source\PSoC4/CapSense_CSHL.c ****     * Global Variables:
2579:Generated_Source\PSoC4/CapSense_CSHL.c ****     *  None.
2580:Generated_Source\PSoC4/CapSense_CSHL.c ****     *
2581:Generated_Source\PSoC4/CapSense_CSHL.c ****     * Side Effects:
2582:Generated_Source\PSoC4/CapSense_CSHL.c ****     *  None
2583:Generated_Source\PSoC4/CapSense_CSHL.c ****     *
2584:Generated_Source\PSoC4/CapSense_CSHL.c ****     *******************************************************************************/
ARM GAS  C:\Users\SHOZO\AppData\Local\Temp\cc3BkmVy.s 			page 80


2585:Generated_Source\PSoC4/CapSense_CSHL.c ****     uint16 CapSense_IIR8Filter(uint16 x1, uint16 x2)
2586:Generated_Source\PSoC4/CapSense_CSHL.c ****     {
2587:Generated_Source\PSoC4/CapSense_CSHL.c ****         uint32 tmp;
2588:Generated_Source\PSoC4/CapSense_CSHL.c **** 
2589:Generated_Source\PSoC4/CapSense_CSHL.c ****         /* IIR = 1/8 Current Value + 7/8 Previous Value */
2590:Generated_Source\PSoC4/CapSense_CSHL.c ****         tmp = (uint32)x1;
2591:Generated_Source\PSoC4/CapSense_CSHL.c ****         tmp += (((uint32)x2 << 3u) - ((uint32)x2));
2592:Generated_Source\PSoC4/CapSense_CSHL.c ****         tmp >>= 3u;
2593:Generated_Source\PSoC4/CapSense_CSHL.c **** 
2594:Generated_Source\PSoC4/CapSense_CSHL.c ****         return ((uint16) tmp);
2595:Generated_Source\PSoC4/CapSense_CSHL.c ****     }
2596:Generated_Source\PSoC4/CapSense_CSHL.c **** #endif /* (0u != (CapSense_RAW_FILTER_MASK & CapSense_IIR8_FILTER)) */
2597:Generated_Source\PSoC4/CapSense_CSHL.c **** 
2598:Generated_Source\PSoC4/CapSense_CSHL.c **** 
2599:Generated_Source\PSoC4/CapSense_CSHL.c **** #if (0u != (CapSense_RAW_FILTER_MASK & CapSense_IIR16_FILTER))
2600:Generated_Source\PSoC4/CapSense_CSHL.c ****     /*******************************************************************************
2601:Generated_Source\PSoC4/CapSense_CSHL.c ****     * Function Name: CapSense_IIR16Filter
2602:Generated_Source\PSoC4/CapSense_CSHL.c ****     ********************************************************************************
2603:Generated_Source\PSoC4/CapSense_CSHL.c ****     *
2604:Generated_Source\PSoC4/CapSense_CSHL.c ****     * Summary:
2605:Generated_Source\PSoC4/CapSense_CSHL.c ****     *  This is the IIR1/16 filter function. IIR1/16 = 1/16current + 15/16previous.
2606:Generated_Source\PSoC4/CapSense_CSHL.c ****     *  Only applies for raw data.
2607:Generated_Source\PSoC4/CapSense_CSHL.c ****     *
2608:Generated_Source\PSoC4/CapSense_CSHL.c ****     * Parameters:
2609:Generated_Source\PSoC4/CapSense_CSHL.c ****     *  x1:  Current value.
2610:Generated_Source\PSoC4/CapSense_CSHL.c ****     *  x2:  Previous value.
2611:Generated_Source\PSoC4/CapSense_CSHL.c ****     *
2612:Generated_Source\PSoC4/CapSense_CSHL.c ****     * Return:
2613:Generated_Source\PSoC4/CapSense_CSHL.c ****     *  Returns filtered value.
2614:Generated_Source\PSoC4/CapSense_CSHL.c ****     *
2615:Generated_Source\PSoC4/CapSense_CSHL.c ****     * Global Variables:
2616:Generated_Source\PSoC4/CapSense_CSHL.c ****     *  None.
2617:Generated_Source\PSoC4/CapSense_CSHL.c ****     *
2618:Generated_Source\PSoC4/CapSense_CSHL.c ****     * Side Effects:
2619:Generated_Source\PSoC4/CapSense_CSHL.c ****     *  None
2620:Generated_Source\PSoC4/CapSense_CSHL.c ****     *
2621:Generated_Source\PSoC4/CapSense_CSHL.c ****     *******************************************************************************/
2622:Generated_Source\PSoC4/CapSense_CSHL.c ****     uint16 CapSense_IIR16Filter(uint16 x1, uint16 x2)
2623:Generated_Source\PSoC4/CapSense_CSHL.c ****     {
2624:Generated_Source\PSoC4/CapSense_CSHL.c ****         uint32 tmp;
2625:Generated_Source\PSoC4/CapSense_CSHL.c **** 
2626:Generated_Source\PSoC4/CapSense_CSHL.c ****         /* IIR = 1/16 Current Value + 15/16 Previous Value */
2627:Generated_Source\PSoC4/CapSense_CSHL.c ****         tmp = (uint32)x1;
2628:Generated_Source\PSoC4/CapSense_CSHL.c ****         tmp += (((uint32)x2 << 4u) - ((uint32)x2));
2629:Generated_Source\PSoC4/CapSense_CSHL.c ****         tmp >>= 4u;
2630:Generated_Source\PSoC4/CapSense_CSHL.c **** 
2631:Generated_Source\PSoC4/CapSense_CSHL.c ****         return ((uint16) tmp);
2632:Generated_Source\PSoC4/CapSense_CSHL.c ****     }
2633:Generated_Source\PSoC4/CapSense_CSHL.c **** #endif /* (CapSense_RAW_FILTER_MASK & CapSense_IIR16_FILTER) */
2634:Generated_Source\PSoC4/CapSense_CSHL.c **** 
2635:Generated_Source\PSoC4/CapSense_CSHL.c **** 
2636:Generated_Source\PSoC4/CapSense_CSHL.c **** #if (0u != (CapSense_TOTAL_MATRIX_BUTTONS_COUNT))
2637:Generated_Source\PSoC4/CapSense_CSHL.c **** 
2638:Generated_Source\PSoC4/CapSense_CSHL.c ****     /*******************************************************************************
2639:Generated_Source\PSoC4/CapSense_CSHL.c ****     * Function Name: CapSense_GetMatrixButtonPos
2640:Generated_Source\PSoC4/CapSense_CSHL.c ****     ********************************************************************************
2641:Generated_Source\PSoC4/CapSense_CSHL.c ****     *
ARM GAS  C:\Users\SHOZO\AppData\Local\Temp\cc3BkmVy.s 			page 81


2642:Generated_Source\PSoC4/CapSense_CSHL.c ****     * Summary:
2643:Generated_Source\PSoC4/CapSense_CSHL.c ****     *  Function calculates and returns a touch position (column and row) for the matrix
2644:Generated_Source\PSoC4/CapSense_CSHL.c ****     *  button widget.
2645:Generated_Source\PSoC4/CapSense_CSHL.c ****     *
2646:Generated_Source\PSoC4/CapSense_CSHL.c ****     * Parameters:
2647:Generated_Source\PSoC4/CapSense_CSHL.c ****     *  widget:  widget number;
2648:Generated_Source\PSoC4/CapSense_CSHL.c ****     *  pos:     pointer to an array of two uint8, where touch position will be
2649:Generated_Source\PSoC4/CapSense_CSHL.c ****     *           stored:
2650:Generated_Source\PSoC4/CapSense_CSHL.c ****     *           pos[0] - column position;
2651:Generated_Source\PSoC4/CapSense_CSHL.c ****     *           pos[1] - raw position.
2652:Generated_Source\PSoC4/CapSense_CSHL.c ****     *
2653:Generated_Source\PSoC4/CapSense_CSHL.c ****     * Return:
2654:Generated_Source\PSoC4/CapSense_CSHL.c ****     *  Returns 1 if row and column sensors of matrix button are active, 0 - in other
2655:Generated_Source\PSoC4/CapSense_CSHL.c ****     *  cases.
2656:Generated_Source\PSoC4/CapSense_CSHL.c ****     *
2657:Generated_Source\PSoC4/CapSense_CSHL.c ****     * Global Variables:
2658:Generated_Source\PSoC4/CapSense_CSHL.c ****     *  CapSense_fingerThreshold[ ] - used to store the finger threshold for all widgets.
2659:Generated_Source\PSoC4/CapSense_CSHL.c ****     *  CapSense_sensorSignal[ ] - used to store a difference between the current value of
2660:Generated_Source\PSoC4/CapSense_CSHL.c ****     *  raw data and a previous value of the baseline.
2661:Generated_Source\PSoC4/CapSense_CSHL.c ****     *
2662:Generated_Source\PSoC4/CapSense_CSHL.c ****     * Side Effects:
2663:Generated_Source\PSoC4/CapSense_CSHL.c ****     *  None
2664:Generated_Source\PSoC4/CapSense_CSHL.c ****     *
2665:Generated_Source\PSoC4/CapSense_CSHL.c ****     *******************************************************************************/
2666:Generated_Source\PSoC4/CapSense_CSHL.c ****     uint32 CapSense_GetMatrixButtonPos(uint32 widget, uint8* pos)
2667:Generated_Source\PSoC4/CapSense_CSHL.c ****     {
2668:Generated_Source\PSoC4/CapSense_CSHL.c ****         uint8 i;
2669:Generated_Source\PSoC4/CapSense_CSHL.c ****         uint32 retVal = 0u;
2670:Generated_Source\PSoC4/CapSense_CSHL.c ****         uint16 row_sig_max = 0u;
2671:Generated_Source\PSoC4/CapSense_CSHL.c ****         uint16 col_sig_max = 0u;
2672:Generated_Source\PSoC4/CapSense_CSHL.c ****         uint8 row_ind = 0u;
2673:Generated_Source\PSoC4/CapSense_CSHL.c ****         uint8 col_ind = 0u;
2674:Generated_Source\PSoC4/CapSense_CSHL.c **** 
2675:Generated_Source\PSoC4/CapSense_CSHL.c ****         if (CapSense_CheckIsWidgetActive(widget) == 1u)
2676:Generated_Source\PSoC4/CapSense_CSHL.c ****         {
2677:Generated_Source\PSoC4/CapSense_CSHL.c ****             /* Find row number with maximal signal value */
2678:Generated_Source\PSoC4/CapSense_CSHL.c ****             for(i = CapSense_rawDataIndex[widget]; i < (CapSense_rawDataIndex[widget] + \
2679:Generated_Source\PSoC4/CapSense_CSHL.c ****                  CapSense_numberOfSensors[widget]); i++)
2680:Generated_Source\PSoC4/CapSense_CSHL.c ****             {
2681:Generated_Source\PSoC4/CapSense_CSHL.c ****                 if (CapSense_sensorSignal[i] > col_sig_max)
2682:Generated_Source\PSoC4/CapSense_CSHL.c ****                 {
2683:Generated_Source\PSoC4/CapSense_CSHL.c ****                     col_ind = i;
2684:Generated_Source\PSoC4/CapSense_CSHL.c ****                     col_sig_max = CapSense_sensorSignal[i];
2685:Generated_Source\PSoC4/CapSense_CSHL.c ****                 }
2686:Generated_Source\PSoC4/CapSense_CSHL.c ****             }
2687:Generated_Source\PSoC4/CapSense_CSHL.c **** 
2688:Generated_Source\PSoC4/CapSense_CSHL.c ****             /* Find row number with maximal signal value */
2689:Generated_Source\PSoC4/CapSense_CSHL.c ****             for(i = CapSense_rawDataIndex[widget+1u]; i < (CapSense_rawDataIndex[widget+1u] + \
2690:Generated_Source\PSoC4/CapSense_CSHL.c ****                  CapSense_numberOfSensors[widget+1u]); i++)
2691:Generated_Source\PSoC4/CapSense_CSHL.c ****             {
2692:Generated_Source\PSoC4/CapSense_CSHL.c ****                 if (CapSense_sensorSignal[i] > row_sig_max)
2693:Generated_Source\PSoC4/CapSense_CSHL.c ****                 {
2694:Generated_Source\PSoC4/CapSense_CSHL.c ****                     row_ind = i;
2695:Generated_Source\PSoC4/CapSense_CSHL.c ****                     row_sig_max = CapSense_sensorSignal[i];
2696:Generated_Source\PSoC4/CapSense_CSHL.c ****                 }
2697:Generated_Source\PSoC4/CapSense_CSHL.c ****             }
2698:Generated_Source\PSoC4/CapSense_CSHL.c **** 
ARM GAS  C:\Users\SHOZO\AppData\Local\Temp\cc3BkmVy.s 			page 82


2699:Generated_Source\PSoC4/CapSense_CSHL.c ****             if((col_sig_max >= CapSense_fingerThreshold[widget]) && \
2700:Generated_Source\PSoC4/CapSense_CSHL.c ****                (row_sig_max >= CapSense_fingerThreshold[widget+1u]))
2701:Generated_Source\PSoC4/CapSense_CSHL.c ****             {
2702:Generated_Source\PSoC4/CapSense_CSHL.c ****                 pos[0u] = col_ind - CapSense_rawDataIndex[widget];
2703:Generated_Source\PSoC4/CapSense_CSHL.c ****                 pos[1u] = row_ind - CapSense_rawDataIndex[widget+1u];
2704:Generated_Source\PSoC4/CapSense_CSHL.c ****                 retVal = 1u;
2705:Generated_Source\PSoC4/CapSense_CSHL.c ****             }
2706:Generated_Source\PSoC4/CapSense_CSHL.c ****         }
2707:Generated_Source\PSoC4/CapSense_CSHL.c ****         return (retVal);
2708:Generated_Source\PSoC4/CapSense_CSHL.c ****     }
2709:Generated_Source\PSoC4/CapSense_CSHL.c **** 
2710:Generated_Source\PSoC4/CapSense_CSHL.c **** #endif /* (0u != (CapSense_TOTAL_MATRIX_BUTTONS_COUNT)) */
2711:Generated_Source\PSoC4/CapSense_CSHL.c **** 
2712:Generated_Source\PSoC4/CapSense_CSHL.c **** /*******************************************************************************
2713:Generated_Source\PSoC4/CapSense_CSHL.c **** * Function Name: CapSense_GetWidgetNumber
2714:Generated_Source\PSoC4/CapSense_CSHL.c **** ********************************************************************************
2715:Generated_Source\PSoC4/CapSense_CSHL.c **** *
2716:Generated_Source\PSoC4/CapSense_CSHL.c **** * Summary:
2717:Generated_Source\PSoC4/CapSense_CSHL.c **** *  This API returns the widget number for the sensor.
2718:Generated_Source\PSoC4/CapSense_CSHL.c **** *
2719:Generated_Source\PSoC4/CapSense_CSHL.c **** * Parameters:
2720:Generated_Source\PSoC4/CapSense_CSHL.c **** *  sensor: sensor index. The value of index can be
2721:Generated_Source\PSoC4/CapSense_CSHL.c **** *  from 0 to (CapSense_TOTAL_SENSOR_COUNT-1).
2722:Generated_Source\PSoC4/CapSense_CSHL.c **** *
2723:Generated_Source\PSoC4/CapSense_CSHL.c **** * Return:
2724:Generated_Source\PSoC4/CapSense_CSHL.c **** *  This API returns the widget number for the sensor.
2725:Generated_Source\PSoC4/CapSense_CSHL.c **** *
2726:Generated_Source\PSoC4/CapSense_CSHL.c **** * Global Variables:
2727:Generated_Source\PSoC4/CapSense_CSHL.c **** *  CapSense_widgetNumber[]  - stores widget numbers.
2728:Generated_Source\PSoC4/CapSense_CSHL.c **** *
2729:Generated_Source\PSoC4/CapSense_CSHL.c **** * Side Effects:
2730:Generated_Source\PSoC4/CapSense_CSHL.c **** *  None
2731:Generated_Source\PSoC4/CapSense_CSHL.c **** *
2732:Generated_Source\PSoC4/CapSense_CSHL.c **** *******************************************************************************/
2733:Generated_Source\PSoC4/CapSense_CSHL.c **** uint32 CapSense_GetWidgetNumber(uint32 sensor)
2734:Generated_Source\PSoC4/CapSense_CSHL.c **** {
 1836              		.loc 1 2734 0
 1837              		.cfi_startproc
 1838              		@ args = 0, pretend = 0, frame = 0
 1839              		@ frame_needed = 0, uses_anonymous_args = 0
 1840              		@ link register save eliminated.
 1841              	.LVL206:
2735:Generated_Source\PSoC4/CapSense_CSHL.c ****     return((uint32)CapSense_widgetNumber[sensor]);
 1842              		.loc 1 2735 0
 1843 0000 014B     		ldr	r3, .L147
 1844 0002 185C     		ldrb	r0, [r3, r0]
 1845              	.LVL207:
2736:Generated_Source\PSoC4/CapSense_CSHL.c **** }
 1846              		.loc 1 2736 0
 1847              		@ sp needed
 1848 0004 7047     		bx	lr
 1849              	.L148:
 1850 0006 C046     		.align	2
 1851              	.L147:
 1852 0008 00000000 		.word	CapSense_widgetNumber
 1853              		.cfi_endproc
 1854              	.LFE65:
ARM GAS  C:\Users\SHOZO\AppData\Local\Temp\cc3BkmVy.s 			page 83


 1855              		.size	CapSense_GetWidgetNumber, .-CapSense_GetWidgetNumber
 1856              		.section	.text.CapSense_GetLowBaselineReset,"ax",%progbits
 1857              		.align	2
 1858              		.global	CapSense_GetLowBaselineReset
 1859              		.code	16
 1860              		.thumb_func
 1861              		.type	CapSense_GetLowBaselineReset, %function
 1862              	CapSense_GetLowBaselineReset:
 1863              	.LFB66:
2737:Generated_Source\PSoC4/CapSense_CSHL.c **** 
2738:Generated_Source\PSoC4/CapSense_CSHL.c **** /*******************************************************************************
2739:Generated_Source\PSoC4/CapSense_CSHL.c **** * Function Name: CapSense_GetLowBaselineReset
2740:Generated_Source\PSoC4/CapSense_CSHL.c **** ********************************************************************************
2741:Generated_Source\PSoC4/CapSense_CSHL.c **** *
2742:Generated_Source\PSoC4/CapSense_CSHL.c **** * Summary:
2743:Generated_Source\PSoC4/CapSense_CSHL.c **** *  This API returns the low baseline reset threshold value for the  sensor.
2744:Generated_Source\PSoC4/CapSense_CSHL.c **** *
2745:Generated_Source\PSoC4/CapSense_CSHL.c **** * Parameters:
2746:Generated_Source\PSoC4/CapSense_CSHL.c **** *  sensor: sensor index. The value of index can be
2747:Generated_Source\PSoC4/CapSense_CSHL.c **** *  from 0 to (CapSense_TOTAL_SENSOR_COUNT-1).
2748:Generated_Source\PSoC4/CapSense_CSHL.c **** *
2749:Generated_Source\PSoC4/CapSense_CSHL.c **** * Return:
2750:Generated_Source\PSoC4/CapSense_CSHL.c **** *  low baseline reset threshold value a sensor.
2751:Generated_Source\PSoC4/CapSense_CSHL.c **** *
2752:Generated_Source\PSoC4/CapSense_CSHL.c **** * Global Variables:
2753:Generated_Source\PSoC4/CapSense_CSHL.c **** *  CapSense_lowBaselineReset[]  - stores low baseline reset values.
2754:Generated_Source\PSoC4/CapSense_CSHL.c **** *
2755:Generated_Source\PSoC4/CapSense_CSHL.c **** * Side Effects:
2756:Generated_Source\PSoC4/CapSense_CSHL.c **** *  None
2757:Generated_Source\PSoC4/CapSense_CSHL.c **** *
2758:Generated_Source\PSoC4/CapSense_CSHL.c **** *******************************************************************************/
2759:Generated_Source\PSoC4/CapSense_CSHL.c **** uint8 CapSense_GetLowBaselineReset(uint32 sensor)
2760:Generated_Source\PSoC4/CapSense_CSHL.c **** {
 1864              		.loc 1 2760 0
 1865              		.cfi_startproc
 1866              		@ args = 0, pretend = 0, frame = 0
 1867              		@ frame_needed = 0, uses_anonymous_args = 0
 1868              		@ link register save eliminated.
 1869              	.LVL208:
2761:Generated_Source\PSoC4/CapSense_CSHL.c ****     return(CapSense_lowBaselineReset[sensor]);
 1870              		.loc 1 2761 0
 1871 0000 014B     		ldr	r3, .L150
 1872 0002 1818     		adds	r0, r3, r0
 1873              	.LVL209:
 1874 0004 0079     		ldrb	r0, [r0, #4]
2762:Generated_Source\PSoC4/CapSense_CSHL.c **** }
 1875              		.loc 1 2762 0
 1876              		@ sp needed
 1877 0006 7047     		bx	lr
 1878              	.L151:
 1879              		.align	2
 1880              	.L150:
 1881 0008 00000000 		.word	.LANCHOR1
 1882              		.cfi_endproc
 1883              	.LFE66:
 1884              		.size	CapSense_GetLowBaselineReset, .-CapSense_GetLowBaselineReset
 1885              		.section	.text.CapSense_GetDebounce,"ax",%progbits
ARM GAS  C:\Users\SHOZO\AppData\Local\Temp\cc3BkmVy.s 			page 84


 1886              		.align	2
 1887              		.global	CapSense_GetDebounce
 1888              		.code	16
 1889              		.thumb_func
 1890              		.type	CapSense_GetDebounce, %function
 1891              	CapSense_GetDebounce:
 1892              	.LFB67:
2763:Generated_Source\PSoC4/CapSense_CSHL.c **** 
2764:Generated_Source\PSoC4/CapSense_CSHL.c **** /*******************************************************************************
2765:Generated_Source\PSoC4/CapSense_CSHL.c **** * Function Name: CapSense_GetDebounce
2766:Generated_Source\PSoC4/CapSense_CSHL.c **** ********************************************************************************
2767:Generated_Source\PSoC4/CapSense_CSHL.c **** *
2768:Generated_Source\PSoC4/CapSense_CSHL.c **** * Summary:
2769:Generated_Source\PSoC4/CapSense_CSHL.c **** *  This API returns a debounce value.
2770:Generated_Source\PSoC4/CapSense_CSHL.c **** *
2771:Generated_Source\PSoC4/CapSense_CSHL.c **** * Parameters:
2772:Generated_Source\PSoC4/CapSense_CSHL.c **** *  sensor: sensor index. The value of index can be
2773:Generated_Source\PSoC4/CapSense_CSHL.c **** *  from 0 to (CapSense_TOTAL_SENSOR_COUNT-1).
2774:Generated_Source\PSoC4/CapSense_CSHL.c **** *
2775:Generated_Source\PSoC4/CapSense_CSHL.c **** * Return:
2776:Generated_Source\PSoC4/CapSense_CSHL.c **** *  Debounce value
2777:Generated_Source\PSoC4/CapSense_CSHL.c **** *
2778:Generated_Source\PSoC4/CapSense_CSHL.c **** * Global Variables:
2779:Generated_Source\PSoC4/CapSense_CSHL.c **** *  CapSense_debounce[]  - stores the debounce value.
2780:Generated_Source\PSoC4/CapSense_CSHL.c **** *
2781:Generated_Source\PSoC4/CapSense_CSHL.c **** * Side Effects:
2782:Generated_Source\PSoC4/CapSense_CSHL.c **** *  None
2783:Generated_Source\PSoC4/CapSense_CSHL.c **** *
2784:Generated_Source\PSoC4/CapSense_CSHL.c **** *******************************************************************************/
2785:Generated_Source\PSoC4/CapSense_CSHL.c **** uint8 CapSense_GetDebounce(uint32 widget)
2786:Generated_Source\PSoC4/CapSense_CSHL.c **** {
 1893              		.loc 1 2786 0
 1894              		.cfi_startproc
 1895              		@ args = 0, pretend = 0, frame = 0
 1896              		@ frame_needed = 0, uses_anonymous_args = 0
 1897              		@ link register save eliminated.
 1898              	.LVL210:
2787:Generated_Source\PSoC4/CapSense_CSHL.c ****     return(CapSense_debounce[widget]);
 1899              		.loc 1 2787 0
 1900 0000 014B     		ldr	r3, .L153
 1901 0002 185C     		ldrb	r0, [r3, r0]
 1902              	.LVL211:
2788:Generated_Source\PSoC4/CapSense_CSHL.c **** }
 1903              		.loc 1 2788 0
 1904              		@ sp needed
 1905 0004 7047     		bx	lr
 1906              	.L154:
 1907 0006 C046     		.align	2
 1908              	.L153:
 1909 0008 00000000 		.word	.LANCHOR1
 1910              		.cfi_endproc
 1911              	.LFE67:
 1912              		.size	CapSense_GetDebounce, .-CapSense_GetDebounce
 1913              		.section	.text.CapSense_EnableRawDataFilters,"ax",%progbits
 1914              		.align	2
 1915              		.global	CapSense_EnableRawDataFilters
 1916              		.code	16
ARM GAS  C:\Users\SHOZO\AppData\Local\Temp\cc3BkmVy.s 			page 85


 1917              		.thumb_func
 1918              		.type	CapSense_EnableRawDataFilters, %function
 1919              	CapSense_EnableRawDataFilters:
 1920              	.LFB68:
2789:Generated_Source\PSoC4/CapSense_CSHL.c **** 
2790:Generated_Source\PSoC4/CapSense_CSHL.c **** #if (CapSense_RAW_FILTER_MASK != 0u)
2791:Generated_Source\PSoC4/CapSense_CSHL.c ****     /*******************************************************************************
2792:Generated_Source\PSoC4/CapSense_CSHL.c ****     * Function Name: CapSense_EnableRawDataFilters
2793:Generated_Source\PSoC4/CapSense_CSHL.c ****     ********************************************************************************
2794:Generated_Source\PSoC4/CapSense_CSHL.c ****     *
2795:Generated_Source\PSoC4/CapSense_CSHL.c ****     * Summary:
2796:Generated_Source\PSoC4/CapSense_CSHL.c ****     *  Enables the rawdata filters for the sensor signals.
2797:Generated_Source\PSoC4/CapSense_CSHL.c ****     *
2798:Generated_Source\PSoC4/CapSense_CSHL.c ****     * Parameters:
2799:Generated_Source\PSoC4/CapSense_CSHL.c ****     *  None
2800:Generated_Source\PSoC4/CapSense_CSHL.c ****     *
2801:Generated_Source\PSoC4/CapSense_CSHL.c ****     * Return:
2802:Generated_Source\PSoC4/CapSense_CSHL.c ****     *  None
2803:Generated_Source\PSoC4/CapSense_CSHL.c ****     *
2804:Generated_Source\PSoC4/CapSense_CSHL.c ****     * Global Variables:
2805:Generated_Source\PSoC4/CapSense_CSHL.c ****     *  CapSense_enableRawFilters defines if the filters are enabled or not.
2806:Generated_Source\PSoC4/CapSense_CSHL.c ****     *
2807:Generated_Source\PSoC4/CapSense_CSHL.c ****     * Side Effects:
2808:Generated_Source\PSoC4/CapSense_CSHL.c ****     *  None
2809:Generated_Source\PSoC4/CapSense_CSHL.c ****     *
2810:Generated_Source\PSoC4/CapSense_CSHL.c ****     *******************************************************************************/
2811:Generated_Source\PSoC4/CapSense_CSHL.c ****     void CapSense_EnableRawDataFilters(void)
2812:Generated_Source\PSoC4/CapSense_CSHL.c ****     {
 1921              		.loc 1 2812 0
 1922              		.cfi_startproc
 1923              		@ args = 0, pretend = 0, frame = 0
 1924              		@ frame_needed = 0, uses_anonymous_args = 0
 1925              		@ link register save eliminated.
2813:Generated_Source\PSoC4/CapSense_CSHL.c ****         CapSense_enableRawFilters = CapSense_RAW_FILTERS_ENABLED;
 1926              		.loc 1 2813 0
 1927 0000 0122     		movs	r2, #1
 1928 0002 014B     		ldr	r3, .L156
 1929 0004 1A74     		strb	r2, [r3, #16]
2814:Generated_Source\PSoC4/CapSense_CSHL.c ****     }
 1930              		.loc 1 2814 0
 1931              		@ sp needed
 1932 0006 7047     		bx	lr
 1933              	.L157:
 1934              		.align	2
 1935              	.L156:
 1936 0008 00000000 		.word	.LANCHOR1
 1937              		.cfi_endproc
 1938              	.LFE68:
 1939              		.size	CapSense_EnableRawDataFilters, .-CapSense_EnableRawDataFilters
 1940              		.section	.text.CapSense_DisableRawDataFilters,"ax",%progbits
 1941              		.align	2
 1942              		.global	CapSense_DisableRawDataFilters
 1943              		.code	16
 1944              		.thumb_func
 1945              		.type	CapSense_DisableRawDataFilters, %function
 1946              	CapSense_DisableRawDataFilters:
 1947              	.LFB69:
ARM GAS  C:\Users\SHOZO\AppData\Local\Temp\cc3BkmVy.s 			page 86


2815:Generated_Source\PSoC4/CapSense_CSHL.c **** 
2816:Generated_Source\PSoC4/CapSense_CSHL.c ****     /*******************************************************************************
2817:Generated_Source\PSoC4/CapSense_CSHL.c ****     * Function Name: CapSense_DisableRawDataFilters
2818:Generated_Source\PSoC4/CapSense_CSHL.c ****     ********************************************************************************
2819:Generated_Source\PSoC4/CapSense_CSHL.c ****     *
2820:Generated_Source\PSoC4/CapSense_CSHL.c ****     * Summary:
2821:Generated_Source\PSoC4/CapSense_CSHL.c ****     *  Disables the rawdata filters for the sensor signals.
2822:Generated_Source\PSoC4/CapSense_CSHL.c ****     *
2823:Generated_Source\PSoC4/CapSense_CSHL.c ****     * Parameters:
2824:Generated_Source\PSoC4/CapSense_CSHL.c ****     *  None
2825:Generated_Source\PSoC4/CapSense_CSHL.c ****     *
2826:Generated_Source\PSoC4/CapSense_CSHL.c ****     * Return:
2827:Generated_Source\PSoC4/CapSense_CSHL.c ****     *  None
2828:Generated_Source\PSoC4/CapSense_CSHL.c ****     *
2829:Generated_Source\PSoC4/CapSense_CSHL.c ****     * Global Variables:
2830:Generated_Source\PSoC4/CapSense_CSHL.c ****     *  CapSense_enableRawFilters defines if the filters are enabled or not.
2831:Generated_Source\PSoC4/CapSense_CSHL.c ****     *
2832:Generated_Source\PSoC4/CapSense_CSHL.c ****     * Side Effects:
2833:Generated_Source\PSoC4/CapSense_CSHL.c ****     *  None
2834:Generated_Source\PSoC4/CapSense_CSHL.c ****     *
2835:Generated_Source\PSoC4/CapSense_CSHL.c ****     *******************************************************************************/
2836:Generated_Source\PSoC4/CapSense_CSHL.c ****     void CapSense_DisableRawDataFilters(void)
2837:Generated_Source\PSoC4/CapSense_CSHL.c ****     {
 1948              		.loc 1 2837 0
 1949              		.cfi_startproc
 1950              		@ args = 0, pretend = 0, frame = 0
 1951              		@ frame_needed = 0, uses_anonymous_args = 0
 1952              		@ link register save eliminated.
2838:Generated_Source\PSoC4/CapSense_CSHL.c ****         CapSense_enableRawFilters = CapSense_RAW_FILTERS_DISABLED;
 1953              		.loc 1 2838 0
 1954 0000 0022     		movs	r2, #0
 1955 0002 014B     		ldr	r3, .L159
 1956 0004 1A74     		strb	r2, [r3, #16]
2839:Generated_Source\PSoC4/CapSense_CSHL.c ****     }
 1957              		.loc 1 2839 0
 1958              		@ sp needed
 1959 0006 7047     		bx	lr
 1960              	.L160:
 1961              		.align	2
 1962              	.L159:
 1963 0008 00000000 		.word	.LANCHOR1
 1964              		.cfi_endproc
 1965              	.LFE69:
 1966              		.size	CapSense_DisableRawDataFilters, .-CapSense_DisableRawDataFilters
 1967              		.global	CapSense_numberOfSensors
 1968              		.global	CapSense_rawDataIndex
 1969              		.global	CapSense_debounce
 1970              		.comm	CapSense_hysteresis,1,4
 1971              		.comm	CapSense_negativeNoiseThreshold,1,4
 1972              		.comm	CapSense_noiseThreshold,1,4
 1973              		.comm	CapSense_fingerThreshold,1,4
 1974              		.global	CapSense_enableRawFilters
 1975              		.global	CapSense_lowBaselineReset
 1976              		.comm	CapSense_lowBaselineResetCnt,12,4
 1977              		.global	CapSense_sensorOnMask
 1978              		.global	CapSense_sensorSignal
 1979              		.global	CapSense_sensorBaselineLow
ARM GAS  C:\Users\SHOZO\AppData\Local\Temp\cc3BkmVy.s 			page 87


 1980              		.global	CapSense_sensorBaseline
 1981              		.comm	CapSense_rawFilterData1,24,4
 1982              		.section	.rodata
 1983              		.align	2
 1984              		.type	CapSense_numberOfSensors, %object
 1985              		.size	CapSense_numberOfSensors, 1
 1986              	CapSense_numberOfSensors:
 1987 0000 0C       		.byte	12
 1988 0001 000000   		.space	3
 1989              		.type	CapSense_rawDataIndex, %object
 1990              		.size	CapSense_rawDataIndex, 1
 1991              	CapSense_rawDataIndex:
 1992 0004 00       		.space	1
 1993              		.data
 1994              		.align	2
 1995              		.set	.LANCHOR1,. + 0
 1996              		.type	CapSense_debounce, %object
 1997              		.size	CapSense_debounce, 1
 1998              	CapSense_debounce:
 1999 0000 01       		.byte	1
 2000 0001 000000   		.space	3
 2001              		.type	CapSense_lowBaselineReset, %object
 2002              		.size	CapSense_lowBaselineReset, 12
 2003              	CapSense_lowBaselineReset:
 2004 0004 1E       		.byte	30
 2005 0005 1E       		.byte	30
 2006 0006 1E       		.byte	30
 2007 0007 1E       		.byte	30
 2008 0008 1E       		.byte	30
 2009 0009 1E       		.byte	30
 2010 000a 1E       		.byte	30
 2011 000b 1E       		.byte	30
 2012 000c 1E       		.byte	30
 2013 000d 1E       		.byte	30
 2014 000e 1E       		.byte	30
 2015 000f 1E       		.byte	30
 2016              		.type	CapSense_enableRawFilters, %object
 2017              		.size	CapSense_enableRawFilters, 1
 2018              	CapSense_enableRawFilters:
 2019 0010 01       		.byte	1
 2020 0011 000000   		.space	3
 2021              		.type	CapSense_posFiltersData, %object
 2022              		.size	CapSense_posFiltersData, 3
 2023              	CapSense_posFiltersData:
 2024 0014 01       		.byte	1
 2025 0015 00       		.byte	0
 2026 0016 00       		.byte	0
 2027              		.bss
 2028              		.align	2
 2029              		.set	.LANCHOR0,. + 0
 2030              		.type	CapSense_sensorBaseline, %object
 2031              		.size	CapSense_sensorBaseline, 24
 2032              	CapSense_sensorBaseline:
 2033 0000 00000000 		.space	24
 2033      00000000 
 2033      00000000 
 2033      00000000 
ARM GAS  C:\Users\SHOZO\AppData\Local\Temp\cc3BkmVy.s 			page 88


 2033      00000000 
 2034              		.type	CapSense_sensorBaselineLow, %object
 2035              		.size	CapSense_sensorBaselineLow, 12
 2036              	CapSense_sensorBaselineLow:
 2037 0018 00000000 		.space	12
 2037      00000000 
 2037      00000000 
 2038              		.type	CapSense_sensorSignal, %object
 2039              		.size	CapSense_sensorSignal, 12
 2040              	CapSense_sensorSignal:
 2041 0024 00000000 		.space	12
 2041      00000000 
 2041      00000000 
 2042              		.type	CapSense_debounceCounter.5490, %object
 2043              		.size	CapSense_debounceCounter.5490, 1
 2044              	CapSense_debounceCounter.5490:
 2045 0030 00       		.space	1
 2046 0031 000000   		.space	3
 2047              		.type	CapSense_sensorOnMask, %object
 2048              		.size	CapSense_sensorOnMask, 2
 2049              	CapSense_sensorOnMask:
 2050 0034 0000     		.space	2
 2051 0036 0000     		.space	2
 2052              		.type	CapSense_centroid.5542, %object
 2053              		.size	CapSense_centroid.5542, 3
 2054              	CapSense_centroid.5542:
 2055 0038 000000   		.space	3
 2056              		.text
 2057              	.Letext0:
 2058              		.file 2 "Generated_Source\\PSoC4\\cytypes.h"
 2059              		.file 3 "Generated_Source\\PSoC4\\CapSense_PVT.h"
 2060              		.file 4 "Generated_Source\\PSoC4\\CapSense.h"
 2061              		.section	.debug_info,"",%progbits
 2062              	.Ldebug_info0:
 2063 0000 11110000 		.4byte	0x1111
 2064 0004 0400     		.2byte	0x4
 2065 0006 00000000 		.4byte	.Ldebug_abbrev0
 2066 000a 04       		.byte	0x4
 2067 000b 01       		.uleb128 0x1
 2068 000c 75040000 		.4byte	.LASF153
 2069 0010 0C       		.byte	0xc
 2070 0011 B80A0000 		.4byte	.LASF154
 2071 0015 80020000 		.4byte	.LASF155
 2072 0019 00000000 		.4byte	.Ldebug_ranges0+0
 2073 001d 00000000 		.4byte	0
 2074 0021 00000000 		.4byte	.Ldebug_line0
 2075 0025 02       		.uleb128 0x2
 2076 0026 01       		.byte	0x1
 2077 0027 06       		.byte	0x6
 2078 0028 1E0B0000 		.4byte	.LASF0
 2079 002c 02       		.uleb128 0x2
 2080 002d 01       		.byte	0x1
 2081 002e 08       		.byte	0x8
 2082 002f F4090000 		.4byte	.LASF1
 2083 0033 02       		.uleb128 0x2
 2084 0034 02       		.byte	0x2
 2085 0035 05       		.byte	0x5
ARM GAS  C:\Users\SHOZO\AppData\Local\Temp\cc3BkmVy.s 			page 89


 2086 0036 AF080000 		.4byte	.LASF2
 2087 003a 02       		.uleb128 0x2
 2088 003b 02       		.byte	0x2
 2089 003c 07       		.byte	0x7
 2090 003d 2A0B0000 		.4byte	.LASF3
 2091 0041 02       		.uleb128 0x2
 2092 0042 04       		.byte	0x4
 2093 0043 05       		.byte	0x5
 2094 0044 B9080000 		.4byte	.LASF4
 2095 0048 02       		.uleb128 0x2
 2096 0049 04       		.byte	0x4
 2097 004a 07       		.byte	0x7
 2098 004b 70090000 		.4byte	.LASF5
 2099 004f 02       		.uleb128 0x2
 2100 0050 08       		.byte	0x8
 2101 0051 05       		.byte	0x5
 2102 0052 F4060000 		.4byte	.LASF6
 2103 0056 02       		.uleb128 0x2
 2104 0057 08       		.byte	0x8
 2105 0058 07       		.byte	0x7
 2106 0059 7A030000 		.4byte	.LASF7
 2107 005d 03       		.uleb128 0x3
 2108 005e 04       		.byte	0x4
 2109 005f 05       		.byte	0x5
 2110 0060 696E7400 		.ascii	"int\000"
 2111 0064 02       		.uleb128 0x2
 2112 0065 04       		.byte	0x4
 2113 0066 07       		.byte	0x7
 2114 0067 34010000 		.4byte	.LASF8
 2115 006b 04       		.uleb128 0x4
 2116 006c BA0B0000 		.4byte	.LASF9
 2117 0070 02       		.byte	0x2
 2118 0071 F701     		.2byte	0x1f7
 2119 0073 2C000000 		.4byte	0x2c
 2120 0077 04       		.uleb128 0x4
 2121 0078 7D060000 		.4byte	.LASF10
 2122 007c 02       		.byte	0x2
 2123 007d F801     		.2byte	0x1f8
 2124 007f 3A000000 		.4byte	0x3a
 2125 0083 04       		.uleb128 0x4
 2126 0084 FC070000 		.4byte	.LASF11
 2127 0088 02       		.byte	0x2
 2128 0089 F901     		.2byte	0x1f9
 2129 008b 48000000 		.4byte	0x48
 2130 008f 04       		.uleb128 0x4
 2131 0090 59010000 		.4byte	.LASF12
 2132 0094 02       		.byte	0x2
 2133 0095 FB01     		.2byte	0x1fb
 2134 0097 33000000 		.4byte	0x33
 2135 009b 04       		.uleb128 0x4
 2136 009c 20030000 		.4byte	.LASF13
 2137 00a0 02       		.byte	0x2
 2138 00a1 FC01     		.2byte	0x1fc
 2139 00a3 41000000 		.4byte	0x41
 2140 00a7 02       		.uleb128 0x2
 2141 00a8 04       		.byte	0x4
 2142 00a9 04       		.byte	0x4
ARM GAS  C:\Users\SHOZO\AppData\Local\Temp\cc3BkmVy.s 			page 90


 2143 00aa 1A030000 		.4byte	.LASF14
 2144 00ae 02       		.uleb128 0x2
 2145 00af 08       		.byte	0x8
 2146 00b0 04       		.byte	0x4
 2147 00b1 C00B0000 		.4byte	.LASF15
 2148 00b5 02       		.uleb128 0x2
 2149 00b6 01       		.byte	0x1
 2150 00b7 08       		.byte	0x8
 2151 00b8 46060000 		.4byte	.LASF16
 2152 00bc 02       		.uleb128 0x2
 2153 00bd 04       		.byte	0x4
 2154 00be 07       		.byte	0x7
 2155 00bf 67090000 		.4byte	.LASF17
 2156 00c3 02       		.uleb128 0x2
 2157 00c4 08       		.byte	0x8
 2158 00c5 04       		.byte	0x4
 2159 00c6 63080000 		.4byte	.LASF18
 2160 00ca 05       		.uleb128 0x5
 2161 00cb 5C       		.byte	0x5c
 2162 00cc 03       		.byte	0x3
 2163 00cd 2F       		.byte	0x2f
 2164 00ce E7010000 		.4byte	0x1e7
 2165 00d2 06       		.uleb128 0x6
 2166 00d3 89060000 		.4byte	.LASF19
 2167 00d7 03       		.byte	0x3
 2168 00d8 31       		.byte	0x31
 2169 00d9 E7010000 		.4byte	0x1e7
 2170 00dd 00       		.byte	0
 2171 00de 06       		.uleb128 0x6
 2172 00df A0080000 		.4byte	.LASF20
 2173 00e3 03       		.byte	0x3
 2174 00e4 32       		.byte	0x32
 2175 00e5 E7010000 		.4byte	0x1e7
 2176 00e9 04       		.byte	0x4
 2177 00ea 06       		.uleb128 0x6
 2178 00eb 7E0A0000 		.4byte	.LASF21
 2179 00ef 03       		.byte	0x3
 2180 00f0 33       		.byte	0x33
 2181 00f1 E7010000 		.4byte	0x1e7
 2182 00f5 08       		.byte	0x8
 2183 00f6 06       		.uleb128 0x6
 2184 00f7 E7090000 		.4byte	.LASF22
 2185 00fb 03       		.byte	0x3
 2186 00fc 34       		.byte	0x34
 2187 00fd E7010000 		.4byte	0x1e7
 2188 0101 0C       		.byte	0xc
 2189 0102 06       		.uleb128 0x6
 2190 0103 140B0000 		.4byte	.LASF23
 2191 0107 03       		.byte	0x3
 2192 0108 35       		.byte	0x35
 2193 0109 E7010000 		.4byte	0x1e7
 2194 010d 10       		.byte	0x10
 2195 010e 06       		.uleb128 0x6
 2196 010f E8080000 		.4byte	.LASF24
 2197 0113 03       		.byte	0x3
 2198 0114 36       		.byte	0x36
 2199 0115 ED010000 		.4byte	0x1ed
ARM GAS  C:\Users\SHOZO\AppData\Local\Temp\cc3BkmVy.s 			page 91


 2200 0119 14       		.byte	0x14
 2201 011a 06       		.uleb128 0x6
 2202 011b 2C030000 		.4byte	.LASF25
 2203 011f 03       		.byte	0x3
 2204 0120 37       		.byte	0x37
 2205 0121 F8010000 		.4byte	0x1f8
 2206 0125 18       		.byte	0x18
 2207 0126 06       		.uleb128 0x6
 2208 0127 29050000 		.4byte	.LASF26
 2209 012b 03       		.byte	0x3
 2210 012c 38       		.byte	0x38
 2211 012d E7010000 		.4byte	0x1e7
 2212 0131 1C       		.byte	0x1c
 2213 0132 06       		.uleb128 0x6
 2214 0133 65030000 		.4byte	.LASF27
 2215 0137 03       		.byte	0x3
 2216 0138 39       		.byte	0x39
 2217 0139 E7010000 		.4byte	0x1e7
 2218 013d 20       		.byte	0x20
 2219 013e 06       		.uleb128 0x6
 2220 013f A8010000 		.4byte	.LASF28
 2221 0143 03       		.byte	0x3
 2222 0144 3A       		.byte	0x3a
 2223 0145 E7010000 		.4byte	0x1e7
 2224 0149 24       		.byte	0x24
 2225 014a 06       		.uleb128 0x6
 2226 014b 9C070000 		.4byte	.LASF29
 2227 014f 03       		.byte	0x3
 2228 0150 3B       		.byte	0x3b
 2229 0151 FE010000 		.4byte	0x1fe
 2230 0155 28       		.byte	0x28
 2231 0156 06       		.uleb128 0x6
 2232 0157 5F010000 		.4byte	.LASF30
 2233 015b 03       		.byte	0x3
 2234 015c 3C       		.byte	0x3c
 2235 015d FE010000 		.4byte	0x1fe
 2236 0161 2C       		.byte	0x2c
 2237 0162 06       		.uleb128 0x6
 2238 0163 9A090000 		.4byte	.LASF31
 2239 0167 03       		.byte	0x3
 2240 0168 3D       		.byte	0x3d
 2241 0169 FE010000 		.4byte	0x1fe
 2242 016d 30       		.byte	0x30
 2243 016e 06       		.uleb128 0x6
 2244 016f 3D090000 		.4byte	.LASF32
 2245 0173 03       		.byte	0x3
 2246 0174 3E       		.byte	0x3e
 2247 0175 E7010000 		.4byte	0x1e7
 2248 0179 34       		.byte	0x34
 2249 017a 06       		.uleb128 0x6
 2250 017b 34000000 		.4byte	.LASF33
 2251 017f 03       		.byte	0x3
 2252 0180 3F       		.byte	0x3f
 2253 0181 E7010000 		.4byte	0x1e7
 2254 0185 38       		.byte	0x38
 2255 0186 06       		.uleb128 0x6
 2256 0187 6E060000 		.4byte	.LASF34
ARM GAS  C:\Users\SHOZO\AppData\Local\Temp\cc3BkmVy.s 			page 92


 2257 018b 03       		.byte	0x3
 2258 018c 40       		.byte	0x40
 2259 018d ED010000 		.4byte	0x1ed
 2260 0191 3C       		.byte	0x3c
 2261 0192 06       		.uleb128 0x6
 2262 0193 1D020000 		.4byte	.LASF35
 2263 0197 03       		.byte	0x3
 2264 0198 41       		.byte	0x41
 2265 0199 ED010000 		.4byte	0x1ed
 2266 019d 40       		.byte	0x40
 2267 019e 06       		.uleb128 0x6
 2268 019f 81000000 		.4byte	.LASF36
 2269 01a3 03       		.byte	0x3
 2270 01a4 42       		.byte	0x42
 2271 01a5 ED010000 		.4byte	0x1ed
 2272 01a9 44       		.byte	0x44
 2273 01aa 06       		.uleb128 0x6
 2274 01ab 4C070000 		.4byte	.LASF37
 2275 01af 03       		.byte	0x3
 2276 01b0 43       		.byte	0x43
 2277 01b1 13020000 		.4byte	0x213
 2278 01b5 48       		.byte	0x48
 2279 01b6 06       		.uleb128 0x6
 2280 01b7 24070000 		.4byte	.LASF38
 2281 01bb 03       		.byte	0x3
 2282 01bc 44       		.byte	0x44
 2283 01bd 24020000 		.4byte	0x224
 2284 01c1 4C       		.byte	0x4c
 2285 01c2 06       		.uleb128 0x6
 2286 01c3 3F050000 		.4byte	.LASF39
 2287 01c7 03       		.byte	0x3
 2288 01c8 45       		.byte	0x45
 2289 01c9 13020000 		.4byte	0x213
 2290 01cd 50       		.byte	0x50
 2291 01ce 06       		.uleb128 0x6
 2292 01cf 91000000 		.4byte	.LASF40
 2293 01d3 03       		.byte	0x3
 2294 01d4 46       		.byte	0x46
 2295 01d5 3E020000 		.4byte	0x23e
 2296 01d9 54       		.byte	0x54
 2297 01da 06       		.uleb128 0x6
 2298 01db 5B0B0000 		.4byte	.LASF41
 2299 01df 03       		.byte	0x3
 2300 01e0 47       		.byte	0x47
 2301 01e1 59020000 		.4byte	0x259
 2302 01e5 58       		.byte	0x58
 2303 01e6 00       		.byte	0
 2304 01e7 07       		.uleb128 0x7
 2305 01e8 04       		.byte	0x4
 2306 01e9 6B000000 		.4byte	0x6b
 2307 01ed 07       		.uleb128 0x7
 2308 01ee 04       		.byte	0x4
 2309 01ef F3010000 		.4byte	0x1f3
 2310 01f3 08       		.uleb128 0x8
 2311 01f4 6B000000 		.4byte	0x6b
 2312 01f8 07       		.uleb128 0x7
 2313 01f9 04       		.byte	0x4
ARM GAS  C:\Users\SHOZO\AppData\Local\Temp\cc3BkmVy.s 			page 93


 2314 01fa 83000000 		.4byte	0x83
 2315 01fe 07       		.uleb128 0x7
 2316 01ff 04       		.byte	0x4
 2317 0200 77000000 		.4byte	0x77
 2318 0204 09       		.uleb128 0x9
 2319 0205 77000000 		.4byte	0x77
 2320 0209 13020000 		.4byte	0x213
 2321 020d 0A       		.uleb128 0xa
 2322 020e 83000000 		.4byte	0x83
 2323 0212 00       		.byte	0
 2324 0213 07       		.uleb128 0x7
 2325 0214 04       		.byte	0x4
 2326 0215 04020000 		.4byte	0x204
 2327 0219 0B       		.uleb128 0xb
 2328 021a 24020000 		.4byte	0x224
 2329 021e 0A       		.uleb128 0xa
 2330 021f 83000000 		.4byte	0x83
 2331 0223 00       		.byte	0
 2332 0224 07       		.uleb128 0x7
 2333 0225 04       		.byte	0x4
 2334 0226 19020000 		.4byte	0x219
 2335 022a 09       		.uleb128 0x9
 2336 022b 83000000 		.4byte	0x83
 2337 022f 3E020000 		.4byte	0x23e
 2338 0233 0A       		.uleb128 0xa
 2339 0234 ED010000 		.4byte	0x1ed
 2340 0238 0A       		.uleb128 0xa
 2341 0239 83000000 		.4byte	0x83
 2342 023d 00       		.byte	0
 2343 023e 07       		.uleb128 0x7
 2344 023f 04       		.byte	0x4
 2345 0240 2A020000 		.4byte	0x22a
 2346 0244 0B       		.uleb128 0xb
 2347 0245 59020000 		.4byte	0x259
 2348 0249 0A       		.uleb128 0xa
 2349 024a E7010000 		.4byte	0x1e7
 2350 024e 0A       		.uleb128 0xa
 2351 024f 83000000 		.4byte	0x83
 2352 0253 0A       		.uleb128 0xa
 2353 0254 83000000 		.4byte	0x83
 2354 0258 00       		.byte	0
 2355 0259 07       		.uleb128 0x7
 2356 025a 04       		.byte	0x4
 2357 025b 44020000 		.4byte	0x244
 2358 025f 0C       		.uleb128 0xc
 2359 0260 0D010000 		.4byte	.LASF42
 2360 0264 03       		.byte	0x3
 2361 0265 48       		.byte	0x48
 2362 0266 CA000000 		.4byte	0xca
 2363 026a 05       		.uleb128 0x5
 2364 026b 0C       		.byte	0xc
 2365 026c 03       		.byte	0x3
 2366 026d 4A       		.byte	0x4a
 2367 026e BB020000 		.4byte	0x2bb
 2368 0272 06       		.uleb128 0x6
 2369 0273 E9050000 		.4byte	.LASF43
 2370 0277 03       		.byte	0x3
ARM GAS  C:\Users\SHOZO\AppData\Local\Temp\cc3BkmVy.s 			page 94


 2371 0278 4C       		.byte	0x4c
 2372 0279 6B000000 		.4byte	0x6b
 2373 027d 00       		.byte	0
 2374 027e 06       		.uleb128 0x6
 2375 027f 2A020000 		.4byte	.LASF44
 2376 0283 03       		.byte	0x3
 2377 0284 4D       		.byte	0x4d
 2378 0285 6B000000 		.4byte	0x6b
 2379 0289 01       		.byte	0x1
 2380 028a 06       		.uleb128 0x6
 2381 028b 41010000 		.4byte	.LASF45
 2382 028f 03       		.byte	0x3
 2383 0290 4E       		.byte	0x4e
 2384 0291 6B000000 		.4byte	0x6b
 2385 0295 02       		.byte	0x2
 2386 0296 06       		.uleb128 0x6
 2387 0297 20060000 		.4byte	.LASF46
 2388 029b 03       		.byte	0x3
 2389 029c 4F       		.byte	0x4f
 2390 029d 77000000 		.4byte	0x77
 2391 02a1 04       		.byte	0x4
 2392 02a2 06       		.uleb128 0x6
 2393 02a3 7A080000 		.4byte	.LASF47
 2394 02a7 03       		.byte	0x3
 2395 02a8 50       		.byte	0x50
 2396 02a9 77000000 		.4byte	0x77
 2397 02ad 06       		.byte	0x6
 2398 02ae 06       		.uleb128 0x6
 2399 02af 82090000 		.4byte	.LASF48
 2400 02b3 03       		.byte	0x3
 2401 02b4 51       		.byte	0x51
 2402 02b5 BB020000 		.4byte	0x2bb
 2403 02b9 08       		.byte	0x8
 2404 02ba 00       		.byte	0
 2405 02bb 07       		.uleb128 0x7
 2406 02bc 04       		.byte	0x4
 2407 02bd C1020000 		.4byte	0x2c1
 2408 02c1 08       		.uleb128 0x8
 2409 02c2 5F020000 		.4byte	0x25f
 2410 02c6 0C       		.uleb128 0xc
 2411 02c7 E3030000 		.4byte	.LASF49
 2412 02cb 03       		.byte	0x3
 2413 02cc 52       		.byte	0x52
 2414 02cd 6A020000 		.4byte	0x26a
 2415 02d1 0D       		.uleb128 0xd
 2416 02d2 74070000 		.4byte	.LASF50
 2417 02d6 01       		.byte	0x1
 2418 02d7 8E       		.byte	0x8e
 2419 02d8 00000000 		.4byte	.LFB32
 2420 02dc 28000000 		.4byte	.LFE32-.LFB32
 2421 02e0 01       		.uleb128 0x1
 2422 02e1 9C       		.byte	0x9c
 2423 02e2 F6020000 		.4byte	0x2f6
 2424 02e6 0E       		.uleb128 0xe
 2425 02e7 19060000 		.4byte	.LASF52
 2426 02eb 01       		.byte	0x1
 2427 02ec 8E       		.byte	0x8e
ARM GAS  C:\Users\SHOZO\AppData\Local\Temp\cc3BkmVy.s 			page 95


 2428 02ed 83000000 		.4byte	0x83
 2429 02f1 00000000 		.4byte	.LLST0
 2430 02f5 00       		.byte	0
 2431 02f6 0D       		.uleb128 0xd
 2432 02f7 CA010000 		.4byte	.LASF51
 2433 02fb 01       		.byte	0x1
 2434 02fc D9       		.byte	0xd9
 2435 02fd 00000000 		.4byte	.LFB33
 2436 0301 18000000 		.4byte	.LFE33-.LFB33
 2437 0305 01       		.uleb128 0x1
 2438 0306 9C       		.byte	0x9c
 2439 0307 48030000 		.4byte	0x348
 2440 030b 0E       		.uleb128 0xe
 2441 030c 19060000 		.4byte	.LASF52
 2442 0310 01       		.byte	0x1
 2443 0311 D9       		.byte	0xd9
 2444 0312 83000000 		.4byte	0x83
 2445 0316 21000000 		.4byte	.LLST1
 2446 031a 0F       		.uleb128 0xf
 2447 031b 08000000 		.4byte	.LVL3
 2448 031f C7100000 		.4byte	0x10c7
 2449 0323 2E030000 		.4byte	0x32e
 2450 0327 10       		.uleb128 0x10
 2451 0328 01       		.uleb128 0x1
 2452 0329 50       		.byte	0x50
 2453 032a 02       		.uleb128 0x2
 2454 032b 74       		.byte	0x74
 2455 032c 00       		.sleb128 0
 2456 032d 00       		.byte	0
 2457 032e 11       		.uleb128 0x11
 2458 032f 0C000000 		.4byte	.LVL4
 2459 0333 D2100000 		.4byte	0x10d2
 2460 0337 12       		.uleb128 0x12
 2461 0338 16000000 		.4byte	.LVL5
 2462 033c D1020000 		.4byte	0x2d1
 2463 0340 10       		.uleb128 0x10
 2464 0341 01       		.uleb128 0x1
 2465 0342 50       		.byte	0x50
 2466 0343 02       		.uleb128 0x2
 2467 0344 74       		.byte	0x74
 2468 0345 00       		.sleb128 0
 2469 0346 00       		.byte	0
 2470 0347 00       		.byte	0
 2471 0348 0D       		.uleb128 0xd
 2472 0349 280A0000 		.4byte	.LASF53
 2473 034d 01       		.byte	0x1
 2474 034e FE       		.byte	0xfe
 2475 034f 00000000 		.4byte	.LFB34
 2476 0353 14000000 		.4byte	.LFE34-.LFB34
 2477 0357 01       		.uleb128 0x1
 2478 0358 9C       		.byte	0x9c
 2479 0359 7C030000 		.4byte	0x37c
 2480 035d 13       		.uleb128 0x13
 2481 035e 6900     		.ascii	"i\000"
 2482 0360 01       		.byte	0x1
 2483 0361 0001     		.2byte	0x100
 2484 0363 83000000 		.4byte	0x83
ARM GAS  C:\Users\SHOZO\AppData\Local\Temp\cc3BkmVy.s 			page 96


 2485 0367 4D000000 		.4byte	.LLST2
 2486 036b 12       		.uleb128 0x12
 2487 036c 0C000000 		.4byte	.LVL9
 2488 0370 F6020000 		.4byte	0x2f6
 2489 0374 10       		.uleb128 0x10
 2490 0375 01       		.uleb128 0x1
 2491 0376 50       		.byte	0x50
 2492 0377 02       		.uleb128 0x2
 2493 0378 74       		.byte	0x74
 2494 0379 00       		.sleb128 0
 2495 037a 00       		.byte	0
 2496 037b 00       		.byte	0
 2497 037c 14       		.uleb128 0x14
 2498 037d 6C010000 		.4byte	.LASF54
 2499 0381 01       		.byte	0x1
 2500 0382 2101     		.2byte	0x121
 2501 0384 00000000 		.4byte	.LFB35
 2502 0388 30000000 		.4byte	.LFE35-.LFB35
 2503 038c 01       		.uleb128 0x1
 2504 038d 9C       		.byte	0x9c
 2505 038e E7030000 		.4byte	0x3e7
 2506 0392 13       		.uleb128 0x13
 2507 0393 6900     		.ascii	"i\000"
 2508 0395 01       		.byte	0x1
 2509 0396 2301     		.2byte	0x123
 2510 0398 83000000 		.4byte	0x83
 2511 039c 6C000000 		.4byte	.LLST3
 2512 03a0 15       		.uleb128 0x15
 2513 03a1 F0000000 		.4byte	.LASF55
 2514 03a5 01       		.byte	0x1
 2515 03a6 2401     		.2byte	0x124
 2516 03a8 83000000 		.4byte	0x83
 2517 03ac 7F000000 		.4byte	.LLST4
 2518 03b0 11       		.uleb128 0x11
 2519 03b1 06000000 		.4byte	.LVL12
 2520 03b5 DD100000 		.4byte	0x10dd
 2521 03b9 11       		.uleb128 0x11
 2522 03ba 0A000000 		.4byte	.LVL13
 2523 03be D2100000 		.4byte	0x10d2
 2524 03c2 0F       		.uleb128 0xf
 2525 03c3 1A000000 		.4byte	.LVL15
 2526 03c7 E8100000 		.4byte	0x10e8
 2527 03cb D6030000 		.4byte	0x3d6
 2528 03cf 10       		.uleb128 0x10
 2529 03d0 01       		.uleb128 0x1
 2530 03d1 51       		.byte	0x51
 2531 03d2 02       		.uleb128 0x2
 2532 03d3 74       		.byte	0x74
 2533 03d4 00       		.sleb128 0
 2534 03d5 00       		.byte	0
 2535 03d6 12       		.uleb128 0x12
 2536 03d7 24000000 		.4byte	.LVL17
 2537 03db D1020000 		.4byte	0x2d1
 2538 03df 10       		.uleb128 0x10
 2539 03e0 01       		.uleb128 0x1
 2540 03e1 50       		.byte	0x50
 2541 03e2 02       		.uleb128 0x2
ARM GAS  C:\Users\SHOZO\AppData\Local\Temp\cc3BkmVy.s 			page 97


 2542 03e3 74       		.byte	0x74
 2543 03e4 00       		.sleb128 0
 2544 03e5 00       		.byte	0
 2545 03e6 00       		.byte	0
 2546 03e7 16       		.uleb128 0x16
 2547 03e8 480A0000 		.4byte	.LASF58
 2548 03ec 01       		.byte	0x1
 2549 03ed B602     		.2byte	0x2b6
 2550 03ef 77000000 		.4byte	0x77
 2551 03f3 00000000 		.4byte	.LFB40
 2552 03f7 0C000000 		.4byte	.LFE40-.LFB40
 2553 03fb 01       		.uleb128 0x1
 2554 03fc 9C       		.byte	0x9c
 2555 03fd 12040000 		.4byte	0x412
 2556 0401 17       		.uleb128 0x17
 2557 0402 19060000 		.4byte	.LASF52
 2558 0406 01       		.byte	0x1
 2559 0407 B602     		.2byte	0x2b6
 2560 0409 83000000 		.4byte	0x83
 2561 040d 92000000 		.4byte	.LLST5
 2562 0411 00       		.byte	0
 2563 0412 14       		.uleb128 0x14
 2564 0413 04020000 		.4byte	.LASF56
 2565 0417 01       		.byte	0x1
 2566 0418 D102     		.2byte	0x2d1
 2567 041a 00000000 		.4byte	.LFB41
 2568 041e 0C000000 		.4byte	.LFE41-.LFB41
 2569 0422 01       		.uleb128 0x1
 2570 0423 9C       		.byte	0x9c
 2571 0424 47040000 		.4byte	0x447
 2572 0428 17       		.uleb128 0x17
 2573 0429 19060000 		.4byte	.LASF52
 2574 042d 01       		.byte	0x1
 2575 042e D102     		.2byte	0x2d1
 2576 0430 83000000 		.4byte	0x83
 2577 0434 B3000000 		.4byte	.LLST6
 2578 0438 18       		.uleb128 0x18
 2579 0439 84060000 		.4byte	.LASF57
 2580 043d 01       		.byte	0x1
 2581 043e D102     		.2byte	0x2d1
 2582 0440 77000000 		.4byte	0x77
 2583 0444 01       		.uleb128 0x1
 2584 0445 51       		.byte	0x51
 2585 0446 00       		.byte	0
 2586 0447 16       		.uleb128 0x16
 2587 0448 03050000 		.4byte	.LASF59
 2588 044c 01       		.byte	0x1
 2589 044d EC02     		.2byte	0x2ec
 2590 044f 6B000000 		.4byte	0x6b
 2591 0453 00000000 		.4byte	.LFB42
 2592 0457 10000000 		.4byte	.LFE42-.LFB42
 2593 045b 01       		.uleb128 0x1
 2594 045c 9C       		.byte	0x9c
 2595 045d 72040000 		.4byte	0x472
 2596 0461 17       		.uleb128 0x17
 2597 0462 19060000 		.4byte	.LASF52
 2598 0466 01       		.byte	0x1
ARM GAS  C:\Users\SHOZO\AppData\Local\Temp\cc3BkmVy.s 			page 98


 2599 0467 EC02     		.2byte	0x2ec
 2600 0469 83000000 		.4byte	0x83
 2601 046d D4000000 		.4byte	.LLST7
 2602 0471 00       		.byte	0
 2603 0472 14       		.uleb128 0x14
 2604 0473 3A020000 		.4byte	.LASF60
 2605 0477 01       		.byte	0x1
 2606 0478 0703     		.2byte	0x307
 2607 047a 00000000 		.4byte	.LFB43
 2608 047e 10000000 		.4byte	.LFE43-.LFB43
 2609 0482 01       		.uleb128 0x1
 2610 0483 9C       		.byte	0x9c
 2611 0484 A7040000 		.4byte	0x4a7
 2612 0488 17       		.uleb128 0x17
 2613 0489 19060000 		.4byte	.LASF52
 2614 048d 01       		.byte	0x1
 2615 048e 0703     		.2byte	0x307
 2616 0490 83000000 		.4byte	0x83
 2617 0494 F5000000 		.4byte	.LLST8
 2618 0498 18       		.uleb128 0x18
 2619 0499 52040000 		.4byte	.LASF61
 2620 049d 01       		.byte	0x1
 2621 049e 0703     		.2byte	0x307
 2622 04a0 6B000000 		.4byte	0x6b
 2623 04a4 01       		.uleb128 0x1
 2624 04a5 51       		.byte	0x51
 2625 04a6 00       		.byte	0
 2626 04a7 16       		.uleb128 0x16
 2627 04a8 3D080000 		.4byte	.LASF62
 2628 04ac 01       		.byte	0x1
 2629 04ad 2203     		.2byte	0x322
 2630 04af 6B000000 		.4byte	0x6b
 2631 04b3 00000000 		.4byte	.LFB44
 2632 04b7 0C000000 		.4byte	.LFE44-.LFB44
 2633 04bb 01       		.uleb128 0x1
 2634 04bc 9C       		.byte	0x9c
 2635 04bd D2040000 		.4byte	0x4d2
 2636 04c1 17       		.uleb128 0x17
 2637 04c2 AB030000 		.4byte	.LASF63
 2638 04c6 01       		.byte	0x1
 2639 04c7 2203     		.2byte	0x322
 2640 04c9 83000000 		.4byte	0x83
 2641 04cd 16010000 		.4byte	.LLST9
 2642 04d1 00       		.byte	0
 2643 04d2 16       		.uleb128 0x16
 2644 04d3 4A030000 		.4byte	.LASF64
 2645 04d7 01       		.byte	0x1
 2646 04d8 3D03     		.2byte	0x33d
 2647 04da 6B000000 		.4byte	0x6b
 2648 04de 00000000 		.4byte	.LFB45
 2649 04e2 0C000000 		.4byte	.LFE45-.LFB45
 2650 04e6 01       		.uleb128 0x1
 2651 04e7 9C       		.byte	0x9c
 2652 04e8 FD040000 		.4byte	0x4fd
 2653 04ec 17       		.uleb128 0x17
 2654 04ed AB030000 		.4byte	.LASF63
 2655 04f1 01       		.byte	0x1
ARM GAS  C:\Users\SHOZO\AppData\Local\Temp\cc3BkmVy.s 			page 99


 2656 04f2 3D03     		.2byte	0x33d
 2657 04f4 83000000 		.4byte	0x83
 2658 04f8 37010000 		.4byte	.LLST10
 2659 04fc 00       		.byte	0
 2660 04fd 16       		.uleb128 0x16
 2661 04fe 58040000 		.4byte	.LASF65
 2662 0502 01       		.byte	0x1
 2663 0503 5903     		.2byte	0x359
 2664 0505 6B000000 		.4byte	0x6b
 2665 0509 00000000 		.4byte	.LFB46
 2666 050d 0C000000 		.4byte	.LFE46-.LFB46
 2667 0511 01       		.uleb128 0x1
 2668 0512 9C       		.byte	0x9c
 2669 0513 28050000 		.4byte	0x528
 2670 0517 17       		.uleb128 0x17
 2671 0518 AB030000 		.4byte	.LASF63
 2672 051c 01       		.byte	0x1
 2673 051d 5903     		.2byte	0x359
 2674 051f 83000000 		.4byte	0x83
 2675 0523 58010000 		.4byte	.LLST11
 2676 0527 00       		.byte	0
 2677 0528 16       		.uleb128 0x16
 2678 0529 4B060000 		.4byte	.LASF66
 2679 052d 01       		.byte	0x1
 2680 052e 7503     		.2byte	0x375
 2681 0530 6B000000 		.4byte	0x6b
 2682 0534 00000000 		.4byte	.LFB47
 2683 0538 0C000000 		.4byte	.LFE47-.LFB47
 2684 053c 01       		.uleb128 0x1
 2685 053d 9C       		.byte	0x9c
 2686 053e 53050000 		.4byte	0x553
 2687 0542 17       		.uleb128 0x17
 2688 0543 AB030000 		.4byte	.LASF63
 2689 0547 01       		.byte	0x1
 2690 0548 7503     		.2byte	0x375
 2691 054a 83000000 		.4byte	0x83
 2692 054e 79010000 		.4byte	.LLST12
 2693 0552 00       		.byte	0
 2694 0553 14       		.uleb128 0x14
 2695 0554 17040000 		.4byte	.LASF67
 2696 0558 01       		.byte	0x1
 2697 0559 9603     		.2byte	0x396
 2698 055b 00000000 		.4byte	.LFB48
 2699 055f 0C000000 		.4byte	.LFE48-.LFB48
 2700 0563 01       		.uleb128 0x1
 2701 0564 9C       		.byte	0x9c
 2702 0565 86050000 		.4byte	0x586
 2703 0569 18       		.uleb128 0x18
 2704 056a AB030000 		.4byte	.LASF63
 2705 056e 01       		.byte	0x1
 2706 056f 9603     		.2byte	0x396
 2707 0571 83000000 		.4byte	0x83
 2708 0575 01       		.uleb128 0x1
 2709 0576 50       		.byte	0x50
 2710 0577 18       		.uleb128 0x18
 2711 0578 52040000 		.4byte	.LASF61
 2712 057c 01       		.byte	0x1
ARM GAS  C:\Users\SHOZO\AppData\Local\Temp\cc3BkmVy.s 			page 100


 2713 057d 9603     		.2byte	0x396
 2714 057f 6B000000 		.4byte	0x6b
 2715 0583 01       		.uleb128 0x1
 2716 0584 51       		.byte	0x51
 2717 0585 00       		.byte	0
 2718 0586 14       		.uleb128 0x14
 2719 0587 CD020000 		.4byte	.LASF68
 2720 058b 01       		.byte	0x1
 2721 058c B203     		.2byte	0x3b2
 2722 058e 00000000 		.4byte	.LFB49
 2723 0592 0C000000 		.4byte	.LFE49-.LFB49
 2724 0596 01       		.uleb128 0x1
 2725 0597 9C       		.byte	0x9c
 2726 0598 B9050000 		.4byte	0x5b9
 2727 059c 18       		.uleb128 0x18
 2728 059d AB030000 		.4byte	.LASF63
 2729 05a1 01       		.byte	0x1
 2730 05a2 B203     		.2byte	0x3b2
 2731 05a4 83000000 		.4byte	0x83
 2732 05a8 01       		.uleb128 0x1
 2733 05a9 50       		.byte	0x50
 2734 05aa 18       		.uleb128 0x18
 2735 05ab 52040000 		.4byte	.LASF61
 2736 05af 01       		.byte	0x1
 2737 05b0 B203     		.2byte	0x3b2
 2738 05b2 6B000000 		.4byte	0x6b
 2739 05b6 01       		.uleb128 0x1
 2740 05b7 51       		.byte	0x51
 2741 05b8 00       		.byte	0
 2742 05b9 14       		.uleb128 0x14
 2743 05ba 20080000 		.4byte	.LASF69
 2744 05be 01       		.byte	0x1
 2745 05bf CE03     		.2byte	0x3ce
 2746 05c1 00000000 		.4byte	.LFB50
 2747 05c5 0C000000 		.4byte	.LFE50-.LFB50
 2748 05c9 01       		.uleb128 0x1
 2749 05ca 9C       		.byte	0x9c
 2750 05cb EC050000 		.4byte	0x5ec
 2751 05cf 18       		.uleb128 0x18
 2752 05d0 AB030000 		.4byte	.LASF63
 2753 05d4 01       		.byte	0x1
 2754 05d5 CE03     		.2byte	0x3ce
 2755 05d7 83000000 		.4byte	0x83
 2756 05db 01       		.uleb128 0x1
 2757 05dc 50       		.byte	0x50
 2758 05dd 18       		.uleb128 0x18
 2759 05de 52040000 		.4byte	.LASF61
 2760 05e2 01       		.byte	0x1
 2761 05e3 CE03     		.2byte	0x3ce
 2762 05e5 6B000000 		.4byte	0x6b
 2763 05e9 01       		.uleb128 0x1
 2764 05ea 51       		.byte	0x51
 2765 05eb 00       		.byte	0
 2766 05ec 14       		.uleb128 0x14
 2767 05ed D9070000 		.4byte	.LASF70
 2768 05f1 01       		.byte	0x1
 2769 05f2 EB03     		.2byte	0x3eb
ARM GAS  C:\Users\SHOZO\AppData\Local\Temp\cc3BkmVy.s 			page 101


 2770 05f4 00000000 		.4byte	.LFB51
 2771 05f8 0C000000 		.4byte	.LFE51-.LFB51
 2772 05fc 01       		.uleb128 0x1
 2773 05fd 9C       		.byte	0x9c
 2774 05fe 1F060000 		.4byte	0x61f
 2775 0602 18       		.uleb128 0x18
 2776 0603 AB030000 		.4byte	.LASF63
 2777 0607 01       		.byte	0x1
 2778 0608 EB03     		.2byte	0x3eb
 2779 060a 83000000 		.4byte	0x83
 2780 060e 01       		.uleb128 0x1
 2781 060f 50       		.byte	0x50
 2782 0610 18       		.uleb128 0x18
 2783 0611 52040000 		.4byte	.LASF61
 2784 0615 01       		.byte	0x1
 2785 0616 EB03     		.2byte	0x3eb
 2786 0618 6B000000 		.4byte	0x6b
 2787 061c 01       		.uleb128 0x1
 2788 061d 51       		.byte	0x51
 2789 061e 00       		.byte	0
 2790 061f 14       		.uleb128 0x14
 2791 0620 C2090000 		.4byte	.LASF71
 2792 0624 01       		.byte	0x1
 2793 0625 0704     		.2byte	0x407
 2794 0627 00000000 		.4byte	.LFB52
 2795 062b 0C000000 		.4byte	.LFE52-.LFB52
 2796 062f 01       		.uleb128 0x1
 2797 0630 9C       		.byte	0x9c
 2798 0631 52060000 		.4byte	0x652
 2799 0635 18       		.uleb128 0x18
 2800 0636 AB030000 		.4byte	.LASF63
 2801 063a 01       		.byte	0x1
 2802 063b 0704     		.2byte	0x407
 2803 063d 83000000 		.4byte	0x83
 2804 0641 01       		.uleb128 0x1
 2805 0642 50       		.byte	0x50
 2806 0643 18       		.uleb128 0x18
 2807 0644 52040000 		.4byte	.LASF61
 2808 0648 01       		.byte	0x1
 2809 0649 0704     		.2byte	0x407
 2810 064b 6B000000 		.4byte	0x6b
 2811 064f 01       		.uleb128 0x1
 2812 0650 51       		.byte	0x51
 2813 0651 00       		.byte	0
 2814 0652 14       		.uleb128 0x14
 2815 0653 610A0000 		.4byte	.LASF72
 2816 0657 01       		.byte	0x1
 2817 0658 2304     		.2byte	0x423
 2818 065a 00000000 		.4byte	.LFB53
 2819 065e 0C000000 		.4byte	.LFE53-.LFB53
 2820 0662 01       		.uleb128 0x1
 2821 0663 9C       		.byte	0x9c
 2822 0664 87060000 		.4byte	0x687
 2823 0668 17       		.uleb128 0x17
 2824 0669 19060000 		.4byte	.LASF52
 2825 066d 01       		.byte	0x1
 2826 066e 2304     		.2byte	0x423
ARM GAS  C:\Users\SHOZO\AppData\Local\Temp\cc3BkmVy.s 			page 102


 2827 0670 83000000 		.4byte	0x83
 2828 0674 9A010000 		.4byte	.LLST13
 2829 0678 18       		.uleb128 0x18
 2830 0679 52040000 		.4byte	.LASF61
 2831 067d 01       		.byte	0x1
 2832 067e 2304     		.2byte	0x423
 2833 0680 6B000000 		.4byte	0x6b
 2834 0684 01       		.uleb128 0x1
 2835 0685 51       		.byte	0x51
 2836 0686 00       		.byte	0
 2837 0687 16       		.uleb128 0x16
 2838 0688 2F070000 		.4byte	.LASF73
 2839 068c 01       		.byte	0x1
 2840 068d 5104     		.2byte	0x451
 2841 068f 83000000 		.4byte	0x83
 2842 0693 00000000 		.4byte	.LFB54
 2843 0697 A4000000 		.4byte	.LFE54-.LFB54
 2844 069b 01       		.uleb128 0x1
 2845 069c 9C       		.byte	0x9c
 2846 069d 88070000 		.4byte	0x788
 2847 06a1 17       		.uleb128 0x17
 2848 06a2 19060000 		.4byte	.LASF52
 2849 06a6 01       		.byte	0x1
 2850 06a7 5104     		.2byte	0x451
 2851 06a9 83000000 		.4byte	0x83
 2852 06ad BB010000 		.4byte	.LLST14
 2853 06b1 15       		.uleb128 0x15
 2854 06b2 AB030000 		.4byte	.LASF63
 2855 06b6 01       		.byte	0x1
 2856 06b7 5304     		.2byte	0x453
 2857 06b9 6B000000 		.4byte	0x6b
 2858 06bd E7010000 		.4byte	.LLST15
 2859 06c1 15       		.uleb128 0x15
 2860 06c2 1B070000 		.4byte	.LASF74
 2861 06c6 01       		.byte	0x1
 2862 06c7 5404     		.2byte	0x454
 2863 06c9 6B000000 		.4byte	0x6b
 2864 06cd FA010000 		.4byte	.LLST16
 2865 06d1 19       		.uleb128 0x19
 2866 06d2 1A0A0000 		.4byte	.LASF75
 2867 06d6 01       		.byte	0x1
 2868 06d7 5504     		.2byte	0x455
 2869 06d9 6B000000 		.4byte	0x6b
 2870 06dd 00       		.byte	0
 2871 06de 15       		.uleb128 0x15
 2872 06df D7090000 		.4byte	.LASF76
 2873 06e3 01       		.byte	0x1
 2874 06e4 5704     		.2byte	0x457
 2875 06e6 6B000000 		.4byte	0x6b
 2876 06ea 0D020000 		.4byte	.LLST17
 2877 06ee 15       		.uleb128 0x15
 2878 06ef 50050000 		.4byte	.LASF77
 2879 06f3 01       		.byte	0x1
 2880 06f4 5804     		.2byte	0x458
 2881 06f6 6B000000 		.4byte	0x6b
 2882 06fa 20020000 		.4byte	.LLST18
 2883 06fe 1A       		.uleb128 0x1a
ARM GAS  C:\Users\SHOZO\AppData\Local\Temp\cc3BkmVy.s 			page 103


 2884 06ff 1B000000 		.4byte	.LASF78
 2885 0703 01       		.byte	0x1
 2886 0704 5904     		.2byte	0x459
 2887 0706 88070000 		.4byte	0x788
 2888 070a 05       		.uleb128 0x5
 2889 070b 03       		.byte	0x3
 2890 070c 30000000 		.4byte	CapSense_debounceCounter.5490
 2891 0710 0F       		.uleb128 0xf
 2892 0711 24000000 		.4byte	.LVL50
 2893 0715 E8100000 		.4byte	0x10e8
 2894 0719 2D070000 		.4byte	0x72d
 2895 071d 10       		.uleb128 0x10
 2896 071e 01       		.uleb128 0x1
 2897 071f 50       		.byte	0x50
 2898 0720 05       		.uleb128 0x5
 2899 0721 03       		.byte	0x3
 2900 0722 34000000 		.4byte	.LANCHOR0+52
 2901 0726 10       		.uleb128 0x10
 2902 0727 01       		.uleb128 0x1
 2903 0728 51       		.byte	0x51
 2904 0729 02       		.uleb128 0x2
 2905 072a 74       		.byte	0x74
 2906 072b 00       		.sleb128 0
 2907 072c 00       		.byte	0
 2908 072d 0F       		.uleb128 0xf
 2909 072e 44000000 		.4byte	.LVL52
 2910 0732 F3100000 		.4byte	0x10f3
 2911 0736 4C070000 		.4byte	0x74c
 2912 073a 10       		.uleb128 0x10
 2913 073b 01       		.uleb128 0x1
 2914 073c 50       		.byte	0x50
 2915 073d 02       		.uleb128 0x2
 2916 073e 75       		.byte	0x75
 2917 073f 34       		.sleb128 52
 2918 0740 10       		.uleb128 0x10
 2919 0741 01       		.uleb128 0x1
 2920 0742 51       		.byte	0x51
 2921 0743 02       		.uleb128 0x2
 2922 0744 74       		.byte	0x74
 2923 0745 00       		.sleb128 0
 2924 0746 10       		.uleb128 0x10
 2925 0747 01       		.uleb128 0x1
 2926 0748 52       		.byte	0x52
 2927 0749 01       		.uleb128 0x1
 2928 074a 30       		.byte	0x30
 2929 074b 00       		.byte	0
 2930 074c 0F       		.uleb128 0xf
 2931 074d 74000000 		.4byte	.LVL55
 2932 0751 F3100000 		.4byte	0x10f3
 2933 0755 6E070000 		.4byte	0x76e
 2934 0759 10       		.uleb128 0x10
 2935 075a 01       		.uleb128 0x1
 2936 075b 50       		.byte	0x50
 2937 075c 05       		.uleb128 0x5
 2938 075d 03       		.byte	0x3
 2939 075e 34000000 		.4byte	.LANCHOR0+52
 2940 0762 10       		.uleb128 0x10
ARM GAS  C:\Users\SHOZO\AppData\Local\Temp\cc3BkmVy.s 			page 104


 2941 0763 01       		.uleb128 0x1
 2942 0764 51       		.byte	0x51
 2943 0765 02       		.uleb128 0x2
 2944 0766 74       		.byte	0x74
 2945 0767 00       		.sleb128 0
 2946 0768 10       		.uleb128 0x10
 2947 0769 01       		.uleb128 0x1
 2948 076a 52       		.byte	0x52
 2949 076b 01       		.uleb128 0x1
 2950 076c 31       		.byte	0x31
 2951 076d 00       		.byte	0
 2952 076e 12       		.uleb128 0x12
 2953 076f 86000000 		.4byte	.LVL56
 2954 0773 E8100000 		.4byte	0x10e8
 2955 0777 10       		.uleb128 0x10
 2956 0778 01       		.uleb128 0x1
 2957 0779 50       		.byte	0x50
 2958 077a 05       		.uleb128 0x5
 2959 077b 03       		.byte	0x3
 2960 077c 34000000 		.4byte	.LANCHOR0+52
 2961 0780 10       		.uleb128 0x10
 2962 0781 01       		.uleb128 0x1
 2963 0782 51       		.byte	0x51
 2964 0783 02       		.uleb128 0x2
 2965 0784 74       		.byte	0x74
 2966 0785 00       		.sleb128 0
 2967 0786 00       		.byte	0
 2968 0787 00       		.byte	0
 2969 0788 1B       		.uleb128 0x1b
 2970 0789 6B000000 		.4byte	0x6b
 2971 078d 98070000 		.4byte	0x798
 2972 0791 1C       		.uleb128 0x1c
 2973 0792 BC000000 		.4byte	0xbc
 2974 0796 00       		.byte	0
 2975 0797 00       		.byte	0
 2976 0798 16       		.uleb128 0x16
 2977 0799 9D0B0000 		.4byte	.LASF79
 2978 079d 01       		.byte	0x1
 2979 079e A804     		.2byte	0x4a8
 2980 07a0 83000000 		.4byte	0x83
 2981 07a4 00000000 		.4byte	.LFB55
 2982 07a8 1C000000 		.4byte	.LFE55-.LFB55
 2983 07ac 01       		.uleb128 0x1
 2984 07ad 9C       		.byte	0x9c
 2985 07ae 00080000 		.4byte	0x800
 2986 07b2 17       		.uleb128 0x17
 2987 07b3 AB030000 		.4byte	.LASF63
 2988 07b7 01       		.byte	0x1
 2989 07b8 A804     		.2byte	0x4a8
 2990 07ba 83000000 		.4byte	0x83
 2991 07be 3E020000 		.4byte	.LLST19
 2992 07c2 15       		.uleb128 0x15
 2993 07c3 A3060000 		.4byte	.LASF80
 2994 07c7 01       		.byte	0x1
 2995 07c8 AA04     		.2byte	0x4aa
 2996 07ca 83000000 		.4byte	0x83
 2997 07ce 5F020000 		.4byte	.LLST20
ARM GAS  C:\Users\SHOZO\AppData\Local\Temp\cc3BkmVy.s 			page 105


 2998 07d2 19       		.uleb128 0x19
 2999 07d3 00010000 		.4byte	.LASF81
 3000 07d7 01       		.byte	0x1
 3001 07d8 AB04     		.2byte	0x4ab
 3002 07da 83000000 		.4byte	0x83
 3003 07de 0C       		.byte	0xc
 3004 07df 15       		.uleb128 0x15
 3005 07e0 F40A0000 		.4byte	.LASF82
 3006 07e4 01       		.byte	0x1
 3007 07e5 AC04     		.2byte	0x4ac
 3008 07e7 83000000 		.4byte	0x83
 3009 07eb 7E020000 		.4byte	.LLST21
 3010 07ef 12       		.uleb128 0x12
 3011 07f0 0C000000 		.4byte	.LVL63
 3012 07f4 87060000 		.4byte	0x687
 3013 07f8 10       		.uleb128 0x10
 3014 07f9 01       		.uleb128 0x1
 3015 07fa 50       		.byte	0x50
 3016 07fb 02       		.uleb128 0x2
 3017 07fc 74       		.byte	0x74
 3018 07fd 00       		.sleb128 0
 3019 07fe 00       		.byte	0
 3020 07ff 00       		.byte	0
 3021 0800 16       		.uleb128 0x16
 3022 0801 90050000 		.4byte	.LASF83
 3023 0805 01       		.byte	0x1
 3024 0806 D604     		.2byte	0x4d6
 3025 0808 83000000 		.4byte	0x83
 3026 080c 00000000 		.4byte	.LFB56
 3027 0810 1E000000 		.4byte	.LFE56-.LFB56
 3028 0814 01       		.uleb128 0x1
 3029 0815 9C       		.byte	0x9c
 3030 0816 49080000 		.4byte	0x849
 3031 081a 13       		.uleb128 0x13
 3032 081b 6900     		.ascii	"i\000"
 3033 081d 01       		.byte	0x1
 3034 081e D904     		.2byte	0x4d9
 3035 0820 83000000 		.4byte	0x83
 3036 0824 A8020000 		.4byte	.LLST22
 3037 0828 15       		.uleb128 0x15
 3038 0829 F40A0000 		.4byte	.LASF82
 3039 082d 01       		.byte	0x1
 3040 082e DA04     		.2byte	0x4da
 3041 0830 83000000 		.4byte	0x83
 3042 0834 C7020000 		.4byte	.LLST23
 3043 0838 12       		.uleb128 0x12
 3044 0839 0E000000 		.4byte	.LVL70
 3045 083d 98070000 		.4byte	0x798
 3046 0841 10       		.uleb128 0x10
 3047 0842 01       		.uleb128 0x1
 3048 0843 50       		.byte	0x50
 3049 0844 02       		.uleb128 0x2
 3050 0845 74       		.byte	0x74
 3051 0846 00       		.sleb128 0
 3052 0847 00       		.byte	0
 3053 0848 00       		.byte	0
 3054 0849 14       		.uleb128 0x14
ARM GAS  C:\Users\SHOZO\AppData\Local\Temp\cc3BkmVy.s 			page 106


 3055 084a 30060000 		.4byte	.LASF84
 3056 084e 01       		.byte	0x1
 3057 084f 0505     		.2byte	0x505
 3058 0851 00000000 		.4byte	.LFB57
 3059 0855 1C000000 		.4byte	.LFE57-.LFB57
 3060 0859 01       		.uleb128 0x1
 3061 085a 9C       		.byte	0x9c
 3062 085b A2080000 		.4byte	0x8a2
 3063 085f 17       		.uleb128 0x17
 3064 0860 AB030000 		.4byte	.LASF63
 3065 0864 01       		.byte	0x1
 3066 0865 0505     		.2byte	0x505
 3067 0867 83000000 		.4byte	0x83
 3068 086b F1020000 		.4byte	.LLST24
 3069 086f 15       		.uleb128 0x15
 3070 0870 A3060000 		.4byte	.LASF80
 3071 0874 01       		.byte	0x1
 3072 0875 0805     		.2byte	0x508
 3073 0877 6B000000 		.4byte	0x6b
 3074 087b 12030000 		.4byte	.LLST25
 3075 087f 19       		.uleb128 0x19
 3076 0880 00010000 		.4byte	.LASF81
 3077 0884 01       		.byte	0x1
 3078 0885 0905     		.2byte	0x509
 3079 0887 6B000000 		.4byte	0x6b
 3080 088b 0C       		.byte	0xc
 3081 088c 12       		.uleb128 0x12
 3082 088d 0E000000 		.4byte	.LVL78
 3083 0891 F3100000 		.4byte	0x10f3
 3084 0895 10       		.uleb128 0x10
 3085 0896 01       		.uleb128 0x1
 3086 0897 51       		.byte	0x51
 3087 0898 02       		.uleb128 0x2
 3088 0899 74       		.byte	0x74
 3089 089a 00       		.sleb128 0
 3090 089b 10       		.uleb128 0x10
 3091 089c 01       		.uleb128 0x1
 3092 089d 52       		.byte	0x52
 3093 089e 01       		.uleb128 0x1
 3094 089f 31       		.byte	0x31
 3095 08a0 00       		.byte	0
 3096 08a1 00       		.byte	0
 3097 08a2 14       		.uleb128 0x14
 3098 08a3 A0000000 		.4byte	.LASF85
 3099 08a7 01       		.byte	0x1
 3100 08a8 3005     		.2byte	0x530
 3101 08aa 00000000 		.4byte	.LFB58
 3102 08ae 1C000000 		.4byte	.LFE58-.LFB58
 3103 08b2 01       		.uleb128 0x1
 3104 08b3 9C       		.byte	0x9c
 3105 08b4 FB080000 		.4byte	0x8fb
 3106 08b8 17       		.uleb128 0x17
 3107 08b9 AB030000 		.4byte	.LASF63
 3108 08bd 01       		.byte	0x1
 3109 08be 3005     		.2byte	0x530
 3110 08c0 83000000 		.4byte	0x83
 3111 08c4 3C030000 		.4byte	.LLST26
ARM GAS  C:\Users\SHOZO\AppData\Local\Temp\cc3BkmVy.s 			page 107


 3112 08c8 15       		.uleb128 0x15
 3113 08c9 A3060000 		.4byte	.LASF80
 3114 08cd 01       		.byte	0x1
 3115 08ce 3205     		.2byte	0x532
 3116 08d0 6B000000 		.4byte	0x6b
 3117 08d4 5D030000 		.4byte	.LLST27
 3118 08d8 19       		.uleb128 0x19
 3119 08d9 00010000 		.4byte	.LASF81
 3120 08dd 01       		.byte	0x1
 3121 08de 3305     		.2byte	0x533
 3122 08e0 6B000000 		.4byte	0x6b
 3123 08e4 0C       		.byte	0xc
 3124 08e5 12       		.uleb128 0x12
 3125 08e6 0E000000 		.4byte	.LVL85
 3126 08ea F3100000 		.4byte	0x10f3
 3127 08ee 10       		.uleb128 0x10
 3128 08ef 01       		.uleb128 0x1
 3129 08f0 51       		.byte	0x51
 3130 08f1 02       		.uleb128 0x2
 3131 08f2 74       		.byte	0x74
 3132 08f3 00       		.sleb128 0
 3133 08f4 10       		.uleb128 0x10
 3134 08f5 01       		.uleb128 0x1
 3135 08f6 52       		.byte	0x52
 3136 08f7 01       		.uleb128 0x1
 3137 08f8 30       		.byte	0x30
 3138 08f9 00       		.byte	0
 3139 08fa 00       		.byte	0
 3140 08fb 16       		.uleb128 0x16
 3141 08fc D3080000 		.4byte	.LASF86
 3142 0900 01       		.byte	0x1
 3143 0901 6205     		.2byte	0x562
 3144 0903 6B000000 		.4byte	0x6b
 3145 0907 00000000 		.4byte	.LFB59
 3146 090b 2C000000 		.4byte	.LFE59-.LFB59
 3147 090f 01       		.uleb128 0x1
 3148 0910 9C       		.byte	0x9c
 3149 0911 80090000 		.4byte	0x980
 3150 0915 17       		.uleb128 0x17
 3151 0916 22050000 		.4byte	.LASF87
 3152 091a 01       		.byte	0x1
 3153 091b 6205     		.2byte	0x562
 3154 091d 6B000000 		.4byte	0x6b
 3155 0921 87030000 		.4byte	.LLST28
 3156 0925 18       		.uleb128 0x18
 3157 0926 26030000 		.4byte	.LASF88
 3158 092a 01       		.byte	0x1
 3159 092b 6205     		.2byte	0x562
 3160 092d 6B000000 		.4byte	0x6b
 3161 0931 01       		.uleb128 0x1
 3162 0932 51       		.byte	0x51
 3163 0933 18       		.uleb128 0x18
 3164 0934 D7090000 		.4byte	.LASF76
 3165 0938 01       		.byte	0x1
 3166 0939 6205     		.2byte	0x562
 3167 093b 6B000000 		.4byte	0x6b
 3168 093f 01       		.uleb128 0x1
ARM GAS  C:\Users\SHOZO\AppData\Local\Temp\cc3BkmVy.s 			page 108


 3169 0940 52       		.byte	0x52
 3170 0941 13       		.uleb128 0x13
 3171 0942 6900     		.ascii	"i\000"
 3172 0944 01       		.byte	0x1
 3173 0945 6505     		.2byte	0x565
 3174 0947 6B000000 		.4byte	0x6b
 3175 094b A8030000 		.4byte	.LLST29
 3176 094f 15       		.uleb128 0x15
 3177 0950 5F090000 		.4byte	.LASF89
 3178 0954 01       		.byte	0x1
 3179 0955 6F05     		.2byte	0x56f
 3180 0957 6B000000 		.4byte	0x6b
 3181 095b D2030000 		.4byte	.LLST30
 3182 095f 15       		.uleb128 0x15
 3183 0960 CE080000 		.4byte	.LASF90
 3184 0964 01       		.byte	0x1
 3185 0965 7105     		.2byte	0x571
 3186 0967 6B000000 		.4byte	0x6b
 3187 096b F2030000 		.4byte	.LLST31
 3188 096f 15       		.uleb128 0x15
 3189 0970 12080000 		.4byte	.LASF91
 3190 0974 01       		.byte	0x1
 3191 0975 7205     		.2byte	0x572
 3192 0977 E7010000 		.4byte	0x1e7
 3193 097b 1C040000 		.4byte	.LLST32
 3194 097f 00       		.byte	0
 3195 0980 1D       		.uleb128 0x1d
 3196 0981 86070000 		.4byte	.LASF92
 3197 0985 01       		.byte	0x1
 3198 0986 0106     		.2byte	0x601
 3199 0988 6B000000 		.4byte	0x6b
 3200 098c 00000000 		.4byte	.LFB60
 3201 0990 E4000000 		.4byte	.LFE60-.LFB60
 3202 0994 01       		.uleb128 0x1
 3203 0995 9C       		.byte	0x9c
 3204 0996 5B0A0000 		.4byte	0xa5b
 3205 099a 17       		.uleb128 0x17
 3206 099b 5F090000 		.4byte	.LASF89
 3207 099f 01       		.byte	0x1
 3208 09a0 0106     		.2byte	0x601
 3209 09a2 6B000000 		.4byte	0x6b
 3210 09a6 2F040000 		.4byte	.LLST33
 3211 09aa 17       		.uleb128 0x17
 3212 09ab 22050000 		.4byte	.LASF87
 3213 09af 01       		.byte	0x1
 3214 09b0 0106     		.2byte	0x601
 3215 09b2 6B000000 		.4byte	0x6b
 3216 09b6 50040000 		.4byte	.LLST34
 3217 09ba 17       		.uleb128 0x17
 3218 09bb 26030000 		.4byte	.LASF88
 3219 09bf 01       		.byte	0x1
 3220 09c0 0206     		.2byte	0x602
 3221 09c2 6B000000 		.4byte	0x6b
 3222 09c6 71040000 		.4byte	.LLST35
 3223 09ca 17       		.uleb128 0x17
 3224 09cb 98060000 		.4byte	.LASF93
 3225 09cf 01       		.byte	0x1
ARM GAS  C:\Users\SHOZO\AppData\Local\Temp\cc3BkmVy.s 			page 109


 3226 09d0 0206     		.2byte	0x602
 3227 09d2 77000000 		.4byte	0x77
 3228 09d6 92040000 		.4byte	.LLST36
 3229 09da 17       		.uleb128 0x17
 3230 09db 8B090000 		.4byte	.LASF94
 3231 09df 01       		.byte	0x1
 3232 09e0 0206     		.2byte	0x602
 3233 09e2 6B000000 		.4byte	0x6b
 3234 09e6 B3040000 		.4byte	.LLST37
 3235 09ea 15       		.uleb128 0x15
 3236 09eb EC010000 		.4byte	.LASF95
 3237 09ef 01       		.byte	0x1
 3238 09f0 0606     		.2byte	0x606
 3239 09f2 6B000000 		.4byte	0x6b
 3240 09f6 DF040000 		.4byte	.LLST38
 3241 09fa 15       		.uleb128 0x15
 3242 09fb 51010000 		.4byte	.LASF96
 3243 09ff 01       		.byte	0x1
 3244 0a00 0706     		.2byte	0x607
 3245 0a02 6B000000 		.4byte	0x6b
 3246 0a06 20050000 		.4byte	.LLST39
 3247 0a0a 1A       		.uleb128 0x1a
 3248 0a0b C6060000 		.4byte	.LASF97
 3249 0a0f 01       		.byte	0x1
 3250 0a10 0C06     		.2byte	0x60c
 3251 0a12 5B0A0000 		.4byte	0xa5b
 3252 0a16 05       		.uleb128 0x5
 3253 0a17 03       		.byte	0x3
 3254 0a18 38000000 		.4byte	CapSense_centroid.5542
 3255 0a1c 1A       		.uleb128 0x1a
 3256 0a1d DF0B0000 		.4byte	.LASF98
 3257 0a21 01       		.byte	0x1
 3258 0a22 1306     		.2byte	0x613
 3259 0a24 6B000000 		.4byte	0x6b
 3260 0a28 01       		.uleb128 0x1
 3261 0a29 50       		.byte	0x50
 3262 0a2a 15       		.uleb128 0x15
 3263 0a2b 59080000 		.4byte	.LASF99
 3264 0a2f 01       		.byte	0x1
 3265 0a30 1406     		.2byte	0x614
 3266 0a32 83000000 		.4byte	0x83
 3267 0a36 33050000 		.4byte	.LLST40
 3268 0a3a 15       		.uleb128 0x15
 3269 0a3b 31090000 		.4byte	.LASF100
 3270 0a3f 01       		.byte	0x1
 3271 0a40 1506     		.2byte	0x615
 3272 0a42 9B000000 		.4byte	0x9b
 3273 0a46 5E050000 		.4byte	.LLST41
 3274 0a4a 15       		.uleb128 0x15
 3275 0a4b 12080000 		.4byte	.LASF91
 3276 0a4f 01       		.byte	0x1
 3277 0a50 1706     		.2byte	0x617
 3278 0a52 E7010000 		.4byte	0x1e7
 3279 0a56 8B050000 		.4byte	.LLST42
 3280 0a5a 00       		.byte	0
 3281 0a5b 1B       		.uleb128 0x1b
 3282 0a5c 6B000000 		.4byte	0x6b
ARM GAS  C:\Users\SHOZO\AppData\Local\Temp\cc3BkmVy.s 			page 110


 3283 0a60 6B0A0000 		.4byte	0xa6b
 3284 0a64 1C       		.uleb128 0x1c
 3285 0a65 BC000000 		.4byte	0xbc
 3286 0a69 02       		.byte	0x2
 3287 0a6a 00       		.byte	0
 3288 0a6b 16       		.uleb128 0x16
 3289 0a6c 3D0B0000 		.4byte	.LASF101
 3290 0a70 01       		.byte	0x1
 3291 0a71 9F07     		.2byte	0x79f
 3292 0a73 77000000 		.4byte	0x77
 3293 0a77 00000000 		.4byte	.LFB62
 3294 0a7b 40000000 		.4byte	.LFE62-.LFB62
 3295 0a7f 01       		.uleb128 0x1
 3296 0a80 9C       		.byte	0x9c
 3297 0a81 030B0000 		.4byte	0xb03
 3298 0a85 17       		.uleb128 0x17
 3299 0a86 AB030000 		.4byte	.LASF63
 3300 0a8a 01       		.byte	0x1
 3301 0a8b 9F07     		.2byte	0x79f
 3302 0a8d 83000000 		.4byte	0x83
 3303 0a91 A9050000 		.4byte	.LLST43
 3304 0a95 15       		.uleb128 0x15
 3305 0a96 5F090000 		.4byte	.LASF89
 3306 0a9a 01       		.byte	0x1
 3307 0a9b AE07     		.2byte	0x7ae
 3308 0a9d 6B000000 		.4byte	0x6b
 3309 0aa1 D5050000 		.4byte	.LLST44
 3310 0aa5 15       		.uleb128 0x15
 3311 0aa6 DF0B0000 		.4byte	.LASF98
 3312 0aaa 01       		.byte	0x1
 3313 0aab AF07     		.2byte	0x7af
 3314 0aad 77000000 		.4byte	0x77
 3315 0ab1 F3050000 		.4byte	.LLST45
 3316 0ab5 19       		.uleb128 0x19
 3317 0ab6 22050000 		.4byte	.LASF87
 3318 0aba 01       		.byte	0x1
 3319 0abb B007     		.2byte	0x7b0
 3320 0abd 6B000000 		.4byte	0x6b
 3321 0ac1 00       		.byte	0
 3322 0ac2 19       		.uleb128 0x19
 3323 0ac3 26030000 		.4byte	.LASF88
 3324 0ac7 01       		.byte	0x1
 3325 0ac8 B107     		.2byte	0x7b1
 3326 0aca 6B000000 		.4byte	0x6b
 3327 0ace 0C       		.byte	0xc
 3328 0acf 0F       		.uleb128 0xf
 3329 0ad0 12000000 		.4byte	.LVL129
 3330 0ad4 FB080000 		.4byte	0x8fb
 3331 0ad8 E70A0000 		.4byte	0xae7
 3332 0adc 10       		.uleb128 0x10
 3333 0add 01       		.uleb128 0x1
 3334 0ade 50       		.byte	0x50
 3335 0adf 01       		.uleb128 0x1
 3336 0ae0 30       		.byte	0x30
 3337 0ae1 10       		.uleb128 0x10
 3338 0ae2 01       		.uleb128 0x1
 3339 0ae3 51       		.byte	0x51
ARM GAS  C:\Users\SHOZO\AppData\Local\Temp\cc3BkmVy.s 			page 111


 3340 0ae4 01       		.uleb128 0x1
 3341 0ae5 3C       		.byte	0x3c
 3342 0ae6 00       		.byte	0
 3343 0ae7 12       		.uleb128 0x12
 3344 0ae8 28000000 		.4byte	.LVL130
 3345 0aec 80090000 		.4byte	0x980
 3346 0af0 10       		.uleb128 0x10
 3347 0af1 01       		.uleb128 0x1
 3348 0af2 51       		.byte	0x51
 3349 0af3 01       		.uleb128 0x1
 3350 0af4 30       		.byte	0x30
 3351 0af5 10       		.uleb128 0x10
 3352 0af6 01       		.uleb128 0x1
 3353 0af7 52       		.byte	0x52
 3354 0af8 01       		.uleb128 0x1
 3355 0af9 3C       		.byte	0x3c
 3356 0afa 10       		.uleb128 0x10
 3357 0afb 01       		.uleb128 0x1
 3358 0afc 53       		.byte	0x53
 3359 0afd 03       		.uleb128 0x3
 3360 0afe 0A       		.byte	0xa
 3361 0aff 0009     		.2byte	0x900
 3362 0b01 00       		.byte	0
 3363 0b02 00       		.byte	0
 3364 0b03 16       		.uleb128 0x16
 3365 0b04 6A0B0000 		.4byte	.LASF102
 3366 0b08 01       		.byte	0x1
 3367 0b09 4C09     		.2byte	0x94c
 3368 0b0b 77000000 		.4byte	0x77
 3369 0b0f 00000000 		.4byte	.LFB63
 3370 0b13 1C000000 		.4byte	.LFE63-.LFB63
 3371 0b17 01       		.uleb128 0x1
 3372 0b18 9C       		.byte	0x9c
 3373 0b19 550B0000 		.4byte	0xb55
 3374 0b1d 1E       		.uleb128 0x1e
 3375 0b1e 783100   		.ascii	"x1\000"
 3376 0b21 01       		.byte	0x1
 3377 0b22 4C09     		.2byte	0x94c
 3378 0b24 77000000 		.4byte	0x77
 3379 0b28 11060000 		.4byte	.LLST46
 3380 0b2c 1E       		.uleb128 0x1e
 3381 0b2d 783200   		.ascii	"x2\000"
 3382 0b30 01       		.byte	0x1
 3383 0b31 4C09     		.2byte	0x94c
 3384 0b33 77000000 		.4byte	0x77
 3385 0b37 3D060000 		.4byte	.LLST47
 3386 0b3b 1F       		.uleb128 0x1f
 3387 0b3c 783300   		.ascii	"x3\000"
 3388 0b3f 01       		.byte	0x1
 3389 0b40 4C09     		.2byte	0x94c
 3390 0b42 77000000 		.4byte	0x77
 3391 0b46 01       		.uleb128 0x1
 3392 0b47 52       		.byte	0x52
 3393 0b48 20       		.uleb128 0x20
 3394 0b49 746D7000 		.ascii	"tmp\000"
 3395 0b4d 01       		.byte	0x1
 3396 0b4e 4E09     		.2byte	0x94e
ARM GAS  C:\Users\SHOZO\AppData\Local\Temp\cc3BkmVy.s 			page 112


 3397 0b50 77000000 		.4byte	0x77
 3398 0b54 00       		.byte	0
 3399 0b55 16       		.uleb128 0x16
 3400 0b56 AC090000 		.4byte	.LASF103
 3401 0b5a 01       		.byte	0x1
 3402 0b5b EC09     		.2byte	0x9ec
 3403 0b5d 77000000 		.4byte	0x77
 3404 0b61 00000000 		.4byte	.LFB64
 3405 0b65 14000000 		.4byte	.LFE64-.LFB64
 3406 0b69 01       		.uleb128 0x1
 3407 0b6a 9C       		.byte	0x9c
 3408 0b6b 8C0B0000 		.4byte	0xb8c
 3409 0b6f 1E       		.uleb128 0x1e
 3410 0b70 783100   		.ascii	"x1\000"
 3411 0b73 01       		.byte	0x1
 3412 0b74 EC09     		.2byte	0x9ec
 3413 0b76 77000000 		.4byte	0x77
 3414 0b7a 5B060000 		.4byte	.LLST48
 3415 0b7e 1F       		.uleb128 0x1f
 3416 0b7f 783200   		.ascii	"x2\000"
 3417 0b82 01       		.byte	0x1
 3418 0b83 EC09     		.2byte	0x9ec
 3419 0b85 77000000 		.4byte	0x77
 3420 0b89 01       		.uleb128 0x1
 3421 0b8a 51       		.byte	0x51
 3422 0b8b 00       		.byte	0
 3423 0b8c 14       		.uleb128 0x14
 3424 0b8d 5E000000 		.4byte	.LASF104
 3425 0b91 01       		.byte	0x1
 3426 0b92 6201     		.2byte	0x162
 3427 0b94 00000000 		.4byte	.LFB36
 3428 0b98 14010000 		.4byte	.LFE36-.LFB36
 3429 0b9c 01       		.uleb128 0x1
 3430 0b9d 9C       		.byte	0x9c
 3431 0b9e 470C0000 		.4byte	0xc47
 3432 0ba2 17       		.uleb128 0x17
 3433 0ba3 19060000 		.4byte	.LASF52
 3434 0ba7 01       		.byte	0x1
 3435 0ba8 6201     		.2byte	0x162
 3436 0baa 83000000 		.4byte	0x83
 3437 0bae A0060000 		.4byte	.LLST49
 3438 0bb2 15       		.uleb128 0x15
 3439 0bb3 3A050000 		.4byte	.LASF105
 3440 0bb7 01       		.byte	0x1
 3441 0bb8 6401     		.2byte	0x164
 3442 0bba 83000000 		.4byte	0x83
 3443 0bbe FE060000 		.4byte	.LLST50
 3444 0bc2 15       		.uleb128 0x15
 3445 0bc3 1D050000 		.4byte	.LASF106
 3446 0bc7 01       		.byte	0x1
 3447 0bc8 6501     		.2byte	0x165
 3448 0bca 83000000 		.4byte	0x83
 3449 0bce 11070000 		.4byte	.LLST51
 3450 0bd2 15       		.uleb128 0x15
 3451 0bd3 800B0000 		.4byte	.LASF107
 3452 0bd7 01       		.byte	0x1
 3453 0bd8 6601     		.2byte	0x166
ARM GAS  C:\Users\SHOZO\AppData\Local\Temp\cc3BkmVy.s 			page 113


 3454 0bda 77000000 		.4byte	0x77
 3455 0bde 3C070000 		.4byte	.LLST52
 3456 0be2 15       		.uleb128 0x15
 3457 0be3 6F050000 		.4byte	.LASF108
 3458 0be7 01       		.byte	0x1
 3459 0be8 6701     		.2byte	0x167
 3460 0bea 77000000 		.4byte	0x77
 3461 0bee 5A070000 		.4byte	.LLST53
 3462 0bf2 21       		.uleb128 0x21
 3463 0bf3 AB030000 		.4byte	.LASF63
 3464 0bf7 01       		.byte	0x1
 3465 0bf8 6801     		.2byte	0x168
 3466 0bfa 6B000000 		.4byte	0x6b
 3467 0bfe 15       		.uleb128 0x15
 3468 0bff 8B090000 		.4byte	.LASF94
 3469 0c03 01       		.byte	0x1
 3470 0c04 6901     		.2byte	0x169
 3471 0c06 6B000000 		.4byte	0x6b
 3472 0c0a 83070000 		.4byte	.LLST54
 3473 0c0e 0F       		.uleb128 0xf
 3474 0c0f 34000000 		.4byte	.LVL149
 3475 0c13 550B0000 		.4byte	0xb55
 3476 0c17 220C0000 		.4byte	0xc22
 3477 0c1b 10       		.uleb128 0x10
 3478 0c1c 01       		.uleb128 0x1
 3479 0c1d 50       		.byte	0x50
 3480 0c1e 02       		.uleb128 0x2
 3481 0c1f 76       		.byte	0x76
 3482 0c20 00       		.sleb128 0
 3483 0c21 00       		.byte	0
 3484 0c22 0F       		.uleb128 0xf
 3485 0c23 42000000 		.4byte	.LVL152
 3486 0c27 FE100000 		.4byte	0x10fe
 3487 0c2b 360C0000 		.4byte	0xc36
 3488 0c2f 10       		.uleb128 0x10
 3489 0c30 01       		.uleb128 0x1
 3490 0c31 51       		.byte	0x51
 3491 0c32 02       		.uleb128 0x2
 3492 0c33 74       		.byte	0x74
 3493 0c34 00       		.sleb128 0
 3494 0c35 00       		.byte	0
 3495 0c36 12       		.uleb128 0x12
 3496 0c37 82000000 		.4byte	.LVL157
 3497 0c3b D1020000 		.4byte	0x2d1
 3498 0c3f 10       		.uleb128 0x10
 3499 0c40 01       		.uleb128 0x1
 3500 0c41 50       		.byte	0x50
 3501 0c42 02       		.uleb128 0x2
 3502 0c43 74       		.byte	0x74
 3503 0c44 00       		.sleb128 0
 3504 0c45 00       		.byte	0
 3505 0c46 00       		.byte	0
 3506 0c47 14       		.uleb128 0x14
 3507 0c48 56070000 		.4byte	.LASF109
 3508 0c4c 01       		.byte	0x1
 3509 0c4d 2202     		.2byte	0x222
 3510 0c4f 00000000 		.4byte	.LFB37
ARM GAS  C:\Users\SHOZO\AppData\Local\Temp\cc3BkmVy.s 			page 114


 3511 0c53 10000000 		.4byte	.LFE37-.LFB37
 3512 0c57 01       		.uleb128 0x1
 3513 0c58 9C       		.byte	0x9c
 3514 0c59 920C0000 		.4byte	0xc92
 3515 0c5d 17       		.uleb128 0x17
 3516 0c5e 19060000 		.4byte	.LASF52
 3517 0c62 01       		.byte	0x1
 3518 0c63 2202     		.2byte	0x222
 3519 0c65 83000000 		.4byte	0x83
 3520 0c69 96070000 		.4byte	.LLST55
 3521 0c6d 0F       		.uleb128 0xf
 3522 0c6e 08000000 		.4byte	.LVL173
 3523 0c72 09110000 		.4byte	0x1109
 3524 0c76 810C0000 		.4byte	0xc81
 3525 0c7a 10       		.uleb128 0x10
 3526 0c7b 01       		.uleb128 0x1
 3527 0c7c 50       		.byte	0x50
 3528 0c7d 02       		.uleb128 0x2
 3529 0c7e 74       		.byte	0x74
 3530 0c7f 00       		.sleb128 0
 3531 0c80 00       		.byte	0
 3532 0c81 12       		.uleb128 0x12
 3533 0c82 0E000000 		.4byte	.LVL174
 3534 0c86 8C0B0000 		.4byte	0xb8c
 3535 0c8a 10       		.uleb128 0x10
 3536 0c8b 01       		.uleb128 0x1
 3537 0c8c 50       		.byte	0x50
 3538 0c8d 02       		.uleb128 0x2
 3539 0c8e 74       		.byte	0x74
 3540 0c8f 00       		.sleb128 0
 3541 0c90 00       		.byte	0
 3542 0c91 00       		.byte	0
 3543 0c92 14       		.uleb128 0x14
 3544 0c93 B7000000 		.4byte	.LASF110
 3545 0c97 01       		.byte	0x1
 3546 0c98 5802     		.2byte	0x258
 3547 0c9a 00000000 		.4byte	.LFB38
 3548 0c9e 24000000 		.4byte	.LFE38-.LFB38
 3549 0ca2 01       		.uleb128 0x1
 3550 0ca3 9C       		.byte	0x9c
 3551 0ca4 EB0C0000 		.4byte	0xceb
 3552 0ca8 13       		.uleb128 0x13
 3553 0ca9 6900     		.ascii	"i\000"
 3554 0cab 01       		.byte	0x1
 3555 0cac 5A02     		.2byte	0x25a
 3556 0cae 83000000 		.4byte	0x83
 3557 0cb2 C2070000 		.4byte	.LLST56
 3558 0cb6 15       		.uleb128 0x15
 3559 0cb7 F0000000 		.4byte	.LASF55
 3560 0cbb 01       		.byte	0x1
 3561 0cbc 5B02     		.2byte	0x25b
 3562 0cbe 83000000 		.4byte	0x83
 3563 0cc2 E1070000 		.4byte	.LLST57
 3564 0cc6 0F       		.uleb128 0xf
 3565 0cc7 0E000000 		.4byte	.LVL178
 3566 0ccb E8100000 		.4byte	0x10e8
 3567 0ccf DA0C0000 		.4byte	0xcda
ARM GAS  C:\Users\SHOZO\AppData\Local\Temp\cc3BkmVy.s 			page 115


 3568 0cd3 10       		.uleb128 0x10
 3569 0cd4 01       		.uleb128 0x1
 3570 0cd5 51       		.byte	0x51
 3571 0cd6 02       		.uleb128 0x2
 3572 0cd7 74       		.byte	0x74
 3573 0cd8 00       		.sleb128 0
 3574 0cd9 00       		.byte	0
 3575 0cda 12       		.uleb128 0x12
 3576 0cdb 18000000 		.4byte	.LVL180
 3577 0cdf 470C0000 		.4byte	0xc47
 3578 0ce3 10       		.uleb128 0x10
 3579 0ce4 01       		.uleb128 0x1
 3580 0ce5 50       		.byte	0x50
 3581 0ce6 02       		.uleb128 0x2
 3582 0ce7 74       		.byte	0x74
 3583 0ce8 00       		.sleb128 0
 3584 0ce9 00       		.byte	0
 3585 0cea 00       		.byte	0
 3586 0ceb 14       		.uleb128 0x14
 3587 0cec E8020000 		.4byte	.LASF111
 3588 0cf0 01       		.byte	0x1
 3589 0cf1 8502     		.2byte	0x285
 3590 0cf3 00000000 		.4byte	.LFB39
 3591 0cf7 24000000 		.4byte	.LFE39-.LFB39
 3592 0cfb 01       		.uleb128 0x1
 3593 0cfc 9C       		.byte	0x9c
 3594 0cfd 7B0D0000 		.4byte	0xd7b
 3595 0d01 17       		.uleb128 0x17
 3596 0d02 AB030000 		.4byte	.LASF63
 3597 0d06 01       		.byte	0x1
 3598 0d07 8502     		.2byte	0x285
 3599 0d09 83000000 		.4byte	0x83
 3600 0d0d F4070000 		.4byte	.LLST58
 3601 0d11 19       		.uleb128 0x19
 3602 0d12 7F050000 		.4byte	.LASF112
 3603 0d16 01       		.byte	0x1
 3604 0d17 8702     		.2byte	0x287
 3605 0d19 83000000 		.4byte	0x83
 3606 0d1d 0C       		.byte	0xc
 3607 0d1e 19       		.uleb128 0x19
 3608 0d1f C2080000 		.4byte	.LASF113
 3609 0d23 01       		.byte	0x1
 3610 0d24 8802     		.2byte	0x288
 3611 0d26 83000000 		.4byte	0x83
 3612 0d2a 00       		.byte	0
 3613 0d2b 19       		.uleb128 0x19
 3614 0d2c 6F080000 		.4byte	.LASF114
 3615 0d30 01       		.byte	0x1
 3616 0d31 8902     		.2byte	0x289
 3617 0d33 83000000 		.4byte	0x83
 3618 0d37 0C       		.byte	0xc
 3619 0d38 13       		.uleb128 0x13
 3620 0d39 6900     		.ascii	"i\000"
 3621 0d3b 01       		.byte	0x1
 3622 0d3c 8A02     		.2byte	0x28a
 3623 0d3e 83000000 		.4byte	0x83
 3624 0d42 15080000 		.4byte	.LLST59
ARM GAS  C:\Users\SHOZO\AppData\Local\Temp\cc3BkmVy.s 			page 116


 3625 0d46 15       		.uleb128 0x15
 3626 0d47 F0000000 		.4byte	.LASF55
 3627 0d4b 01       		.byte	0x1
 3628 0d4c 8B02     		.2byte	0x28b
 3629 0d4e 83000000 		.4byte	0x83
 3630 0d52 34080000 		.4byte	.LLST60
 3631 0d56 0F       		.uleb128 0xf
 3632 0d57 0E000000 		.4byte	.LVL186
 3633 0d5b E8100000 		.4byte	0x10e8
 3634 0d5f 6A0D0000 		.4byte	0xd6a
 3635 0d63 10       		.uleb128 0x10
 3636 0d64 01       		.uleb128 0x1
 3637 0d65 51       		.byte	0x51
 3638 0d66 02       		.uleb128 0x2
 3639 0d67 74       		.byte	0x74
 3640 0d68 00       		.sleb128 0
 3641 0d69 00       		.byte	0
 3642 0d6a 12       		.uleb128 0x12
 3643 0d6b 18000000 		.4byte	.LVL188
 3644 0d6f 470C0000 		.4byte	0xc47
 3645 0d73 10       		.uleb128 0x10
 3646 0d74 01       		.uleb128 0x1
 3647 0d75 50       		.byte	0x50
 3648 0d76 02       		.uleb128 0x2
 3649 0d77 74       		.byte	0x74
 3650 0d78 00       		.sleb128 0
 3651 0d79 00       		.byte	0
 3652 0d7a 00       		.byte	0
 3653 0d7b 16       		.uleb128 0x16
 3654 0d7c 88080000 		.4byte	.LASF115
 3655 0d80 01       		.byte	0x1
 3656 0d81 D406     		.2byte	0x6d4
 3657 0d83 77000000 		.4byte	0x77
 3658 0d87 00000000 		.4byte	.LFB61
 3659 0d8b 7C000000 		.4byte	.LFE61-.LFB61
 3660 0d8f 01       		.uleb128 0x1
 3661 0d90 9C       		.byte	0x9c
 3662 0d91 4D0E0000 		.4byte	0xe4d
 3663 0d95 17       		.uleb128 0x17
 3664 0d96 AB030000 		.4byte	.LASF63
 3665 0d9a 01       		.byte	0x1
 3666 0d9b D406     		.2byte	0x6d4
 3667 0d9d 83000000 		.4byte	0x83
 3668 0da1 47080000 		.4byte	.LLST61
 3669 0da5 15       		.uleb128 0x15
 3670 0da6 D7000000 		.4byte	.LASF116
 3671 0daa 01       		.byte	0x1
 3672 0dab DB06     		.2byte	0x6db
 3673 0dad 6B000000 		.4byte	0x6b
 3674 0db1 8C080000 		.4byte	.LLST62
 3675 0db5 15       		.uleb128 0x15
 3676 0db6 03080000 		.4byte	.LASF117
 3677 0dba 01       		.byte	0x1
 3678 0dbb DC06     		.2byte	0x6dc
 3679 0dbd 6B000000 		.4byte	0x6b
 3680 0dc1 C4080000 		.4byte	.LLST63
 3681 0dc5 19       		.uleb128 0x19
ARM GAS  C:\Users\SHOZO\AppData\Local\Temp\cc3BkmVy.s 			page 117


 3682 0dc6 3B030000 		.4byte	.LASF118
 3683 0dca 01       		.byte	0x1
 3684 0dcb DD06     		.2byte	0x6dd
 3685 0dcd 6B000000 		.4byte	0x6b
 3686 0dd1 10       		.byte	0x10
 3687 0dd2 15       		.uleb128 0x15
 3688 0dd3 5F090000 		.4byte	.LASF89
 3689 0dd7 01       		.byte	0x1
 3690 0dd8 E706     		.2byte	0x6e7
 3691 0dda 6B000000 		.4byte	0x6b
 3692 0dde E2080000 		.4byte	.LLST64
 3693 0de2 15       		.uleb128 0x15
 3694 0de3 DF0B0000 		.4byte	.LASF98
 3695 0de7 01       		.byte	0x1
 3696 0de8 E806     		.2byte	0x6e8
 3697 0dea 77000000 		.4byte	0x77
 3698 0dee 00090000 		.4byte	.LLST65
 3699 0df2 19       		.uleb128 0x19
 3700 0df3 22050000 		.4byte	.LASF87
 3701 0df7 01       		.byte	0x1
 3702 0df8 E906     		.2byte	0x6e9
 3703 0dfa 6B000000 		.4byte	0x6b
 3704 0dfe 00       		.byte	0
 3705 0dff 19       		.uleb128 0x19
 3706 0e00 26030000 		.4byte	.LASF88
 3707 0e04 01       		.byte	0x1
 3708 0e05 EA06     		.2byte	0x6ea
 3709 0e07 6B000000 		.4byte	0x6b
 3710 0e0b 0C       		.byte	0xc
 3711 0e0c 0F       		.uleb128 0xf
 3712 0e0d 18000000 		.4byte	.LVL194
 3713 0e11 FB080000 		.4byte	0x8fb
 3714 0e15 240E0000 		.4byte	0xe24
 3715 0e19 10       		.uleb128 0x10
 3716 0e1a 01       		.uleb128 0x1
 3717 0e1b 50       		.byte	0x50
 3718 0e1c 01       		.uleb128 0x1
 3719 0e1d 30       		.byte	0x30
 3720 0e1e 10       		.uleb128 0x10
 3721 0e1f 01       		.uleb128 0x1
 3722 0e20 51       		.byte	0x51
 3723 0e21 01       		.uleb128 0x1
 3724 0e22 3C       		.byte	0x3c
 3725 0e23 00       		.byte	0
 3726 0e24 0F       		.uleb128 0xf
 3727 0e25 2E000000 		.4byte	.LVL195
 3728 0e29 80090000 		.4byte	0x980
 3729 0e2d 430E0000 		.4byte	0xe43
 3730 0e31 10       		.uleb128 0x10
 3731 0e32 01       		.uleb128 0x1
 3732 0e33 51       		.byte	0x51
 3733 0e34 01       		.uleb128 0x1
 3734 0e35 30       		.byte	0x30
 3735 0e36 10       		.uleb128 0x10
 3736 0e37 01       		.uleb128 0x1
 3737 0e38 52       		.byte	0x52
 3738 0e39 01       		.uleb128 0x1
ARM GAS  C:\Users\SHOZO\AppData\Local\Temp\cc3BkmVy.s 			page 118


 3739 0e3a 3C       		.byte	0x3c
 3740 0e3b 10       		.uleb128 0x10
 3741 0e3c 01       		.uleb128 0x1
 3742 0e3d 53       		.byte	0x53
 3743 0e3e 03       		.uleb128 0x3
 3744 0e3f 0A       		.byte	0xa
 3745 0e40 0009     		.2byte	0x900
 3746 0e42 00       		.byte	0
 3747 0e43 11       		.uleb128 0x11
 3748 0e44 58000000 		.4byte	.LVL202
 3749 0e48 550B0000 		.4byte	0xb55
 3750 0e4c 00       		.byte	0
 3751 0e4d 16       		.uleb128 0x16
 3752 0e4e 02070000 		.4byte	.LASF119
 3753 0e52 01       		.byte	0x1
 3754 0e53 AD0A     		.2byte	0xaad
 3755 0e55 83000000 		.4byte	0x83
 3756 0e59 00000000 		.4byte	.LFB65
 3757 0e5d 0C000000 		.4byte	.LFE65-.LFB65
 3758 0e61 01       		.uleb128 0x1
 3759 0e62 9C       		.byte	0x9c
 3760 0e63 780E0000 		.4byte	0xe78
 3761 0e67 17       		.uleb128 0x17
 3762 0e68 19060000 		.4byte	.LASF52
 3763 0e6c 01       		.byte	0x1
 3764 0e6d AD0A     		.2byte	0xaad
 3765 0e6f 83000000 		.4byte	0x83
 3766 0e73 36090000 		.4byte	.LLST66
 3767 0e77 00       		.byte	0
 3768 0e78 16       		.uleb128 0x16
 3769 0e79 BC070000 		.4byte	.LASF120
 3770 0e7d 01       		.byte	0x1
 3771 0e7e C70A     		.2byte	0xac7
 3772 0e80 6B000000 		.4byte	0x6b
 3773 0e84 00000000 		.4byte	.LFB66
 3774 0e88 0C000000 		.4byte	.LFE66-.LFB66
 3775 0e8c 01       		.uleb128 0x1
 3776 0e8d 9C       		.byte	0x9c
 3777 0e8e A30E0000 		.4byte	0xea3
 3778 0e92 17       		.uleb128 0x17
 3779 0e93 19060000 		.4byte	.LASF52
 3780 0e97 01       		.byte	0x1
 3781 0e98 C70A     		.2byte	0xac7
 3782 0e9a 83000000 		.4byte	0x83
 3783 0e9e 57090000 		.4byte	.LLST67
 3784 0ea2 00       		.byte	0
 3785 0ea3 16       		.uleb128 0x16
 3786 0ea4 880B0000 		.4byte	.LASF121
 3787 0ea8 01       		.byte	0x1
 3788 0ea9 E10A     		.2byte	0xae1
 3789 0eab 6B000000 		.4byte	0x6b
 3790 0eaf 00000000 		.4byte	.LFB67
 3791 0eb3 0C000000 		.4byte	.LFE67-.LFB67
 3792 0eb7 01       		.uleb128 0x1
 3793 0eb8 9C       		.byte	0x9c
 3794 0eb9 CE0E0000 		.4byte	0xece
 3795 0ebd 17       		.uleb128 0x17
ARM GAS  C:\Users\SHOZO\AppData\Local\Temp\cc3BkmVy.s 			page 119


 3796 0ebe AB030000 		.4byte	.LASF63
 3797 0ec2 01       		.byte	0x1
 3798 0ec3 E10A     		.2byte	0xae1
 3799 0ec5 83000000 		.4byte	0x83
 3800 0ec9 78090000 		.4byte	.LLST68
 3801 0ecd 00       		.byte	0
 3802 0ece 22       		.uleb128 0x22
 3803 0ecf F9080000 		.4byte	.LASF122
 3804 0ed3 01       		.byte	0x1
 3805 0ed4 FB0A     		.2byte	0xafb
 3806 0ed6 00000000 		.4byte	.LFB68
 3807 0eda 0C000000 		.4byte	.LFE68-.LFB68
 3808 0ede 01       		.uleb128 0x1
 3809 0edf 9C       		.byte	0x9c
 3810 0ee0 22       		.uleb128 0x22
 3811 0ee1 33040000 		.4byte	.LASF123
 3812 0ee5 01       		.byte	0x1
 3813 0ee6 140B     		.2byte	0xb14
 3814 0ee8 00000000 		.4byte	.LFB69
 3815 0eec 0C000000 		.4byte	.LFE69-.LFB69
 3816 0ef0 01       		.uleb128 0x1
 3817 0ef1 9C       		.byte	0x9c
 3818 0ef2 1B       		.uleb128 0x1b
 3819 0ef3 020F0000 		.4byte	0xf02
 3820 0ef7 020F0000 		.4byte	0xf02
 3821 0efb 1C       		.uleb128 0x1c
 3822 0efc BC000000 		.4byte	0xbc
 3823 0f00 00       		.byte	0
 3824 0f01 00       		.byte	0
 3825 0f02 08       		.uleb128 0x8
 3826 0f03 77000000 		.4byte	0x77
 3827 0f07 23       		.uleb128 0x23
 3828 0f08 A20A0000 		.4byte	.LASF124
 3829 0f0c 01       		.byte	0x1
 3830 0f0d 5D       		.byte	0x5d
 3831 0f0e 150F0000 		.4byte	0xf15
 3832 0f12 02       		.byte	0x2
 3833 0f13 00       		.byte	0
 3834 0f14 09       		.byte	0x9
 3835 0f15 08       		.uleb128 0x8
 3836 0f16 F20E0000 		.4byte	0xef2
 3837 0f1a 23       		.uleb128 0x23
 3838 0f1b B2030000 		.4byte	.LASF125
 3839 0f1f 01       		.byte	0x1
 3840 0f20 61       		.byte	0x61
 3841 0f21 270F0000 		.4byte	0xf27
 3842 0f25 01       		.byte	0x1
 3843 0f26 10       		.byte	0x10
 3844 0f27 08       		.uleb128 0x8
 3845 0f28 88070000 		.4byte	0x788
 3846 0f2c 24       		.uleb128 0x24
 3847 0f2d 90010000 		.4byte	.LASF126
 3848 0f31 01       		.byte	0x1
 3849 0f32 65       		.byte	0x65
 3850 0f33 5B0A0000 		.4byte	0xa5b
 3851 0f37 05       		.uleb128 0x5
 3852 0f38 03       		.byte	0x3
ARM GAS  C:\Users\SHOZO\AppData\Local\Temp\cc3BkmVy.s 			page 120


 3853 0f39 14000000 		.4byte	CapSense_posFiltersData
 3854 0f3d 1B       		.uleb128 0x1b
 3855 0f3e 77000000 		.4byte	0x77
 3856 0f42 4D0F0000 		.4byte	0xf4d
 3857 0f46 1C       		.uleb128 0x1c
 3858 0f47 BC000000 		.4byte	0xbc
 3859 0f4b 0B       		.byte	0xb
 3860 0f4c 00       		.byte	0
 3861 0f4d 25       		.uleb128 0x25
 3862 0f4e A9070000 		.4byte	.LASF127
 3863 0f52 01       		.byte	0x1
 3864 0f53 2C       		.byte	0x2c
 3865 0f54 3D0F0000 		.4byte	0xf3d
 3866 0f58 1B       		.uleb128 0x1b
 3867 0f59 6B000000 		.4byte	0x6b
 3868 0f5d 680F0000 		.4byte	0xf68
 3869 0f61 1C       		.uleb128 0x1c
 3870 0f62 BC000000 		.4byte	0xbc
 3871 0f66 01       		.byte	0x1
 3872 0f67 00       		.byte	0
 3873 0f68 25       		.uleb128 0x25
 3874 0f69 91030000 		.4byte	.LASF128
 3875 0f6d 01       		.byte	0x1
 3876 0f6e 2D       		.byte	0x2d
 3877 0f6f 580F0000 		.4byte	0xf58
 3878 0f73 1B       		.uleb128 0x1b
 3879 0f74 F3010000 		.4byte	0x1f3
 3880 0f78 830F0000 		.4byte	0xf83
 3881 0f7c 1C       		.uleb128 0x1c
 3882 0f7d BC000000 		.4byte	0xbc
 3883 0f81 0B       		.byte	0xb
 3884 0f82 00       		.byte	0
 3885 0f83 25       		.uleb128 0x25
 3886 0f84 01040000 		.4byte	.LASF129
 3887 0f88 01       		.byte	0x1
 3888 0f89 2E       		.byte	0x2e
 3889 0f8a 8E0F0000 		.4byte	0xf8e
 3890 0f8e 08       		.uleb128 0x8
 3891 0f8f 730F0000 		.4byte	0xf73
 3892 0f93 26       		.uleb128 0x26
 3893 0f94 47090000 		.4byte	.LASF130
 3894 0f98 01       		.byte	0x1
 3895 0f99 34       		.byte	0x34
 3896 0f9a 3D0F0000 		.4byte	0xf3d
 3897 0f9e 05       		.uleb128 0x5
 3898 0f9f 03       		.byte	0x3
 3899 0fa0 00000000 		.4byte	CapSense_sensorBaseline
 3900 0fa4 1B       		.uleb128 0x1b
 3901 0fa5 6B000000 		.4byte	0x6b
 3902 0fa9 B40F0000 		.4byte	0xfb4
 3903 0fad 1C       		.uleb128 0x1c
 3904 0fae BC000000 		.4byte	0xbc
 3905 0fb2 0B       		.byte	0xb
 3906 0fb3 00       		.byte	0
 3907 0fb4 26       		.uleb128 0x26
 3908 0fb5 00000000 		.4byte	.LASF131
 3909 0fb9 01       		.byte	0x1
ARM GAS  C:\Users\SHOZO\AppData\Local\Temp\cc3BkmVy.s 			page 121


 3910 0fba 35       		.byte	0x35
 3911 0fbb A40F0000 		.4byte	0xfa4
 3912 0fbf 05       		.uleb128 0x5
 3913 0fc0 03       		.byte	0x3
 3914 0fc1 00000000 		.4byte	CapSense_sensorBaselineLow
 3915 0fc5 26       		.uleb128 0x26
 3916 0fc6 54020000 		.4byte	.LASF132
 3917 0fca 01       		.byte	0x1
 3918 0fcb 36       		.byte	0x36
 3919 0fcc A40F0000 		.4byte	0xfa4
 3920 0fd0 05       		.uleb128 0x5
 3921 0fd1 03       		.byte	0x3
 3922 0fd2 00000000 		.4byte	CapSense_sensorSignal
 3923 0fd6 26       		.uleb128 0x26
 3924 0fd7 E80B0000 		.4byte	.LASF133
 3925 0fdb 01       		.byte	0x1
 3926 0fdc 37       		.byte	0x37
 3927 0fdd 580F0000 		.4byte	0xf58
 3928 0fe1 05       		.uleb128 0x5
 3929 0fe2 03       		.byte	0x3
 3930 0fe3 00000000 		.4byte	CapSense_sensorOnMask
 3931 0fe7 26       		.uleb128 0x26
 3932 0fe8 41000000 		.4byte	.LASF134
 3933 0fec 01       		.byte	0x1
 3934 0fed 39       		.byte	0x39
 3935 0fee A40F0000 		.4byte	0xfa4
 3936 0ff2 05       		.uleb128 0x5
 3937 0ff3 03       		.byte	0x3
 3938 0ff4 00000000 		.4byte	CapSense_lowBaselineResetCnt
 3939 0ff8 26       		.uleb128 0x26
 3940 0ff9 17090000 		.4byte	.LASF135
 3941 0ffd 01       		.byte	0x1
 3942 0ffe 3A       		.byte	0x3a
 3943 0fff A40F0000 		.4byte	0xfa4
 3944 1003 05       		.uleb128 0x5
 3945 1004 03       		.byte	0x3
 3946 1005 00000000 		.4byte	CapSense_lowBaselineReset
 3947 1009 26       		.uleb128 0x26
 3948 100a CA030000 		.4byte	.LASF136
 3949 100e 01       		.byte	0x1
 3950 100f 49       		.byte	0x49
 3951 1010 88070000 		.4byte	0x788
 3952 1014 05       		.uleb128 0x5
 3953 1015 03       		.byte	0x3
 3954 1016 00000000 		.4byte	CapSense_fingerThreshold
 3955 101a 26       		.uleb128 0x26
 3956 101b 020A0000 		.4byte	.LASF137
 3957 101f 01       		.byte	0x1
 3958 1020 4B       		.byte	0x4b
 3959 1021 88070000 		.4byte	0x788
 3960 1025 05       		.uleb128 0x5
 3961 1026 03       		.byte	0x3
 3962 1027 00000000 		.4byte	CapSense_noiseThreshold
 3963 102b 26       		.uleb128 0x26
 3964 102c C9050000 		.4byte	.LASF138
 3965 1030 01       		.byte	0x1
 3966 1031 4D       		.byte	0x4d
ARM GAS  C:\Users\SHOZO\AppData\Local\Temp\cc3BkmVy.s 			page 122


 3967 1032 88070000 		.4byte	0x788
 3968 1036 05       		.uleb128 0x5
 3969 1037 03       		.byte	0x3
 3970 1038 00000000 		.4byte	CapSense_negativeNoiseThreshold
 3971 103c 26       		.uleb128 0x26
 3972 103d 06030000 		.4byte	.LASF139
 3973 1041 01       		.byte	0x1
 3974 1042 4F       		.byte	0x4f
 3975 1043 88070000 		.4byte	0x788
 3976 1047 05       		.uleb128 0x5
 3977 1048 03       		.byte	0x3
 3978 1049 00000000 		.4byte	CapSense_hysteresis
 3979 104d 26       		.uleb128 0x26
 3980 104e B8010000 		.4byte	.LASF140
 3981 1052 01       		.byte	0x1
 3982 1053 51       		.byte	0x51
 3983 1054 88070000 		.4byte	0x788
 3984 1058 05       		.uleb128 0x5
 3985 1059 03       		.byte	0x3
 3986 105a 00000000 		.4byte	CapSense_debounce
 3987 105e 1B       		.uleb128 0x1b
 3988 105f F3010000 		.4byte	0x1f3
 3989 1063 6E100000 		.4byte	0x106e
 3990 1067 1C       		.uleb128 0x1c
 3991 1068 BC000000 		.4byte	0xbc
 3992 106c 00       		.byte	0
 3993 106d 00       		.byte	0
 3994 106e 26       		.uleb128 0x26
 3995 106f 6A020000 		.4byte	.LASF141
 3996 1073 01       		.byte	0x1
 3997 1074 55       		.byte	0x55
 3998 1075 7F100000 		.4byte	0x107f
 3999 1079 05       		.uleb128 0x5
 4000 107a 03       		.byte	0x3
 4001 107b 00000000 		.4byte	CapSense_rawDataIndex
 4002 107f 08       		.uleb128 0x8
 4003 1080 5E100000 		.4byte	0x105e
 4004 1084 26       		.uleb128 0x26
 4005 1085 B0050000 		.4byte	.LASF142
 4006 1089 01       		.byte	0x1
 4007 108a 59       		.byte	0x59
 4008 108b 95100000 		.4byte	0x1095
 4009 108f 05       		.uleb128 0x5
 4010 1090 03       		.byte	0x3
 4011 1091 00000000 		.4byte	CapSense_numberOfSensors
 4012 1095 08       		.uleb128 0x8
 4013 1096 5E100000 		.4byte	0x105e
 4014 109a 26       		.uleb128 0x26
 4015 109b C70B0000 		.4byte	.LASF143
 4016 109f 01       		.byte	0x1
 4017 10a0 27       		.byte	0x27
 4018 10a1 3D0F0000 		.4byte	0xf3d
 4019 10a5 05       		.uleb128 0x5
 4020 10a6 03       		.byte	0x3
 4021 10a7 00000000 		.4byte	CapSense_rawFilterData1
 4022 10ab 25       		.uleb128 0x25
 4023 10ac E0000000 		.4byte	.LASF144
ARM GAS  C:\Users\SHOZO\AppData\Local\Temp\cc3BkmVy.s 			page 123


 4024 10b0 01       		.byte	0x1
 4025 10b1 41       		.byte	0x41
 4026 10b2 C6020000 		.4byte	0x2c6
 4027 10b6 26       		.uleb128 0x26
 4028 10b7 FA0A0000 		.4byte	.LASF145
 4029 10bb 01       		.byte	0x1
 4030 10bc 45       		.byte	0x45
 4031 10bd 6B000000 		.4byte	0x6b
 4032 10c1 05       		.uleb128 0x5
 4033 10c2 03       		.byte	0x3
 4034 10c3 00000000 		.4byte	CapSense_enableRawFilters
 4035 10c7 27       		.uleb128 0x27
 4036 10c8 5B050000 		.4byte	.LASF146
 4037 10cc 5B050000 		.4byte	.LASF146
 4038 10d0 04       		.byte	0x4
 4039 10d1 A7       		.byte	0xa7
 4040 10d2 27       		.uleb128 0x27
 4041 10d3 F4010000 		.4byte	.LASF147
 4042 10d7 F4010000 		.4byte	.LASF147
 4043 10db 04       		.byte	0x4
 4044 10dc A6       		.byte	0xa6
 4045 10dd 27       		.uleb128 0x27
 4046 10de D8060000 		.4byte	.LASF148
 4047 10e2 D8060000 		.4byte	.LASF148
 4048 10e6 04       		.byte	0x4
 4049 10e7 A9       		.byte	0xa9
 4050 10e8 27       		.uleb128 0x27
 4051 10e9 DF0A0000 		.4byte	.LASF149
 4052 10ed DF0A0000 		.4byte	.LASF149
 4053 10f1 03       		.byte	0x3
 4054 10f2 6A       		.byte	0x6a
 4055 10f3 27       		.uleb128 0x27
 4056 10f4 8D0A0000 		.4byte	.LASF150
 4057 10f8 8D0A0000 		.4byte	.LASF150
 4058 10fc 03       		.byte	0x3
 4059 10fd 6B       		.byte	0x6b
 4060 10fe 27       		.uleb128 0x27
 4061 10ff FB050000 		.4byte	.LASF151
 4062 1103 FB050000 		.4byte	.LASF151
 4063 1107 03       		.byte	0x3
 4064 1108 81       		.byte	0x81
 4065 1109 27       		.uleb128 0x27
 4066 110a AC060000 		.4byte	.LASF152
 4067 110e AC060000 		.4byte	.LASF152
 4068 1112 01       		.byte	0x1
 4069 1113 17       		.byte	0x17
 4070 1114 00       		.byte	0
 4071              		.section	.debug_abbrev,"",%progbits
 4072              	.Ldebug_abbrev0:
 4073 0000 01       		.uleb128 0x1
 4074 0001 11       		.uleb128 0x11
 4075 0002 01       		.byte	0x1
 4076 0003 25       		.uleb128 0x25
 4077 0004 0E       		.uleb128 0xe
 4078 0005 13       		.uleb128 0x13
 4079 0006 0B       		.uleb128 0xb
 4080 0007 03       		.uleb128 0x3
ARM GAS  C:\Users\SHOZO\AppData\Local\Temp\cc3BkmVy.s 			page 124


 4081 0008 0E       		.uleb128 0xe
 4082 0009 1B       		.uleb128 0x1b
 4083 000a 0E       		.uleb128 0xe
 4084 000b 55       		.uleb128 0x55
 4085 000c 17       		.uleb128 0x17
 4086 000d 11       		.uleb128 0x11
 4087 000e 01       		.uleb128 0x1
 4088 000f 10       		.uleb128 0x10
 4089 0010 17       		.uleb128 0x17
 4090 0011 00       		.byte	0
 4091 0012 00       		.byte	0
 4092 0013 02       		.uleb128 0x2
 4093 0014 24       		.uleb128 0x24
 4094 0015 00       		.byte	0
 4095 0016 0B       		.uleb128 0xb
 4096 0017 0B       		.uleb128 0xb
 4097 0018 3E       		.uleb128 0x3e
 4098 0019 0B       		.uleb128 0xb
 4099 001a 03       		.uleb128 0x3
 4100 001b 0E       		.uleb128 0xe
 4101 001c 00       		.byte	0
 4102 001d 00       		.byte	0
 4103 001e 03       		.uleb128 0x3
 4104 001f 24       		.uleb128 0x24
 4105 0020 00       		.byte	0
 4106 0021 0B       		.uleb128 0xb
 4107 0022 0B       		.uleb128 0xb
 4108 0023 3E       		.uleb128 0x3e
 4109 0024 0B       		.uleb128 0xb
 4110 0025 03       		.uleb128 0x3
 4111 0026 08       		.uleb128 0x8
 4112 0027 00       		.byte	0
 4113 0028 00       		.byte	0
 4114 0029 04       		.uleb128 0x4
 4115 002a 16       		.uleb128 0x16
 4116 002b 00       		.byte	0
 4117 002c 03       		.uleb128 0x3
 4118 002d 0E       		.uleb128 0xe
 4119 002e 3A       		.uleb128 0x3a
 4120 002f 0B       		.uleb128 0xb
 4121 0030 3B       		.uleb128 0x3b
 4122 0031 05       		.uleb128 0x5
 4123 0032 49       		.uleb128 0x49
 4124 0033 13       		.uleb128 0x13
 4125 0034 00       		.byte	0
 4126 0035 00       		.byte	0
 4127 0036 05       		.uleb128 0x5
 4128 0037 13       		.uleb128 0x13
 4129 0038 01       		.byte	0x1
 4130 0039 0B       		.uleb128 0xb
 4131 003a 0B       		.uleb128 0xb
 4132 003b 3A       		.uleb128 0x3a
 4133 003c 0B       		.uleb128 0xb
 4134 003d 3B       		.uleb128 0x3b
 4135 003e 0B       		.uleb128 0xb
 4136 003f 01       		.uleb128 0x1
 4137 0040 13       		.uleb128 0x13
ARM GAS  C:\Users\SHOZO\AppData\Local\Temp\cc3BkmVy.s 			page 125


 4138 0041 00       		.byte	0
 4139 0042 00       		.byte	0
 4140 0043 06       		.uleb128 0x6
 4141 0044 0D       		.uleb128 0xd
 4142 0045 00       		.byte	0
 4143 0046 03       		.uleb128 0x3
 4144 0047 0E       		.uleb128 0xe
 4145 0048 3A       		.uleb128 0x3a
 4146 0049 0B       		.uleb128 0xb
 4147 004a 3B       		.uleb128 0x3b
 4148 004b 0B       		.uleb128 0xb
 4149 004c 49       		.uleb128 0x49
 4150 004d 13       		.uleb128 0x13
 4151 004e 38       		.uleb128 0x38
 4152 004f 0B       		.uleb128 0xb
 4153 0050 00       		.byte	0
 4154 0051 00       		.byte	0
 4155 0052 07       		.uleb128 0x7
 4156 0053 0F       		.uleb128 0xf
 4157 0054 00       		.byte	0
 4158 0055 0B       		.uleb128 0xb
 4159 0056 0B       		.uleb128 0xb
 4160 0057 49       		.uleb128 0x49
 4161 0058 13       		.uleb128 0x13
 4162 0059 00       		.byte	0
 4163 005a 00       		.byte	0
 4164 005b 08       		.uleb128 0x8
 4165 005c 26       		.uleb128 0x26
 4166 005d 00       		.byte	0
 4167 005e 49       		.uleb128 0x49
 4168 005f 13       		.uleb128 0x13
 4169 0060 00       		.byte	0
 4170 0061 00       		.byte	0
 4171 0062 09       		.uleb128 0x9
 4172 0063 15       		.uleb128 0x15
 4173 0064 01       		.byte	0x1
 4174 0065 27       		.uleb128 0x27
 4175 0066 19       		.uleb128 0x19
 4176 0067 49       		.uleb128 0x49
 4177 0068 13       		.uleb128 0x13
 4178 0069 01       		.uleb128 0x1
 4179 006a 13       		.uleb128 0x13
 4180 006b 00       		.byte	0
 4181 006c 00       		.byte	0
 4182 006d 0A       		.uleb128 0xa
 4183 006e 05       		.uleb128 0x5
 4184 006f 00       		.byte	0
 4185 0070 49       		.uleb128 0x49
 4186 0071 13       		.uleb128 0x13
 4187 0072 00       		.byte	0
 4188 0073 00       		.byte	0
 4189 0074 0B       		.uleb128 0xb
 4190 0075 15       		.uleb128 0x15
 4191 0076 01       		.byte	0x1
 4192 0077 27       		.uleb128 0x27
 4193 0078 19       		.uleb128 0x19
 4194 0079 01       		.uleb128 0x1
ARM GAS  C:\Users\SHOZO\AppData\Local\Temp\cc3BkmVy.s 			page 126


 4195 007a 13       		.uleb128 0x13
 4196 007b 00       		.byte	0
 4197 007c 00       		.byte	0
 4198 007d 0C       		.uleb128 0xc
 4199 007e 16       		.uleb128 0x16
 4200 007f 00       		.byte	0
 4201 0080 03       		.uleb128 0x3
 4202 0081 0E       		.uleb128 0xe
 4203 0082 3A       		.uleb128 0x3a
 4204 0083 0B       		.uleb128 0xb
 4205 0084 3B       		.uleb128 0x3b
 4206 0085 0B       		.uleb128 0xb
 4207 0086 49       		.uleb128 0x49
 4208 0087 13       		.uleb128 0x13
 4209 0088 00       		.byte	0
 4210 0089 00       		.byte	0
 4211 008a 0D       		.uleb128 0xd
 4212 008b 2E       		.uleb128 0x2e
 4213 008c 01       		.byte	0x1
 4214 008d 3F       		.uleb128 0x3f
 4215 008e 19       		.uleb128 0x19
 4216 008f 03       		.uleb128 0x3
 4217 0090 0E       		.uleb128 0xe
 4218 0091 3A       		.uleb128 0x3a
 4219 0092 0B       		.uleb128 0xb
 4220 0093 3B       		.uleb128 0x3b
 4221 0094 0B       		.uleb128 0xb
 4222 0095 27       		.uleb128 0x27
 4223 0096 19       		.uleb128 0x19
 4224 0097 11       		.uleb128 0x11
 4225 0098 01       		.uleb128 0x1
 4226 0099 12       		.uleb128 0x12
 4227 009a 06       		.uleb128 0x6
 4228 009b 40       		.uleb128 0x40
 4229 009c 18       		.uleb128 0x18
 4230 009d 9742     		.uleb128 0x2117
 4231 009f 19       		.uleb128 0x19
 4232 00a0 01       		.uleb128 0x1
 4233 00a1 13       		.uleb128 0x13
 4234 00a2 00       		.byte	0
 4235 00a3 00       		.byte	0
 4236 00a4 0E       		.uleb128 0xe
 4237 00a5 05       		.uleb128 0x5
 4238 00a6 00       		.byte	0
 4239 00a7 03       		.uleb128 0x3
 4240 00a8 0E       		.uleb128 0xe
 4241 00a9 3A       		.uleb128 0x3a
 4242 00aa 0B       		.uleb128 0xb
 4243 00ab 3B       		.uleb128 0x3b
 4244 00ac 0B       		.uleb128 0xb
 4245 00ad 49       		.uleb128 0x49
 4246 00ae 13       		.uleb128 0x13
 4247 00af 02       		.uleb128 0x2
 4248 00b0 17       		.uleb128 0x17
 4249 00b1 00       		.byte	0
 4250 00b2 00       		.byte	0
 4251 00b3 0F       		.uleb128 0xf
ARM GAS  C:\Users\SHOZO\AppData\Local\Temp\cc3BkmVy.s 			page 127


 4252 00b4 898201   		.uleb128 0x4109
 4253 00b7 01       		.byte	0x1
 4254 00b8 11       		.uleb128 0x11
 4255 00b9 01       		.uleb128 0x1
 4256 00ba 31       		.uleb128 0x31
 4257 00bb 13       		.uleb128 0x13
 4258 00bc 01       		.uleb128 0x1
 4259 00bd 13       		.uleb128 0x13
 4260 00be 00       		.byte	0
 4261 00bf 00       		.byte	0
 4262 00c0 10       		.uleb128 0x10
 4263 00c1 8A8201   		.uleb128 0x410a
 4264 00c4 00       		.byte	0
 4265 00c5 02       		.uleb128 0x2
 4266 00c6 18       		.uleb128 0x18
 4267 00c7 9142     		.uleb128 0x2111
 4268 00c9 18       		.uleb128 0x18
 4269 00ca 00       		.byte	0
 4270 00cb 00       		.byte	0
 4271 00cc 11       		.uleb128 0x11
 4272 00cd 898201   		.uleb128 0x4109
 4273 00d0 00       		.byte	0
 4274 00d1 11       		.uleb128 0x11
 4275 00d2 01       		.uleb128 0x1
 4276 00d3 31       		.uleb128 0x31
 4277 00d4 13       		.uleb128 0x13
 4278 00d5 00       		.byte	0
 4279 00d6 00       		.byte	0
 4280 00d7 12       		.uleb128 0x12
 4281 00d8 898201   		.uleb128 0x4109
 4282 00db 01       		.byte	0x1
 4283 00dc 11       		.uleb128 0x11
 4284 00dd 01       		.uleb128 0x1
 4285 00de 31       		.uleb128 0x31
 4286 00df 13       		.uleb128 0x13
 4287 00e0 00       		.byte	0
 4288 00e1 00       		.byte	0
 4289 00e2 13       		.uleb128 0x13
 4290 00e3 34       		.uleb128 0x34
 4291 00e4 00       		.byte	0
 4292 00e5 03       		.uleb128 0x3
 4293 00e6 08       		.uleb128 0x8
 4294 00e7 3A       		.uleb128 0x3a
 4295 00e8 0B       		.uleb128 0xb
 4296 00e9 3B       		.uleb128 0x3b
 4297 00ea 05       		.uleb128 0x5
 4298 00eb 49       		.uleb128 0x49
 4299 00ec 13       		.uleb128 0x13
 4300 00ed 02       		.uleb128 0x2
 4301 00ee 17       		.uleb128 0x17
 4302 00ef 00       		.byte	0
 4303 00f0 00       		.byte	0
 4304 00f1 14       		.uleb128 0x14
 4305 00f2 2E       		.uleb128 0x2e
 4306 00f3 01       		.byte	0x1
 4307 00f4 3F       		.uleb128 0x3f
 4308 00f5 19       		.uleb128 0x19
ARM GAS  C:\Users\SHOZO\AppData\Local\Temp\cc3BkmVy.s 			page 128


 4309 00f6 03       		.uleb128 0x3
 4310 00f7 0E       		.uleb128 0xe
 4311 00f8 3A       		.uleb128 0x3a
 4312 00f9 0B       		.uleb128 0xb
 4313 00fa 3B       		.uleb128 0x3b
 4314 00fb 05       		.uleb128 0x5
 4315 00fc 27       		.uleb128 0x27
 4316 00fd 19       		.uleb128 0x19
 4317 00fe 11       		.uleb128 0x11
 4318 00ff 01       		.uleb128 0x1
 4319 0100 12       		.uleb128 0x12
 4320 0101 06       		.uleb128 0x6
 4321 0102 40       		.uleb128 0x40
 4322 0103 18       		.uleb128 0x18
 4323 0104 9742     		.uleb128 0x2117
 4324 0106 19       		.uleb128 0x19
 4325 0107 01       		.uleb128 0x1
 4326 0108 13       		.uleb128 0x13
 4327 0109 00       		.byte	0
 4328 010a 00       		.byte	0
 4329 010b 15       		.uleb128 0x15
 4330 010c 34       		.uleb128 0x34
 4331 010d 00       		.byte	0
 4332 010e 03       		.uleb128 0x3
 4333 010f 0E       		.uleb128 0xe
 4334 0110 3A       		.uleb128 0x3a
 4335 0111 0B       		.uleb128 0xb
 4336 0112 3B       		.uleb128 0x3b
 4337 0113 05       		.uleb128 0x5
 4338 0114 49       		.uleb128 0x49
 4339 0115 13       		.uleb128 0x13
 4340 0116 02       		.uleb128 0x2
 4341 0117 17       		.uleb128 0x17
 4342 0118 00       		.byte	0
 4343 0119 00       		.byte	0
 4344 011a 16       		.uleb128 0x16
 4345 011b 2E       		.uleb128 0x2e
 4346 011c 01       		.byte	0x1
 4347 011d 3F       		.uleb128 0x3f
 4348 011e 19       		.uleb128 0x19
 4349 011f 03       		.uleb128 0x3
 4350 0120 0E       		.uleb128 0xe
 4351 0121 3A       		.uleb128 0x3a
 4352 0122 0B       		.uleb128 0xb
 4353 0123 3B       		.uleb128 0x3b
 4354 0124 05       		.uleb128 0x5
 4355 0125 27       		.uleb128 0x27
 4356 0126 19       		.uleb128 0x19
 4357 0127 49       		.uleb128 0x49
 4358 0128 13       		.uleb128 0x13
 4359 0129 11       		.uleb128 0x11
 4360 012a 01       		.uleb128 0x1
 4361 012b 12       		.uleb128 0x12
 4362 012c 06       		.uleb128 0x6
 4363 012d 40       		.uleb128 0x40
 4364 012e 18       		.uleb128 0x18
 4365 012f 9742     		.uleb128 0x2117
ARM GAS  C:\Users\SHOZO\AppData\Local\Temp\cc3BkmVy.s 			page 129


 4366 0131 19       		.uleb128 0x19
 4367 0132 01       		.uleb128 0x1
 4368 0133 13       		.uleb128 0x13
 4369 0134 00       		.byte	0
 4370 0135 00       		.byte	0
 4371 0136 17       		.uleb128 0x17
 4372 0137 05       		.uleb128 0x5
 4373 0138 00       		.byte	0
 4374 0139 03       		.uleb128 0x3
 4375 013a 0E       		.uleb128 0xe
 4376 013b 3A       		.uleb128 0x3a
 4377 013c 0B       		.uleb128 0xb
 4378 013d 3B       		.uleb128 0x3b
 4379 013e 05       		.uleb128 0x5
 4380 013f 49       		.uleb128 0x49
 4381 0140 13       		.uleb128 0x13
 4382 0141 02       		.uleb128 0x2
 4383 0142 17       		.uleb128 0x17
 4384 0143 00       		.byte	0
 4385 0144 00       		.byte	0
 4386 0145 18       		.uleb128 0x18
 4387 0146 05       		.uleb128 0x5
 4388 0147 00       		.byte	0
 4389 0148 03       		.uleb128 0x3
 4390 0149 0E       		.uleb128 0xe
 4391 014a 3A       		.uleb128 0x3a
 4392 014b 0B       		.uleb128 0xb
 4393 014c 3B       		.uleb128 0x3b
 4394 014d 05       		.uleb128 0x5
 4395 014e 49       		.uleb128 0x49
 4396 014f 13       		.uleb128 0x13
 4397 0150 02       		.uleb128 0x2
 4398 0151 18       		.uleb128 0x18
 4399 0152 00       		.byte	0
 4400 0153 00       		.byte	0
 4401 0154 19       		.uleb128 0x19
 4402 0155 34       		.uleb128 0x34
 4403 0156 00       		.byte	0
 4404 0157 03       		.uleb128 0x3
 4405 0158 0E       		.uleb128 0xe
 4406 0159 3A       		.uleb128 0x3a
 4407 015a 0B       		.uleb128 0xb
 4408 015b 3B       		.uleb128 0x3b
 4409 015c 05       		.uleb128 0x5
 4410 015d 49       		.uleb128 0x49
 4411 015e 13       		.uleb128 0x13
 4412 015f 1C       		.uleb128 0x1c
 4413 0160 0B       		.uleb128 0xb
 4414 0161 00       		.byte	0
 4415 0162 00       		.byte	0
 4416 0163 1A       		.uleb128 0x1a
 4417 0164 34       		.uleb128 0x34
 4418 0165 00       		.byte	0
 4419 0166 03       		.uleb128 0x3
 4420 0167 0E       		.uleb128 0xe
 4421 0168 3A       		.uleb128 0x3a
 4422 0169 0B       		.uleb128 0xb
ARM GAS  C:\Users\SHOZO\AppData\Local\Temp\cc3BkmVy.s 			page 130


 4423 016a 3B       		.uleb128 0x3b
 4424 016b 05       		.uleb128 0x5
 4425 016c 49       		.uleb128 0x49
 4426 016d 13       		.uleb128 0x13
 4427 016e 02       		.uleb128 0x2
 4428 016f 18       		.uleb128 0x18
 4429 0170 00       		.byte	0
 4430 0171 00       		.byte	0
 4431 0172 1B       		.uleb128 0x1b
 4432 0173 01       		.uleb128 0x1
 4433 0174 01       		.byte	0x1
 4434 0175 49       		.uleb128 0x49
 4435 0176 13       		.uleb128 0x13
 4436 0177 01       		.uleb128 0x1
 4437 0178 13       		.uleb128 0x13
 4438 0179 00       		.byte	0
 4439 017a 00       		.byte	0
 4440 017b 1C       		.uleb128 0x1c
 4441 017c 21       		.uleb128 0x21
 4442 017d 00       		.byte	0
 4443 017e 49       		.uleb128 0x49
 4444 017f 13       		.uleb128 0x13
 4445 0180 2F       		.uleb128 0x2f
 4446 0181 0B       		.uleb128 0xb
 4447 0182 00       		.byte	0
 4448 0183 00       		.byte	0
 4449 0184 1D       		.uleb128 0x1d
 4450 0185 2E       		.uleb128 0x2e
 4451 0186 01       		.byte	0x1
 4452 0187 3F       		.uleb128 0x3f
 4453 0188 19       		.uleb128 0x19
 4454 0189 03       		.uleb128 0x3
 4455 018a 0E       		.uleb128 0xe
 4456 018b 3A       		.uleb128 0x3a
 4457 018c 0B       		.uleb128 0xb
 4458 018d 3B       		.uleb128 0x3b
 4459 018e 05       		.uleb128 0x5
 4460 018f 27       		.uleb128 0x27
 4461 0190 19       		.uleb128 0x19
 4462 0191 49       		.uleb128 0x49
 4463 0192 13       		.uleb128 0x13
 4464 0193 11       		.uleb128 0x11
 4465 0194 01       		.uleb128 0x1
 4466 0195 12       		.uleb128 0x12
 4467 0196 06       		.uleb128 0x6
 4468 0197 40       		.uleb128 0x40
 4469 0198 18       		.uleb128 0x18
 4470 0199 9642     		.uleb128 0x2116
 4471 019b 19       		.uleb128 0x19
 4472 019c 01       		.uleb128 0x1
 4473 019d 13       		.uleb128 0x13
 4474 019e 00       		.byte	0
 4475 019f 00       		.byte	0
 4476 01a0 1E       		.uleb128 0x1e
 4477 01a1 05       		.uleb128 0x5
 4478 01a2 00       		.byte	0
 4479 01a3 03       		.uleb128 0x3
ARM GAS  C:\Users\SHOZO\AppData\Local\Temp\cc3BkmVy.s 			page 131


 4480 01a4 08       		.uleb128 0x8
 4481 01a5 3A       		.uleb128 0x3a
 4482 01a6 0B       		.uleb128 0xb
 4483 01a7 3B       		.uleb128 0x3b
 4484 01a8 05       		.uleb128 0x5
 4485 01a9 49       		.uleb128 0x49
 4486 01aa 13       		.uleb128 0x13
 4487 01ab 02       		.uleb128 0x2
 4488 01ac 17       		.uleb128 0x17
 4489 01ad 00       		.byte	0
 4490 01ae 00       		.byte	0
 4491 01af 1F       		.uleb128 0x1f
 4492 01b0 05       		.uleb128 0x5
 4493 01b1 00       		.byte	0
 4494 01b2 03       		.uleb128 0x3
 4495 01b3 08       		.uleb128 0x8
 4496 01b4 3A       		.uleb128 0x3a
 4497 01b5 0B       		.uleb128 0xb
 4498 01b6 3B       		.uleb128 0x3b
 4499 01b7 05       		.uleb128 0x5
 4500 01b8 49       		.uleb128 0x49
 4501 01b9 13       		.uleb128 0x13
 4502 01ba 02       		.uleb128 0x2
 4503 01bb 18       		.uleb128 0x18
 4504 01bc 00       		.byte	0
 4505 01bd 00       		.byte	0
 4506 01be 20       		.uleb128 0x20
 4507 01bf 34       		.uleb128 0x34
 4508 01c0 00       		.byte	0
 4509 01c1 03       		.uleb128 0x3
 4510 01c2 08       		.uleb128 0x8
 4511 01c3 3A       		.uleb128 0x3a
 4512 01c4 0B       		.uleb128 0xb
 4513 01c5 3B       		.uleb128 0x3b
 4514 01c6 05       		.uleb128 0x5
 4515 01c7 49       		.uleb128 0x49
 4516 01c8 13       		.uleb128 0x13
 4517 01c9 00       		.byte	0
 4518 01ca 00       		.byte	0
 4519 01cb 21       		.uleb128 0x21
 4520 01cc 34       		.uleb128 0x34
 4521 01cd 00       		.byte	0
 4522 01ce 03       		.uleb128 0x3
 4523 01cf 0E       		.uleb128 0xe
 4524 01d0 3A       		.uleb128 0x3a
 4525 01d1 0B       		.uleb128 0xb
 4526 01d2 3B       		.uleb128 0x3b
 4527 01d3 05       		.uleb128 0x5
 4528 01d4 49       		.uleb128 0x49
 4529 01d5 13       		.uleb128 0x13
 4530 01d6 00       		.byte	0
 4531 01d7 00       		.byte	0
 4532 01d8 22       		.uleb128 0x22
 4533 01d9 2E       		.uleb128 0x2e
 4534 01da 00       		.byte	0
 4535 01db 3F       		.uleb128 0x3f
 4536 01dc 19       		.uleb128 0x19
ARM GAS  C:\Users\SHOZO\AppData\Local\Temp\cc3BkmVy.s 			page 132


 4537 01dd 03       		.uleb128 0x3
 4538 01de 0E       		.uleb128 0xe
 4539 01df 3A       		.uleb128 0x3a
 4540 01e0 0B       		.uleb128 0xb
 4541 01e1 3B       		.uleb128 0x3b
 4542 01e2 05       		.uleb128 0x5
 4543 01e3 27       		.uleb128 0x27
 4544 01e4 19       		.uleb128 0x19
 4545 01e5 11       		.uleb128 0x11
 4546 01e6 01       		.uleb128 0x1
 4547 01e7 12       		.uleb128 0x12
 4548 01e8 06       		.uleb128 0x6
 4549 01e9 40       		.uleb128 0x40
 4550 01ea 18       		.uleb128 0x18
 4551 01eb 9742     		.uleb128 0x2117
 4552 01ed 19       		.uleb128 0x19
 4553 01ee 00       		.byte	0
 4554 01ef 00       		.byte	0
 4555 01f0 23       		.uleb128 0x23
 4556 01f1 34       		.uleb128 0x34
 4557 01f2 00       		.byte	0
 4558 01f3 03       		.uleb128 0x3
 4559 01f4 0E       		.uleb128 0xe
 4560 01f5 3A       		.uleb128 0x3a
 4561 01f6 0B       		.uleb128 0xb
 4562 01f7 3B       		.uleb128 0x3b
 4563 01f8 0B       		.uleb128 0xb
 4564 01f9 49       		.uleb128 0x49
 4565 01fa 13       		.uleb128 0x13
 4566 01fb 1C       		.uleb128 0x1c
 4567 01fc 0A       		.uleb128 0xa
 4568 01fd 00       		.byte	0
 4569 01fe 00       		.byte	0
 4570 01ff 24       		.uleb128 0x24
 4571 0200 34       		.uleb128 0x34
 4572 0201 00       		.byte	0
 4573 0202 03       		.uleb128 0x3
 4574 0203 0E       		.uleb128 0xe
 4575 0204 3A       		.uleb128 0x3a
 4576 0205 0B       		.uleb128 0xb
 4577 0206 3B       		.uleb128 0x3b
 4578 0207 0B       		.uleb128 0xb
 4579 0208 49       		.uleb128 0x49
 4580 0209 13       		.uleb128 0x13
 4581 020a 02       		.uleb128 0x2
 4582 020b 18       		.uleb128 0x18
 4583 020c 00       		.byte	0
 4584 020d 00       		.byte	0
 4585 020e 25       		.uleb128 0x25
 4586 020f 34       		.uleb128 0x34
 4587 0210 00       		.byte	0
 4588 0211 03       		.uleb128 0x3
 4589 0212 0E       		.uleb128 0xe
 4590 0213 3A       		.uleb128 0x3a
 4591 0214 0B       		.uleb128 0xb
 4592 0215 3B       		.uleb128 0x3b
 4593 0216 0B       		.uleb128 0xb
ARM GAS  C:\Users\SHOZO\AppData\Local\Temp\cc3BkmVy.s 			page 133


 4594 0217 49       		.uleb128 0x49
 4595 0218 13       		.uleb128 0x13
 4596 0219 3F       		.uleb128 0x3f
 4597 021a 19       		.uleb128 0x19
 4598 021b 3C       		.uleb128 0x3c
 4599 021c 19       		.uleb128 0x19
 4600 021d 00       		.byte	0
 4601 021e 00       		.byte	0
 4602 021f 26       		.uleb128 0x26
 4603 0220 34       		.uleb128 0x34
 4604 0221 00       		.byte	0
 4605 0222 03       		.uleb128 0x3
 4606 0223 0E       		.uleb128 0xe
 4607 0224 3A       		.uleb128 0x3a
 4608 0225 0B       		.uleb128 0xb
 4609 0226 3B       		.uleb128 0x3b
 4610 0227 0B       		.uleb128 0xb
 4611 0228 49       		.uleb128 0x49
 4612 0229 13       		.uleb128 0x13
 4613 022a 3F       		.uleb128 0x3f
 4614 022b 19       		.uleb128 0x19
 4615 022c 02       		.uleb128 0x2
 4616 022d 18       		.uleb128 0x18
 4617 022e 00       		.byte	0
 4618 022f 00       		.byte	0
 4619 0230 27       		.uleb128 0x27
 4620 0231 2E       		.uleb128 0x2e
 4621 0232 00       		.byte	0
 4622 0233 3F       		.uleb128 0x3f
 4623 0234 19       		.uleb128 0x19
 4624 0235 3C       		.uleb128 0x3c
 4625 0236 19       		.uleb128 0x19
 4626 0237 6E       		.uleb128 0x6e
 4627 0238 0E       		.uleb128 0xe
 4628 0239 03       		.uleb128 0x3
 4629 023a 0E       		.uleb128 0xe
 4630 023b 3A       		.uleb128 0x3a
 4631 023c 0B       		.uleb128 0xb
 4632 023d 3B       		.uleb128 0x3b
 4633 023e 0B       		.uleb128 0xb
 4634 023f 00       		.byte	0
 4635 0240 00       		.byte	0
 4636 0241 00       		.byte	0
 4637              		.section	.debug_loc,"",%progbits
 4638              	.Ldebug_loc0:
 4639              	.LLST0:
 4640 0000 00000000 		.4byte	.LVL0
 4641 0004 0E000000 		.4byte	.LVL1
 4642 0008 0100     		.2byte	0x1
 4643 000a 50       		.byte	0x50
 4644 000b 0E000000 		.4byte	.LVL1
 4645 000f 28000000 		.4byte	.LFE32
 4646 0013 0400     		.2byte	0x4
 4647 0015 F3       		.byte	0xf3
 4648 0016 01       		.uleb128 0x1
 4649 0017 50       		.byte	0x50
 4650 0018 9F       		.byte	0x9f
ARM GAS  C:\Users\SHOZO\AppData\Local\Temp\cc3BkmVy.s 			page 134


 4651 0019 00000000 		.4byte	0
 4652 001d 00000000 		.4byte	0
 4653              	.LLST1:
 4654 0021 00000000 		.4byte	.LVL2
 4655 0025 07000000 		.4byte	.LVL3-1
 4656 0029 0100     		.2byte	0x1
 4657 002b 50       		.byte	0x50
 4658 002c 07000000 		.4byte	.LVL3-1
 4659 0030 16000000 		.4byte	.LVL6
 4660 0034 0100     		.2byte	0x1
 4661 0036 54       		.byte	0x54
 4662 0037 16000000 		.4byte	.LVL6
 4663 003b 18000000 		.4byte	.LFE33
 4664 003f 0400     		.2byte	0x4
 4665 0041 F3       		.byte	0xf3
 4666 0042 01       		.uleb128 0x1
 4667 0043 50       		.byte	0x50
 4668 0044 9F       		.byte	0x9f
 4669 0045 00000000 		.4byte	0
 4670 0049 00000000 		.4byte	0
 4671              	.LLST2:
 4672 004d 02000000 		.4byte	.LVL7
 4673 0051 06000000 		.4byte	.LVL8
 4674 0055 0200     		.2byte	0x2
 4675 0057 30       		.byte	0x30
 4676 0058 9F       		.byte	0x9f
 4677 0059 06000000 		.4byte	.LVL8
 4678 005d 12000000 		.4byte	.LVL11
 4679 0061 0100     		.2byte	0x1
 4680 0063 54       		.byte	0x54
 4681 0064 00000000 		.4byte	0
 4682 0068 00000000 		.4byte	0
 4683              	.LLST3:
 4684 006c 12000000 		.4byte	.LVL14
 4685 0070 2A000000 		.4byte	.LVL19
 4686 0074 0100     		.2byte	0x1
 4687 0076 54       		.byte	0x54
 4688 0077 00000000 		.4byte	0
 4689 007b 00000000 		.4byte	0
 4690              	.LLST4:
 4691 007f 1A000000 		.4byte	.LVL15
 4692 0083 20000000 		.4byte	.LVL16
 4693 0087 0100     		.2byte	0x1
 4694 0089 50       		.byte	0x50
 4695 008a 00000000 		.4byte	0
 4696 008e 00000000 		.4byte	0
 4697              	.LLST5:
 4698 0092 00000000 		.4byte	.LVL20
 4699 0096 02000000 		.4byte	.LVL21
 4700 009a 0100     		.2byte	0x1
 4701 009c 50       		.byte	0x50
 4702 009d 02000000 		.4byte	.LVL21
 4703 00a1 0C000000 		.4byte	.LFE40
 4704 00a5 0400     		.2byte	0x4
 4705 00a7 F3       		.byte	0xf3
 4706 00a8 01       		.uleb128 0x1
 4707 00a9 50       		.byte	0x50
ARM GAS  C:\Users\SHOZO\AppData\Local\Temp\cc3BkmVy.s 			page 135


 4708 00aa 9F       		.byte	0x9f
 4709 00ab 00000000 		.4byte	0
 4710 00af 00000000 		.4byte	0
 4711              	.LLST6:
 4712 00b3 00000000 		.4byte	.LVL22
 4713 00b7 02000000 		.4byte	.LVL23
 4714 00bb 0100     		.2byte	0x1
 4715 00bd 50       		.byte	0x50
 4716 00be 02000000 		.4byte	.LVL23
 4717 00c2 0C000000 		.4byte	.LFE41
 4718 00c6 0400     		.2byte	0x4
 4719 00c8 F3       		.byte	0xf3
 4720 00c9 01       		.uleb128 0x1
 4721 00ca 50       		.byte	0x50
 4722 00cb 9F       		.byte	0x9f
 4723 00cc 00000000 		.4byte	0
 4724 00d0 00000000 		.4byte	0
 4725              	.LLST7:
 4726 00d4 00000000 		.4byte	.LVL24
 4727 00d8 04000000 		.4byte	.LVL25
 4728 00dc 0100     		.2byte	0x1
 4729 00de 50       		.byte	0x50
 4730 00df 04000000 		.4byte	.LVL25
 4731 00e3 10000000 		.4byte	.LFE42
 4732 00e7 0400     		.2byte	0x4
 4733 00e9 F3       		.byte	0xf3
 4734 00ea 01       		.uleb128 0x1
 4735 00eb 50       		.byte	0x50
 4736 00ec 9F       		.byte	0x9f
 4737 00ed 00000000 		.4byte	0
 4738 00f1 00000000 		.4byte	0
 4739              	.LLST8:
 4740 00f5 00000000 		.4byte	.LVL26
 4741 00f9 04000000 		.4byte	.LVL27
 4742 00fd 0100     		.2byte	0x1
 4743 00ff 50       		.byte	0x50
 4744 0100 04000000 		.4byte	.LVL27
 4745 0104 10000000 		.4byte	.LFE43
 4746 0108 0400     		.2byte	0x4
 4747 010a F3       		.byte	0xf3
 4748 010b 01       		.uleb128 0x1
 4749 010c 50       		.byte	0x50
 4750 010d 9F       		.byte	0x9f
 4751 010e 00000000 		.4byte	0
 4752 0112 00000000 		.4byte	0
 4753              	.LLST9:
 4754 0116 00000000 		.4byte	.LVL28
 4755 011a 04000000 		.4byte	.LVL29
 4756 011e 0100     		.2byte	0x1
 4757 0120 50       		.byte	0x50
 4758 0121 04000000 		.4byte	.LVL29
 4759 0125 0C000000 		.4byte	.LFE44
 4760 0129 0400     		.2byte	0x4
 4761 012b F3       		.byte	0xf3
 4762 012c 01       		.uleb128 0x1
 4763 012d 50       		.byte	0x50
 4764 012e 9F       		.byte	0x9f
ARM GAS  C:\Users\SHOZO\AppData\Local\Temp\cc3BkmVy.s 			page 136


 4765 012f 00000000 		.4byte	0
 4766 0133 00000000 		.4byte	0
 4767              	.LLST10:
 4768 0137 00000000 		.4byte	.LVL30
 4769 013b 04000000 		.4byte	.LVL31
 4770 013f 0100     		.2byte	0x1
 4771 0141 50       		.byte	0x50
 4772 0142 04000000 		.4byte	.LVL31
 4773 0146 0C000000 		.4byte	.LFE45
 4774 014a 0400     		.2byte	0x4
 4775 014c F3       		.byte	0xf3
 4776 014d 01       		.uleb128 0x1
 4777 014e 50       		.byte	0x50
 4778 014f 9F       		.byte	0x9f
 4779 0150 00000000 		.4byte	0
 4780 0154 00000000 		.4byte	0
 4781              	.LLST11:
 4782 0158 00000000 		.4byte	.LVL32
 4783 015c 04000000 		.4byte	.LVL33
 4784 0160 0100     		.2byte	0x1
 4785 0162 50       		.byte	0x50
 4786 0163 04000000 		.4byte	.LVL33
 4787 0167 0C000000 		.4byte	.LFE46
 4788 016b 0400     		.2byte	0x4
 4789 016d F3       		.byte	0xf3
 4790 016e 01       		.uleb128 0x1
 4791 016f 50       		.byte	0x50
 4792 0170 9F       		.byte	0x9f
 4793 0171 00000000 		.4byte	0
 4794 0175 00000000 		.4byte	0
 4795              	.LLST12:
 4796 0179 00000000 		.4byte	.LVL34
 4797 017d 04000000 		.4byte	.LVL35
 4798 0181 0100     		.2byte	0x1
 4799 0183 50       		.byte	0x50
 4800 0184 04000000 		.4byte	.LVL35
 4801 0188 0C000000 		.4byte	.LFE47
 4802 018c 0400     		.2byte	0x4
 4803 018e F3       		.byte	0xf3
 4804 018f 01       		.uleb128 0x1
 4805 0190 50       		.byte	0x50
 4806 0191 9F       		.byte	0x9f
 4807 0192 00000000 		.4byte	0
 4808 0196 00000000 		.4byte	0
 4809              	.LLST13:
 4810 019a 00000000 		.4byte	.LVL41
 4811 019e 04000000 		.4byte	.LVL42
 4812 01a2 0100     		.2byte	0x1
 4813 01a4 50       		.byte	0x50
 4814 01a5 04000000 		.4byte	.LVL42
 4815 01a9 0C000000 		.4byte	.LFE53
 4816 01ad 0400     		.2byte	0x4
 4817 01af F3       		.byte	0xf3
 4818 01b0 01       		.uleb128 0x1
 4819 01b1 50       		.byte	0x50
 4820 01b2 9F       		.byte	0x9f
 4821 01b3 00000000 		.4byte	0
ARM GAS  C:\Users\SHOZO\AppData\Local\Temp\cc3BkmVy.s 			page 137


 4822 01b7 00000000 		.4byte	0
 4823              	.LLST14:
 4824 01bb 00000000 		.4byte	.LVL43
 4825 01bf 16000000 		.4byte	.LVL48
 4826 01c3 0100     		.2byte	0x1
 4827 01c5 50       		.byte	0x50
 4828 01c6 16000000 		.4byte	.LVL48
 4829 01ca 8C000000 		.4byte	.LVL57
 4830 01ce 0100     		.2byte	0x1
 4831 01d0 54       		.byte	0x54
 4832 01d1 8C000000 		.4byte	.LVL57
 4833 01d5 A4000000 		.4byte	.LFE54
 4834 01d9 0400     		.2byte	0x4
 4835 01db F3       		.byte	0xf3
 4836 01dc 01       		.uleb128 0x1
 4837 01dd 50       		.byte	0x50
 4838 01de 9F       		.byte	0x9f
 4839 01df 00000000 		.4byte	0
 4840 01e3 00000000 		.4byte	0
 4841              	.LLST15:
 4842 01e7 08000000 		.4byte	.LVL44
 4843 01eb 1A000000 		.4byte	.LVL49
 4844 01ef 0100     		.2byte	0x1
 4845 01f1 53       		.byte	0x53
 4846 01f2 00000000 		.4byte	0
 4847 01f6 00000000 		.4byte	0
 4848              	.LLST16:
 4849 01fa 14000000 		.4byte	.LVL47
 4850 01fe 8C000000 		.4byte	.LVL59
 4851 0202 0100     		.2byte	0x1
 4852 0204 57       		.byte	0x57
 4853 0205 00000000 		.4byte	0
 4854 0209 00000000 		.4byte	0
 4855              	.LLST17:
 4856 020d 0C000000 		.4byte	.LVL45
 4857 0211 8C000000 		.4byte	.LVL58
 4858 0215 0100     		.2byte	0x1
 4859 0217 56       		.byte	0x56
 4860 0218 00000000 		.4byte	0
 4861 021c 00000000 		.4byte	0
 4862              	.LLST18:
 4863 0220 10000000 		.4byte	.LVL46
 4864 0224 32000000 		.4byte	.LVL51
 4865 0228 0100     		.2byte	0x1
 4866 022a 55       		.byte	0x55
 4867 022b 4A000000 		.4byte	.LVL53
 4868 022f 54000000 		.4byte	.LVL54
 4869 0233 0100     		.2byte	0x1
 4870 0235 55       		.byte	0x55
 4871 0236 00000000 		.4byte	0
 4872 023a 00000000 		.4byte	0
 4873              	.LLST19:
 4874 023e 00000000 		.4byte	.LVL60
 4875 0242 06000000 		.4byte	.LVL62
 4876 0246 0100     		.2byte	0x1
 4877 0248 50       		.byte	0x50
 4878 0249 06000000 		.4byte	.LVL62
ARM GAS  C:\Users\SHOZO\AppData\Local\Temp\cc3BkmVy.s 			page 138


 4879 024d 1C000000 		.4byte	.LFE55
 4880 0251 0400     		.2byte	0x4
 4881 0253 F3       		.byte	0xf3
 4882 0254 01       		.uleb128 0x1
 4883 0255 50       		.byte	0x50
 4884 0256 9F       		.byte	0x9f
 4885 0257 00000000 		.4byte	0
 4886 025b 00000000 		.4byte	0
 4887              	.LLST20:
 4888 025f 02000000 		.4byte	.LVL61
 4889 0263 06000000 		.4byte	.LVL62
 4890 0267 0200     		.2byte	0x2
 4891 0269 30       		.byte	0x30
 4892 026a 9F       		.byte	0x9f
 4893 026b 06000000 		.4byte	.LVL62
 4894 026f 1A000000 		.4byte	.LVL66
 4895 0273 0100     		.2byte	0x1
 4896 0275 54       		.byte	0x54
 4897 0276 00000000 		.4byte	0
 4898 027a 00000000 		.4byte	0
 4899              	.LLST21:
 4900 027e 02000000 		.4byte	.LVL61
 4901 0282 06000000 		.4byte	.LVL62
 4902 0286 0200     		.2byte	0x2
 4903 0288 30       		.byte	0x30
 4904 0289 9F       		.byte	0x9f
 4905 028a 06000000 		.4byte	.LVL62
 4906 028e 1A000000 		.4byte	.LVL67
 4907 0292 0100     		.2byte	0x1
 4908 0294 55       		.byte	0x55
 4909 0295 1A000000 		.4byte	.LVL67
 4910 0299 1C000000 		.4byte	.LFE55
 4911 029d 0100     		.2byte	0x1
 4912 029f 50       		.byte	0x50
 4913 02a0 00000000 		.4byte	0
 4914 02a4 00000000 		.4byte	0
 4915              	.LLST22:
 4916 02a8 02000000 		.4byte	.LVL68
 4917 02ac 08000000 		.4byte	.LVL69
 4918 02b0 0200     		.2byte	0x2
 4919 02b2 30       		.byte	0x30
 4920 02b3 9F       		.byte	0x9f
 4921 02b4 08000000 		.4byte	.LVL69
 4922 02b8 1C000000 		.4byte	.LVL73
 4923 02bc 0100     		.2byte	0x1
 4924 02be 54       		.byte	0x54
 4925 02bf 00000000 		.4byte	0
 4926 02c3 00000000 		.4byte	0
 4927              	.LLST23:
 4928 02c7 02000000 		.4byte	.LVL68
 4929 02cb 08000000 		.4byte	.LVL69
 4930 02cf 0200     		.2byte	0x2
 4931 02d1 30       		.byte	0x30
 4932 02d2 9F       		.byte	0x9f
 4933 02d3 08000000 		.4byte	.LVL69
 4934 02d7 1C000000 		.4byte	.LVL74
 4935 02db 0100     		.2byte	0x1
ARM GAS  C:\Users\SHOZO\AppData\Local\Temp\cc3BkmVy.s 			page 139


 4936 02dd 55       		.byte	0x55
 4937 02de 1C000000 		.4byte	.LVL74
 4938 02e2 1E000000 		.4byte	.LFE56
 4939 02e6 0100     		.2byte	0x1
 4940 02e8 50       		.byte	0x50
 4941 02e9 00000000 		.4byte	0
 4942 02ed 00000000 		.4byte	0
 4943              	.LLST24:
 4944 02f1 00000000 		.4byte	.LVL75
 4945 02f5 04000000 		.4byte	.LVL77
 4946 02f9 0100     		.2byte	0x1
 4947 02fb 50       		.byte	0x50
 4948 02fc 04000000 		.4byte	.LVL77
 4949 0300 1C000000 		.4byte	.LFE57
 4950 0304 0400     		.2byte	0x4
 4951 0306 F3       		.byte	0xf3
 4952 0307 01       		.uleb128 0x1
 4953 0308 50       		.byte	0x50
 4954 0309 9F       		.byte	0x9f
 4955 030a 00000000 		.4byte	0
 4956 030e 00000000 		.4byte	0
 4957              	.LLST25:
 4958 0312 02000000 		.4byte	.LVL76
 4959 0316 04000000 		.4byte	.LVL77
 4960 031a 0200     		.2byte	0x2
 4961 031c 30       		.byte	0x30
 4962 031d 9F       		.byte	0x9f
 4963 031e 04000000 		.4byte	.LVL77
 4964 0322 10000000 		.4byte	.LVL79
 4965 0326 0100     		.2byte	0x1
 4966 0328 54       		.byte	0x54
 4967 0329 12000000 		.4byte	.LVL80
 4968 032d 16000000 		.4byte	.LVL81
 4969 0331 0100     		.2byte	0x1
 4970 0333 54       		.byte	0x54
 4971 0334 00000000 		.4byte	0
 4972 0338 00000000 		.4byte	0
 4973              	.LLST26:
 4974 033c 00000000 		.4byte	.LVL82
 4975 0340 04000000 		.4byte	.LVL84
 4976 0344 0100     		.2byte	0x1
 4977 0346 50       		.byte	0x50
 4978 0347 04000000 		.4byte	.LVL84
 4979 034b 1C000000 		.4byte	.LFE58
 4980 034f 0400     		.2byte	0x4
 4981 0351 F3       		.byte	0xf3
 4982 0352 01       		.uleb128 0x1
 4983 0353 50       		.byte	0x50
 4984 0354 9F       		.byte	0x9f
 4985 0355 00000000 		.4byte	0
 4986 0359 00000000 		.4byte	0
 4987              	.LLST27:
 4988 035d 02000000 		.4byte	.LVL83
 4989 0361 04000000 		.4byte	.LVL84
 4990 0365 0200     		.2byte	0x2
 4991 0367 30       		.byte	0x30
 4992 0368 9F       		.byte	0x9f
ARM GAS  C:\Users\SHOZO\AppData\Local\Temp\cc3BkmVy.s 			page 140


 4993 0369 04000000 		.4byte	.LVL84
 4994 036d 10000000 		.4byte	.LVL86
 4995 0371 0100     		.2byte	0x1
 4996 0373 54       		.byte	0x54
 4997 0374 12000000 		.4byte	.LVL87
 4998 0378 16000000 		.4byte	.LVL88
 4999 037c 0100     		.2byte	0x1
 5000 037e 54       		.byte	0x54
 5001 037f 00000000 		.4byte	0
 5002 0383 00000000 		.4byte	0
 5003              	.LLST28:
 5004 0387 00000000 		.4byte	.LVL89
 5005 038b 0C000000 		.4byte	.LVL92
 5006 038f 0100     		.2byte	0x1
 5007 0391 50       		.byte	0x50
 5008 0392 0C000000 		.4byte	.LVL92
 5009 0396 2C000000 		.4byte	.LFE59
 5010 039a 0400     		.2byte	0x4
 5011 039c F3       		.byte	0xf3
 5012 039d 01       		.uleb128 0x1
 5013 039e 50       		.byte	0x50
 5014 039f 9F       		.byte	0x9f
 5015 03a0 00000000 		.4byte	0
 5016 03a4 00000000 		.4byte	0
 5017              	.LLST29:
 5018 03a8 08000000 		.4byte	.LVL91
 5019 03ac 10000000 		.4byte	.LVL93
 5020 03b0 0200     		.2byte	0x2
 5021 03b2 30       		.byte	0x30
 5022 03b3 9F       		.byte	0x9f
 5023 03b4 10000000 		.4byte	.LVL93
 5024 03b8 20000000 		.4byte	.LVL96
 5025 03bc 0100     		.2byte	0x1
 5026 03be 53       		.byte	0x53
 5027 03bf 22000000 		.4byte	.LVL97
 5028 03c3 2C000000 		.4byte	.LFE59
 5029 03c7 0100     		.2byte	0x1
 5030 03c9 53       		.byte	0x53
 5031 03ca 00000000 		.4byte	0
 5032 03ce 00000000 		.4byte	0
 5033              	.LLST30:
 5034 03d2 02000000 		.4byte	.LVL90
 5035 03d6 10000000 		.4byte	.LVL93
 5036 03da 0300     		.2byte	0x3
 5037 03dc 09       		.byte	0x9
 5038 03dd FF       		.byte	0xff
 5039 03de 9F       		.byte	0x9f
 5040 03df 10000000 		.4byte	.LVL93
 5041 03e3 2C000000 		.4byte	.LFE59
 5042 03e7 0100     		.2byte	0x1
 5043 03e9 50       		.byte	0x50
 5044 03ea 00000000 		.4byte	0
 5045 03ee 00000000 		.4byte	0
 5046              	.LLST31:
 5047 03f2 02000000 		.4byte	.LVL90
 5048 03f6 10000000 		.4byte	.LVL93
 5049 03fa 0200     		.2byte	0x2
ARM GAS  C:\Users\SHOZO\AppData\Local\Temp\cc3BkmVy.s 			page 141


 5050 03fc 30       		.byte	0x30
 5051 03fd 9F       		.byte	0x9f
 5052 03fe 10000000 		.4byte	.LVL93
 5053 0402 1C000000 		.4byte	.LVL94
 5054 0406 0100     		.2byte	0x1
 5055 0408 56       		.byte	0x56
 5056 0409 1E000000 		.4byte	.LVL95
 5057 040d 26000000 		.4byte	.LVL99
 5058 0411 0100     		.2byte	0x1
 5059 0413 56       		.byte	0x56
 5060 0414 00000000 		.4byte	0
 5061 0418 00000000 		.4byte	0
 5062              	.LLST32:
 5063 041c 08000000 		.4byte	.LVL91
 5064 0420 26000000 		.4byte	.LVL98
 5065 0424 0100     		.2byte	0x1
 5066 0426 55       		.byte	0x55
 5067 0427 00000000 		.4byte	0
 5068 042b 00000000 		.4byte	0
 5069              	.LLST33:
 5070 042f 00000000 		.4byte	.LVL100
 5071 0433 0E000000 		.4byte	.LVL102
 5072 0437 0100     		.2byte	0x1
 5073 0439 50       		.byte	0x50
 5074 043a 0E000000 		.4byte	.LVL102
 5075 043e E4000000 		.4byte	.LFE60
 5076 0442 0400     		.2byte	0x4
 5077 0444 F3       		.byte	0xf3
 5078 0445 01       		.uleb128 0x1
 5079 0446 50       		.byte	0x50
 5080 0447 9F       		.byte	0x9f
 5081 0448 00000000 		.4byte	0
 5082 044c 00000000 		.4byte	0
 5083              	.LLST34:
 5084 0450 00000000 		.4byte	.LVL100
 5085 0454 14000000 		.4byte	.LVL104
 5086 0458 0100     		.2byte	0x1
 5087 045a 51       		.byte	0x51
 5088 045b 14000000 		.4byte	.LVL104
 5089 045f E4000000 		.4byte	.LFE60
 5090 0463 0400     		.2byte	0x4
 5091 0465 F3       		.byte	0xf3
 5092 0466 01       		.uleb128 0x1
 5093 0467 51       		.byte	0x51
 5094 0468 9F       		.byte	0x9f
 5095 0469 00000000 		.4byte	0
 5096 046d 00000000 		.4byte	0
 5097              	.LLST35:
 5098 0471 00000000 		.4byte	.LVL100
 5099 0475 2E000000 		.4byte	.LVL109
 5100 0479 0100     		.2byte	0x1
 5101 047b 52       		.byte	0x52
 5102 047c 2E000000 		.4byte	.LVL109
 5103 0480 E4000000 		.4byte	.LFE60
 5104 0484 0400     		.2byte	0x4
 5105 0486 F3       		.byte	0xf3
 5106 0487 01       		.uleb128 0x1
ARM GAS  C:\Users\SHOZO\AppData\Local\Temp\cc3BkmVy.s 			page 142


 5107 0488 52       		.byte	0x52
 5108 0489 9F       		.byte	0x9f
 5109 048a 00000000 		.4byte	0
 5110 048e 00000000 		.4byte	0
 5111              	.LLST36:
 5112 0492 00000000 		.4byte	.LVL100
 5113 0496 0C000000 		.4byte	.LVL101
 5114 049a 0100     		.2byte	0x1
 5115 049c 53       		.byte	0x53
 5116 049d 0C000000 		.4byte	.LVL101
 5117 04a1 E4000000 		.4byte	.LFE60
 5118 04a5 0400     		.2byte	0x4
 5119 04a7 F3       		.byte	0xf3
 5120 04a8 01       		.uleb128 0x1
 5121 04a9 53       		.byte	0x53
 5122 04aa 9F       		.byte	0x9f
 5123 04ab 00000000 		.4byte	0
 5124 04af 00000000 		.4byte	0
 5125              	.LLST37:
 5126 04b3 00000000 		.4byte	.LVL100
 5127 04b7 0C000000 		.4byte	.LVL101
 5128 04bb 0200     		.2byte	0x2
 5129 04bd 91       		.byte	0x91
 5130 04be 00       		.sleb128 0
 5131 04bf 0C000000 		.4byte	.LVL101
 5132 04c3 10000000 		.4byte	.LVL103
 5133 04c7 0200     		.2byte	0x2
 5134 04c9 73       		.byte	0x73
 5135 04ca 00       		.sleb128 0
 5136 04cb 10000000 		.4byte	.LVL103
 5137 04cf E4000000 		.4byte	.LFE60
 5138 04d3 0200     		.2byte	0x2
 5139 04d5 91       		.byte	0x91
 5140 04d6 00       		.sleb128 0
 5141 04d7 00000000 		.4byte	0
 5142 04db 00000000 		.4byte	0
 5143              	.LLST38:
 5144 04df 14000000 		.4byte	.LVL104
 5145 04e3 1C000000 		.4byte	.LVL105
 5146 04e7 0200     		.2byte	0x2
 5147 04e9 30       		.byte	0x30
 5148 04ea 9F       		.byte	0x9f
 5149 04eb 1C000000 		.4byte	.LVL105
 5150 04ef 1E000000 		.4byte	.LVL106
 5151 04f3 0100     		.2byte	0x1
 5152 04f5 56       		.byte	0x56
 5153 04f6 1E000000 		.4byte	.LVL106
 5154 04fa 20000000 		.4byte	.LVL107
 5155 04fe 0200     		.2byte	0x2
 5156 0500 30       		.byte	0x30
 5157 0501 9F       		.byte	0x9f
 5158 0502 20000000 		.4byte	.LVL107
 5159 0506 38000000 		.4byte	.LVL110
 5160 050a 0100     		.2byte	0x1
 5161 050c 56       		.byte	0x56
 5162 050d 44000000 		.4byte	.LVL111
 5163 0511 5E000000 		.4byte	.LVL114
ARM GAS  C:\Users\SHOZO\AppData\Local\Temp\cc3BkmVy.s 			page 143


 5164 0515 0100     		.2byte	0x1
 5165 0517 56       		.byte	0x56
 5166 0518 00000000 		.4byte	0
 5167 051c 00000000 		.4byte	0
 5168              	.LLST39:
 5169 0520 24000000 		.4byte	.LVL108
 5170 0524 CC000000 		.4byte	.LVL121
 5171 0528 0100     		.2byte	0x1
 5172 052a 55       		.byte	0x55
 5173 052b 00000000 		.4byte	0
 5174 052f 00000000 		.4byte	0
 5175              	.LLST40:
 5176 0533 B8000000 		.4byte	.LVL116
 5177 0537 BE000000 		.4byte	.LVL118
 5178 053b 0100     		.2byte	0x1
 5179 053d 50       		.byte	0x50
 5180 053e BE000000 		.4byte	.LVL118
 5181 0542 C1000000 		.4byte	.LVL119-1
 5182 0546 0E00     		.2byte	0xe
 5183 0548 72       		.byte	0x72
 5184 0549 00       		.sleb128 0
 5185 054a 03       		.byte	0x3
 5186 054b 38000000 		.4byte	CapSense_centroid.5542
 5187 054f 94       		.byte	0x94
 5188 0550 01       		.byte	0x1
 5189 0551 08       		.byte	0x8
 5190 0552 FF       		.byte	0xff
 5191 0553 1A       		.byte	0x1a
 5192 0554 1C       		.byte	0x1c
 5193 0555 9F       		.byte	0x9f
 5194 0556 00000000 		.4byte	0
 5195 055a 00000000 		.4byte	0
 5196              	.LLST41:
 5197 055e BC000000 		.4byte	.LVL117
 5198 0562 C1000000 		.4byte	.LVL119-1
 5199 0566 0100     		.2byte	0x1
 5200 0568 51       		.byte	0x51
 5201 0569 C6000000 		.4byte	.LVL120
 5202 056d D6000000 		.4byte	.LVL123
 5203 0571 0100     		.2byte	0x1
 5204 0573 50       		.byte	0x50
 5205 0574 D6000000 		.4byte	.LVL123
 5206 0578 D8000000 		.4byte	.LVL124
 5207 057c 0500     		.2byte	0x5
 5208 057e 70       		.byte	0x70
 5209 057f 80827E   		.sleb128 -32512
 5210 0582 9F       		.byte	0x9f
 5211 0583 00000000 		.4byte	0
 5212 0587 00000000 		.4byte	0
 5213              	.LLST42:
 5214 058b 14000000 		.4byte	.LVL104
 5215 058f 4E000000 		.4byte	.LVL112
 5216 0593 0100     		.2byte	0x1
 5217 0595 51       		.byte	0x51
 5218 0596 5C000000 		.4byte	.LVL113
 5219 059a 6A000000 		.4byte	.LVL115
 5220 059e 0100     		.2byte	0x1
ARM GAS  C:\Users\SHOZO\AppData\Local\Temp\cc3BkmVy.s 			page 144


 5221 05a0 51       		.byte	0x51
 5222 05a1 00000000 		.4byte	0
 5223 05a5 00000000 		.4byte	0
 5224              	.LLST43:
 5225 05a9 00000000 		.4byte	.LVL126
 5226 05ad 0E000000 		.4byte	.LVL128
 5227 05b1 0100     		.2byte	0x1
 5228 05b3 50       		.byte	0x50
 5229 05b4 0E000000 		.4byte	.LVL128
 5230 05b8 30000000 		.4byte	.LVL134
 5231 05bc 0100     		.2byte	0x1
 5232 05be 54       		.byte	0x54
 5233 05bf 30000000 		.4byte	.LVL134
 5234 05c3 40000000 		.4byte	.LFE62
 5235 05c7 0400     		.2byte	0x4
 5236 05c9 F3       		.byte	0xf3
 5237 05ca 01       		.uleb128 0x1
 5238 05cb 50       		.byte	0x50
 5239 05cc 9F       		.byte	0x9f
 5240 05cd 00000000 		.4byte	0
 5241 05d1 00000000 		.4byte	0
 5242              	.LLST44:
 5243 05d5 12000000 		.4byte	.LVL129
 5244 05d9 27000000 		.4byte	.LVL130-1
 5245 05dd 0100     		.2byte	0x1
 5246 05df 50       		.byte	0x50
 5247 05e0 2C000000 		.4byte	.LVL132
 5248 05e4 2E000000 		.4byte	.LVL133
 5249 05e8 0100     		.2byte	0x1
 5250 05ea 50       		.byte	0x50
 5251 05eb 00000000 		.4byte	0
 5252 05ef 00000000 		.4byte	0
 5253              	.LLST45:
 5254 05f3 2A000000 		.4byte	.LVL131
 5255 05f7 2C000000 		.4byte	.LVL132
 5256 05fb 0100     		.2byte	0x1
 5257 05fd 50       		.byte	0x50
 5258 05fe 2E000000 		.4byte	.LVL133
 5259 0602 40000000 		.4byte	.LFE62
 5260 0606 0100     		.2byte	0x1
 5261 0608 50       		.byte	0x50
 5262 0609 00000000 		.4byte	0
 5263 060d 00000000 		.4byte	0
 5264              	.LLST46:
 5265 0611 00000000 		.4byte	.LVL135
 5266 0615 08000000 		.4byte	.LVL136
 5267 0619 0100     		.2byte	0x1
 5268 061b 50       		.byte	0x50
 5269 061c 08000000 		.4byte	.LVL136
 5270 0620 0A000000 		.4byte	.LVL137
 5271 0624 0400     		.2byte	0x4
 5272 0626 F3       		.byte	0xf3
 5273 0627 01       		.uleb128 0x1
 5274 0628 50       		.byte	0x50
 5275 0629 9F       		.byte	0x9f
 5276 062a 0A000000 		.4byte	.LVL137
 5277 062e 1A000000 		.4byte	.LVL139
ARM GAS  C:\Users\SHOZO\AppData\Local\Temp\cc3BkmVy.s 			page 145


 5278 0632 0100     		.2byte	0x1
 5279 0634 50       		.byte	0x50
 5280 0635 00000000 		.4byte	0
 5281 0639 00000000 		.4byte	0
 5282              	.LLST47:
 5283 063d 00000000 		.4byte	.LVL135
 5284 0641 0A000000 		.4byte	.LVL137
 5285 0645 0100     		.2byte	0x1
 5286 0647 51       		.byte	0x51
 5287 0648 0A000000 		.4byte	.LVL137
 5288 064c 1C000000 		.4byte	.LFE63
 5289 0650 0100     		.2byte	0x1
 5290 0652 51       		.byte	0x51
 5291 0653 00000000 		.4byte	0
 5292 0657 00000000 		.4byte	0
 5293              	.LLST48:
 5294 065b 00000000 		.4byte	.LVL140
 5295 065f 06000000 		.4byte	.LVL141
 5296 0663 0100     		.2byte	0x1
 5297 0665 50       		.byte	0x50
 5298 0666 06000000 		.4byte	.LVL141
 5299 066a 08000000 		.4byte	.LVL142
 5300 066e 0400     		.2byte	0x4
 5301 0670 F3       		.byte	0xf3
 5302 0671 01       		.uleb128 0x1
 5303 0672 50       		.byte	0x50
 5304 0673 9F       		.byte	0x9f
 5305 0674 08000000 		.4byte	.LVL142
 5306 0678 10000000 		.4byte	.LVL143
 5307 067c 0100     		.2byte	0x1
 5308 067e 50       		.byte	0x50
 5309 067f 10000000 		.4byte	.LVL143
 5310 0683 12000000 		.4byte	.LVL144
 5311 0687 0400     		.2byte	0x4
 5312 0689 F3       		.byte	0xf3
 5313 068a 01       		.uleb128 0x1
 5314 068b 50       		.byte	0x50
 5315 068c 9F       		.byte	0x9f
 5316 068d 12000000 		.4byte	.LVL144
 5317 0691 14000000 		.4byte	.LFE64
 5318 0695 0100     		.2byte	0x1
 5319 0697 50       		.byte	0x50
 5320 0698 00000000 		.4byte	0
 5321 069c 00000000 		.4byte	0
 5322              	.LLST49:
 5323 06a0 00000000 		.4byte	.LVL145
 5324 06a4 30000000 		.4byte	.LVL148
 5325 06a8 0100     		.2byte	0x1
 5326 06aa 50       		.byte	0x50
 5327 06ab 30000000 		.4byte	.LVL148
 5328 06af CA000000 		.4byte	.LVL164
 5329 06b3 0100     		.2byte	0x1
 5330 06b5 54       		.byte	0x54
 5331 06b6 CA000000 		.4byte	.LVL164
 5332 06ba D2000000 		.4byte	.LVL165
 5333 06be 0400     		.2byte	0x4
 5334 06c0 F3       		.byte	0xf3
ARM GAS  C:\Users\SHOZO\AppData\Local\Temp\cc3BkmVy.s 			page 146


 5335 06c1 01       		.uleb128 0x1
 5336 06c2 50       		.byte	0x50
 5337 06c3 9F       		.byte	0x9f
 5338 06c4 D2000000 		.4byte	.LVL165
 5339 06c8 D6000000 		.4byte	.LVL166
 5340 06cc 0100     		.2byte	0x1
 5341 06ce 54       		.byte	0x54
 5342 06cf D6000000 		.4byte	.LVL166
 5343 06d3 DC000000 		.4byte	.LVL167
 5344 06d7 0400     		.2byte	0x4
 5345 06d9 F3       		.byte	0xf3
 5346 06da 01       		.uleb128 0x1
 5347 06db 50       		.byte	0x50
 5348 06dc 9F       		.byte	0x9f
 5349 06dd DC000000 		.4byte	.LVL167
 5350 06e1 E0000000 		.4byte	.LVL168
 5351 06e5 0100     		.2byte	0x1
 5352 06e7 54       		.byte	0x54
 5353 06e8 E0000000 		.4byte	.LVL168
 5354 06ec 14010000 		.4byte	.LFE36
 5355 06f0 0400     		.2byte	0x4
 5356 06f2 F3       		.byte	0xf3
 5357 06f3 01       		.uleb128 0x1
 5358 06f4 50       		.byte	0x50
 5359 06f5 9F       		.byte	0x9f
 5360 06f6 00000000 		.4byte	0
 5361 06fa 00000000 		.4byte	0
 5362              	.LLST50:
 5363 06fe 94000000 		.4byte	.LVL158
 5364 0702 B2000000 		.4byte	.LVL163
 5365 0706 0100     		.2byte	0x1
 5366 0708 50       		.byte	0x50
 5367 0709 00000000 		.4byte	0
 5368 070d 00000000 		.4byte	0
 5369              	.LLST51:
 5370 0711 56000000 		.4byte	.LVL153
 5371 0715 5A000000 		.4byte	.LVL154
 5372 0719 0200     		.2byte	0x2
 5373 071b 31       		.byte	0x31
 5374 071c 9F       		.byte	0x9f
 5375 071d 5E000000 		.4byte	.LVL155
 5376 0721 60000000 		.4byte	.LVL156
 5377 0725 0200     		.2byte	0x2
 5378 0727 30       		.byte	0x30
 5379 0728 9F       		.byte	0x9f
 5380 0729 60000000 		.4byte	.LVL156
 5381 072d E8000000 		.4byte	.LVL170
 5382 0731 0100     		.2byte	0x1
 5383 0733 57       		.byte	0x57
 5384 0734 00000000 		.4byte	0
 5385 0738 00000000 		.4byte	0
 5386              	.LLST52:
 5387 073c 56000000 		.4byte	.LVL153
 5388 0740 5A000000 		.4byte	.LVL154
 5389 0744 0100     		.2byte	0x1
 5390 0746 55       		.byte	0x55
 5391 0747 5E000000 		.4byte	.LVL155
ARM GAS  C:\Users\SHOZO\AppData\Local\Temp\cc3BkmVy.s 			page 147


 5392 074b E8000000 		.4byte	.LVL169
 5393 074f 0100     		.2byte	0x1
 5394 0751 55       		.byte	0x55
 5395 0752 00000000 		.4byte	0
 5396 0756 00000000 		.4byte	0
 5397              	.LLST53:
 5398 075a 20000000 		.4byte	.LVL147
 5399 075e 36000000 		.4byte	.LVL150
 5400 0762 0100     		.2byte	0x1
 5401 0764 56       		.byte	0x56
 5402 0765 36000000 		.4byte	.LVL150
 5403 0769 38000000 		.4byte	.LVL151
 5404 076d 0100     		.2byte	0x1
 5405 076f 50       		.byte	0x50
 5406 0770 38000000 		.4byte	.LVL151
 5407 0774 A8000000 		.4byte	.LVL162
 5408 0778 0100     		.2byte	0x1
 5409 077a 56       		.byte	0x56
 5410 077b 00000000 		.4byte	0
 5411 077f 00000000 		.4byte	0
 5412              	.LLST54:
 5413 0783 1A000000 		.4byte	.LVL146
 5414 0787 E8000000 		.4byte	.LVL171
 5415 078b 0100     		.2byte	0x1
 5416 078d 58       		.byte	0x58
 5417 078e 00000000 		.4byte	0
 5418 0792 00000000 		.4byte	0
 5419              	.LLST55:
 5420 0796 00000000 		.4byte	.LVL172
 5421 079a 07000000 		.4byte	.LVL173-1
 5422 079e 0100     		.2byte	0x1
 5423 07a0 50       		.byte	0x50
 5424 07a1 07000000 		.4byte	.LVL173-1
 5425 07a5 0E000000 		.4byte	.LVL175
 5426 07a9 0100     		.2byte	0x1
 5427 07ab 54       		.byte	0x54
 5428 07ac 0E000000 		.4byte	.LVL175
 5429 07b0 10000000 		.4byte	.LFE37
 5430 07b4 0400     		.2byte	0x4
 5431 07b6 F3       		.byte	0xf3
 5432 07b7 01       		.uleb128 0x1
 5433 07b8 50       		.byte	0x50
 5434 07b9 9F       		.byte	0x9f
 5435 07ba 00000000 		.4byte	0
 5436 07be 00000000 		.4byte	0
 5437              	.LLST56:
 5438 07c2 02000000 		.4byte	.LVL176
 5439 07c6 06000000 		.4byte	.LVL177
 5440 07ca 0200     		.2byte	0x2
 5441 07cc 30       		.byte	0x30
 5442 07cd 9F       		.byte	0x9f
 5443 07ce 06000000 		.4byte	.LVL177
 5444 07d2 1E000000 		.4byte	.LVL182
 5445 07d6 0100     		.2byte	0x1
 5446 07d8 54       		.byte	0x54
 5447 07d9 00000000 		.4byte	0
 5448 07dd 00000000 		.4byte	0
ARM GAS  C:\Users\SHOZO\AppData\Local\Temp\cc3BkmVy.s 			page 148


 5449              	.LLST57:
 5450 07e1 0E000000 		.4byte	.LVL178
 5451 07e5 14000000 		.4byte	.LVL179
 5452 07e9 0100     		.2byte	0x1
 5453 07eb 50       		.byte	0x50
 5454 07ec 00000000 		.4byte	0
 5455 07f0 00000000 		.4byte	0
 5456              	.LLST58:
 5457 07f4 00000000 		.4byte	.LVL183
 5458 07f8 06000000 		.4byte	.LVL185
 5459 07fc 0100     		.2byte	0x1
 5460 07fe 50       		.byte	0x50
 5461 07ff 06000000 		.4byte	.LVL185
 5462 0803 24000000 		.4byte	.LFE39
 5463 0807 0400     		.2byte	0x4
 5464 0809 F3       		.byte	0xf3
 5465 080a 01       		.uleb128 0x1
 5466 080b 50       		.byte	0x50
 5467 080c 9F       		.byte	0x9f
 5468 080d 00000000 		.4byte	0
 5469 0811 00000000 		.4byte	0
 5470              	.LLST59:
 5471 0815 02000000 		.4byte	.LVL184
 5472 0819 06000000 		.4byte	.LVL185
 5473 081d 0200     		.2byte	0x2
 5474 081f 30       		.byte	0x30
 5475 0820 9F       		.byte	0x9f
 5476 0821 06000000 		.4byte	.LVL185
 5477 0825 1E000000 		.4byte	.LVL190
 5478 0829 0100     		.2byte	0x1
 5479 082b 54       		.byte	0x54
 5480 082c 00000000 		.4byte	0
 5481 0830 00000000 		.4byte	0
 5482              	.LLST60:
 5483 0834 0E000000 		.4byte	.LVL186
 5484 0838 14000000 		.4byte	.LVL187
 5485 083c 0100     		.2byte	0x1
 5486 083e 50       		.byte	0x50
 5487 083f 00000000 		.4byte	0
 5488 0843 00000000 		.4byte	0
 5489              	.LLST61:
 5490 0847 00000000 		.4byte	.LVL191
 5491 084b 14000000 		.4byte	.LVL193
 5492 084f 0100     		.2byte	0x1
 5493 0851 50       		.byte	0x50
 5494 0852 14000000 		.4byte	.LVL193
 5495 0856 50000000 		.4byte	.LVL201
 5496 085a 0100     		.2byte	0x1
 5497 085c 54       		.byte	0x54
 5498 085d 50000000 		.4byte	.LVL201
 5499 0861 5C000000 		.4byte	.LVL203
 5500 0865 0400     		.2byte	0x4
 5501 0867 F3       		.byte	0xf3
 5502 0868 01       		.uleb128 0x1
 5503 0869 50       		.byte	0x50
 5504 086a 9F       		.byte	0x9f
 5505 086b 5C000000 		.4byte	.LVL203
ARM GAS  C:\Users\SHOZO\AppData\Local\Temp\cc3BkmVy.s 			page 149


 5506 086f 66000000 		.4byte	.LVL205
 5507 0873 0100     		.2byte	0x1
 5508 0875 54       		.byte	0x54
 5509 0876 66000000 		.4byte	.LVL205
 5510 087a 7C000000 		.4byte	.LFE61
 5511 087e 0400     		.2byte	0x4
 5512 0880 F3       		.byte	0xf3
 5513 0881 01       		.uleb128 0x1
 5514 0882 50       		.byte	0x50
 5515 0883 9F       		.byte	0x9f
 5516 0884 00000000 		.4byte	0
 5517 0888 00000000 		.4byte	0
 5518              	.LLST62:
 5519 088c 36000000 		.4byte	.LVL197
 5520 0890 44000000 		.4byte	.LVL198
 5521 0894 0100     		.2byte	0x1
 5522 0896 53       		.byte	0x53
 5523 0897 44000000 		.4byte	.LVL198
 5524 089b 48000000 		.4byte	.LVL199
 5525 089f 0300     		.2byte	0x3
 5526 08a1 75       		.byte	0x75
 5527 08a2 01       		.sleb128 1
 5528 08a3 9F       		.byte	0x9f
 5529 08a4 4E000000 		.4byte	.LVL200
 5530 08a8 57000000 		.4byte	.LVL202-1
 5531 08ac 0100     		.2byte	0x1
 5532 08ae 53       		.byte	0x53
 5533 08af 57000000 		.4byte	.LVL202-1
 5534 08b3 5C000000 		.4byte	.LVL203
 5535 08b7 0300     		.2byte	0x3
 5536 08b9 75       		.byte	0x75
 5537 08ba 01       		.sleb128 1
 5538 08bb 9F       		.byte	0x9f
 5539 08bc 00000000 		.4byte	0
 5540 08c0 00000000 		.4byte	0
 5541              	.LLST63:
 5542 08c4 0C000000 		.4byte	.LVL192
 5543 08c8 48000000 		.4byte	.LVL199
 5544 08cc 0100     		.2byte	0x1
 5545 08ce 55       		.byte	0x55
 5546 08cf 4E000000 		.4byte	.LVL200
 5547 08d3 60000000 		.4byte	.LVL204
 5548 08d7 0100     		.2byte	0x1
 5549 08d9 55       		.byte	0x55
 5550 08da 00000000 		.4byte	0
 5551 08de 00000000 		.4byte	0
 5552              	.LLST64:
 5553 08e2 18000000 		.4byte	.LVL194
 5554 08e6 2D000000 		.4byte	.LVL195-1
 5555 08ea 0100     		.2byte	0x1
 5556 08ec 50       		.byte	0x50
 5557 08ed 5C000000 		.4byte	.LVL203
 5558 08f1 66000000 		.4byte	.LVL205
 5559 08f5 0100     		.2byte	0x1
 5560 08f7 50       		.byte	0x50
 5561 08f8 00000000 		.4byte	0
 5562 08fc 00000000 		.4byte	0
ARM GAS  C:\Users\SHOZO\AppData\Local\Temp\cc3BkmVy.s 			page 150


 5563              	.LLST65:
 5564 0900 32000000 		.4byte	.LVL196
 5565 0904 57000000 		.4byte	.LVL202-1
 5566 0908 0100     		.2byte	0x1
 5567 090a 50       		.byte	0x50
 5568 090b 58000000 		.4byte	.LVL202
 5569 090f 5C000000 		.4byte	.LVL203
 5570 0913 0100     		.2byte	0x1
 5571 0915 50       		.byte	0x50
 5572 0916 5C000000 		.4byte	.LVL203
 5573 091a 66000000 		.4byte	.LVL205
 5574 091e 0300     		.2byte	0x3
 5575 0920 09       		.byte	0x9
 5576 0921 FF       		.byte	0xff
 5577 0922 9F       		.byte	0x9f
 5578 0923 66000000 		.4byte	.LVL205
 5579 0927 7C000000 		.4byte	.LFE61
 5580 092b 0100     		.2byte	0x1
 5581 092d 50       		.byte	0x50
 5582 092e 00000000 		.4byte	0
 5583 0932 00000000 		.4byte	0
 5584              	.LLST66:
 5585 0936 00000000 		.4byte	.LVL206
 5586 093a 04000000 		.4byte	.LVL207
 5587 093e 0100     		.2byte	0x1
 5588 0940 50       		.byte	0x50
 5589 0941 04000000 		.4byte	.LVL207
 5590 0945 0C000000 		.4byte	.LFE65
 5591 0949 0400     		.2byte	0x4
 5592 094b F3       		.byte	0xf3
 5593 094c 01       		.uleb128 0x1
 5594 094d 50       		.byte	0x50
 5595 094e 9F       		.byte	0x9f
 5596 094f 00000000 		.4byte	0
 5597 0953 00000000 		.4byte	0
 5598              	.LLST67:
 5599 0957 00000000 		.4byte	.LVL208
 5600 095b 04000000 		.4byte	.LVL209
 5601 095f 0100     		.2byte	0x1
 5602 0961 50       		.byte	0x50
 5603 0962 04000000 		.4byte	.LVL209
 5604 0966 0C000000 		.4byte	.LFE66
 5605 096a 0400     		.2byte	0x4
 5606 096c F3       		.byte	0xf3
 5607 096d 01       		.uleb128 0x1
 5608 096e 50       		.byte	0x50
 5609 096f 9F       		.byte	0x9f
 5610 0970 00000000 		.4byte	0
 5611 0974 00000000 		.4byte	0
 5612              	.LLST68:
 5613 0978 00000000 		.4byte	.LVL210
 5614 097c 04000000 		.4byte	.LVL211
 5615 0980 0100     		.2byte	0x1
 5616 0982 50       		.byte	0x50
 5617 0983 04000000 		.4byte	.LVL211
 5618 0987 0C000000 		.4byte	.LFE67
 5619 098b 0400     		.2byte	0x4
ARM GAS  C:\Users\SHOZO\AppData\Local\Temp\cc3BkmVy.s 			page 151


 5620 098d F3       		.byte	0xf3
 5621 098e 01       		.uleb128 0x1
 5622 098f 50       		.byte	0x50
 5623 0990 9F       		.byte	0x9f
 5624 0991 00000000 		.4byte	0
 5625 0995 00000000 		.4byte	0
 5626              		.section	.debug_aranges,"",%progbits
 5627 0000 44010000 		.4byte	0x144
 5628 0004 0200     		.2byte	0x2
 5629 0006 00000000 		.4byte	.Ldebug_info0
 5630 000a 04       		.byte	0x4
 5631 000b 00       		.byte	0
 5632 000c 0000     		.2byte	0
 5633 000e 0000     		.2byte	0
 5634 0010 00000000 		.4byte	.LFB32
 5635 0014 28000000 		.4byte	.LFE32-.LFB32
 5636 0018 00000000 		.4byte	.LFB33
 5637 001c 18000000 		.4byte	.LFE33-.LFB33
 5638 0020 00000000 		.4byte	.LFB34
 5639 0024 14000000 		.4byte	.LFE34-.LFB34
 5640 0028 00000000 		.4byte	.LFB35
 5641 002c 30000000 		.4byte	.LFE35-.LFB35
 5642 0030 00000000 		.4byte	.LFB40
 5643 0034 0C000000 		.4byte	.LFE40-.LFB40
 5644 0038 00000000 		.4byte	.LFB41
 5645 003c 0C000000 		.4byte	.LFE41-.LFB41
 5646 0040 00000000 		.4byte	.LFB42
 5647 0044 10000000 		.4byte	.LFE42-.LFB42
 5648 0048 00000000 		.4byte	.LFB43
 5649 004c 10000000 		.4byte	.LFE43-.LFB43
 5650 0050 00000000 		.4byte	.LFB44
 5651 0054 0C000000 		.4byte	.LFE44-.LFB44
 5652 0058 00000000 		.4byte	.LFB45
 5653 005c 0C000000 		.4byte	.LFE45-.LFB45
 5654 0060 00000000 		.4byte	.LFB46
 5655 0064 0C000000 		.4byte	.LFE46-.LFB46
 5656 0068 00000000 		.4byte	.LFB47
 5657 006c 0C000000 		.4byte	.LFE47-.LFB47
 5658 0070 00000000 		.4byte	.LFB48
 5659 0074 0C000000 		.4byte	.LFE48-.LFB48
 5660 0078 00000000 		.4byte	.LFB49
 5661 007c 0C000000 		.4byte	.LFE49-.LFB49
 5662 0080 00000000 		.4byte	.LFB50
 5663 0084 0C000000 		.4byte	.LFE50-.LFB50
 5664 0088 00000000 		.4byte	.LFB51
 5665 008c 0C000000 		.4byte	.LFE51-.LFB51
 5666 0090 00000000 		.4byte	.LFB52
 5667 0094 0C000000 		.4byte	.LFE52-.LFB52
 5668 0098 00000000 		.4byte	.LFB53
 5669 009c 0C000000 		.4byte	.LFE53-.LFB53
 5670 00a0 00000000 		.4byte	.LFB54
 5671 00a4 A4000000 		.4byte	.LFE54-.LFB54
 5672 00a8 00000000 		.4byte	.LFB55
 5673 00ac 1C000000 		.4byte	.LFE55-.LFB55
 5674 00b0 00000000 		.4byte	.LFB56
 5675 00b4 1E000000 		.4byte	.LFE56-.LFB56
 5676 00b8 00000000 		.4byte	.LFB57
ARM GAS  C:\Users\SHOZO\AppData\Local\Temp\cc3BkmVy.s 			page 152


 5677 00bc 1C000000 		.4byte	.LFE57-.LFB57
 5678 00c0 00000000 		.4byte	.LFB58
 5679 00c4 1C000000 		.4byte	.LFE58-.LFB58
 5680 00c8 00000000 		.4byte	.LFB59
 5681 00cc 2C000000 		.4byte	.LFE59-.LFB59
 5682 00d0 00000000 		.4byte	.LFB60
 5683 00d4 E4000000 		.4byte	.LFE60-.LFB60
 5684 00d8 00000000 		.4byte	.LFB62
 5685 00dc 40000000 		.4byte	.LFE62-.LFB62
 5686 00e0 00000000 		.4byte	.LFB63
 5687 00e4 1C000000 		.4byte	.LFE63-.LFB63
 5688 00e8 00000000 		.4byte	.LFB64
 5689 00ec 14000000 		.4byte	.LFE64-.LFB64
 5690 00f0 00000000 		.4byte	.LFB36
 5691 00f4 14010000 		.4byte	.LFE36-.LFB36
 5692 00f8 00000000 		.4byte	.LFB37
 5693 00fc 10000000 		.4byte	.LFE37-.LFB37
 5694 0100 00000000 		.4byte	.LFB38
 5695 0104 24000000 		.4byte	.LFE38-.LFB38
 5696 0108 00000000 		.4byte	.LFB39
 5697 010c 24000000 		.4byte	.LFE39-.LFB39
 5698 0110 00000000 		.4byte	.LFB61
 5699 0114 7C000000 		.4byte	.LFE61-.LFB61
 5700 0118 00000000 		.4byte	.LFB65
 5701 011c 0C000000 		.4byte	.LFE65-.LFB65
 5702 0120 00000000 		.4byte	.LFB66
 5703 0124 0C000000 		.4byte	.LFE66-.LFB66
 5704 0128 00000000 		.4byte	.LFB67
 5705 012c 0C000000 		.4byte	.LFE67-.LFB67
 5706 0130 00000000 		.4byte	.LFB68
 5707 0134 0C000000 		.4byte	.LFE68-.LFB68
 5708 0138 00000000 		.4byte	.LFB69
 5709 013c 0C000000 		.4byte	.LFE69-.LFB69
 5710 0140 00000000 		.4byte	0
 5711 0144 00000000 		.4byte	0
 5712              		.section	.debug_ranges,"",%progbits
 5713              	.Ldebug_ranges0:
 5714 0000 00000000 		.4byte	.LFB32
 5715 0004 28000000 		.4byte	.LFE32
 5716 0008 00000000 		.4byte	.LFB33
 5717 000c 18000000 		.4byte	.LFE33
 5718 0010 00000000 		.4byte	.LFB34
 5719 0014 14000000 		.4byte	.LFE34
 5720 0018 00000000 		.4byte	.LFB35
 5721 001c 30000000 		.4byte	.LFE35
 5722 0020 00000000 		.4byte	.LFB40
 5723 0024 0C000000 		.4byte	.LFE40
 5724 0028 00000000 		.4byte	.LFB41
 5725 002c 0C000000 		.4byte	.LFE41
 5726 0030 00000000 		.4byte	.LFB42
 5727 0034 10000000 		.4byte	.LFE42
 5728 0038 00000000 		.4byte	.LFB43
 5729 003c 10000000 		.4byte	.LFE43
 5730 0040 00000000 		.4byte	.LFB44
 5731 0044 0C000000 		.4byte	.LFE44
 5732 0048 00000000 		.4byte	.LFB45
 5733 004c 0C000000 		.4byte	.LFE45
ARM GAS  C:\Users\SHOZO\AppData\Local\Temp\cc3BkmVy.s 			page 153


 5734 0050 00000000 		.4byte	.LFB46
 5735 0054 0C000000 		.4byte	.LFE46
 5736 0058 00000000 		.4byte	.LFB47
 5737 005c 0C000000 		.4byte	.LFE47
 5738 0060 00000000 		.4byte	.LFB48
 5739 0064 0C000000 		.4byte	.LFE48
 5740 0068 00000000 		.4byte	.LFB49
 5741 006c 0C000000 		.4byte	.LFE49
 5742 0070 00000000 		.4byte	.LFB50
 5743 0074 0C000000 		.4byte	.LFE50
 5744 0078 00000000 		.4byte	.LFB51
 5745 007c 0C000000 		.4byte	.LFE51
 5746 0080 00000000 		.4byte	.LFB52
 5747 0084 0C000000 		.4byte	.LFE52
 5748 0088 00000000 		.4byte	.LFB53
 5749 008c 0C000000 		.4byte	.LFE53
 5750 0090 00000000 		.4byte	.LFB54
 5751 0094 A4000000 		.4byte	.LFE54
 5752 0098 00000000 		.4byte	.LFB55
 5753 009c 1C000000 		.4byte	.LFE55
 5754 00a0 00000000 		.4byte	.LFB56
 5755 00a4 1E000000 		.4byte	.LFE56
 5756 00a8 00000000 		.4byte	.LFB57
 5757 00ac 1C000000 		.4byte	.LFE57
 5758 00b0 00000000 		.4byte	.LFB58
 5759 00b4 1C000000 		.4byte	.LFE58
 5760 00b8 00000000 		.4byte	.LFB59
 5761 00bc 2C000000 		.4byte	.LFE59
 5762 00c0 00000000 		.4byte	.LFB60
 5763 00c4 E4000000 		.4byte	.LFE60
 5764 00c8 00000000 		.4byte	.LFB62
 5765 00cc 40000000 		.4byte	.LFE62
 5766 00d0 00000000 		.4byte	.LFB63
 5767 00d4 1C000000 		.4byte	.LFE63
 5768 00d8 00000000 		.4byte	.LFB64
 5769 00dc 14000000 		.4byte	.LFE64
 5770 00e0 00000000 		.4byte	.LFB36
 5771 00e4 14010000 		.4byte	.LFE36
 5772 00e8 00000000 		.4byte	.LFB37
 5773 00ec 10000000 		.4byte	.LFE37
 5774 00f0 00000000 		.4byte	.LFB38
 5775 00f4 24000000 		.4byte	.LFE38
 5776 00f8 00000000 		.4byte	.LFB39
 5777 00fc 24000000 		.4byte	.LFE39
 5778 0100 00000000 		.4byte	.LFB61
 5779 0104 7C000000 		.4byte	.LFE61
 5780 0108 00000000 		.4byte	.LFB65
 5781 010c 0C000000 		.4byte	.LFE65
 5782 0110 00000000 		.4byte	.LFB66
 5783 0114 0C000000 		.4byte	.LFE66
 5784 0118 00000000 		.4byte	.LFB67
 5785 011c 0C000000 		.4byte	.LFE67
 5786 0120 00000000 		.4byte	.LFB68
 5787 0124 0C000000 		.4byte	.LFE68
 5788 0128 00000000 		.4byte	.LFB69
 5789 012c 0C000000 		.4byte	.LFE69
 5790 0130 00000000 		.4byte	0
ARM GAS  C:\Users\SHOZO\AppData\Local\Temp\cc3BkmVy.s 			page 154


 5791 0134 00000000 		.4byte	0
 5792              		.section	.debug_line,"",%progbits
 5793              	.Ldebug_line0:
 5794 0000 6A040000 		.section	.debug_str,"MS",%progbits,1
 5794      02006A00 
 5794      00000201 
 5794      FB0E0D00 
 5794      01010101 
 5795              	.LASF131:
 5796 0000 43617053 		.ascii	"CapSense_sensorBaselineLow\000"
 5796      656E7365 
 5796      5F73656E 
 5796      736F7242 
 5796      6173656C 
 5797              	.LASF78:
 5798 001b 43617053 		.ascii	"CapSense_debounceCounter\000"
 5798      656E7365 
 5798      5F646562 
 5798      6F756E63 
 5798      65436F75 
 5799              	.LASF33:
 5800 0034 7363616E 		.ascii	"scanSpeedTbl\000"
 5800      53706565 
 5800      6454626C 
 5800      00
 5801              	.LASF134:
 5802 0041 43617053 		.ascii	"CapSense_lowBaselineResetCnt\000"
 5802      656E7365 
 5802      5F6C6F77 
 5802      42617365 
 5802      6C696E65 
 5803              	.LASF104:
 5804 005e 43617053 		.ascii	"CapSense_UpdateBaselineNoThreshold\000"
 5804      656E7365 
 5804      5F557064 
 5804      61746542 
 5804      6173656C 
 5805              	.LASF36:
 5806 0081 6E756D62 		.ascii	"numberOfSensors\000"
 5806      65724F66 
 5806      53656E73 
 5806      6F727300 
 5807              	.LASF40:
 5808 0091 70747247 		.ascii	"ptrGetBitValue\000"
 5808      65744269 
 5808      7456616C 
 5808      756500
 5809              	.LASF85:
 5810 00a0 43617053 		.ascii	"CapSense_DisableWidget\000"
 5810      656E7365 
 5810      5F446973 
 5810      61626C65 
 5810      57696467 
 5811              	.LASF110:
 5812 00b7 43617053 		.ascii	"CapSense_UpdateEnabledBaselines\000"
 5812      656E7365 
 5812      5F557064 
ARM GAS  C:\Users\SHOZO\AppData\Local\Temp\cc3BkmVy.s 			page 155


 5812      61746545 
 5812      6E61626C 
 5813              	.LASF116:
 5814 00d7 706F7349 		.ascii	"posIndex\000"
 5814      6E646578 
 5814      00
 5815              	.LASF144:
 5816 00e0 43617053 		.ascii	"CapSense_config\000"
 5816      656E7365 
 5816      5F636F6E 
 5816      66696700 
 5817              	.LASF55:
 5818 00f0 69735365 		.ascii	"isSensorEnabled\000"
 5818      6E736F72 
 5818      456E6162 
 5818      6C656400 
 5819              	.LASF81:
 5820 0100 6E756D4F 		.ascii	"numOfSensors\000"
 5820      6653656E 
 5820      736F7273 
 5820      00
 5821              	.LASF42:
 5822 010d 43617053 		.ascii	"CapSense_CONFIG_TYPE_POINTERS_P4_v2_60\000"
 5822      656E7365 
 5822      5F434F4E 
 5822      4649475F 
 5822      54595045 
 5823              	.LASF8:
 5824 0134 756E7369 		.ascii	"unsigned int\000"
 5824      676E6564 
 5824      20696E74 
 5824      00
 5825              	.LASF45:
 5826 0141 746F7461 		.ascii	"totalSensorsNum\000"
 5826      6C53656E 
 5826      736F7273 
 5826      4E756D00 
 5827              	.LASF96:
 5828 0151 706F734E 		.ascii	"posNext\000"
 5828      65787400 
 5829              	.LASF12:
 5830 0159 696E7431 		.ascii	"int16\000"
 5830      3600
 5831              	.LASF30:
 5832 015f 73616D70 		.ascii	"sampleMaxTbl\000"
 5832      6C654D61 
 5832      7854626C 
 5832      00
 5833              	.LASF54:
 5834 016c 43617053 		.ascii	"CapSense_InitializeEnabledBaselines\000"
 5834      656E7365 
 5834      5F496E69 
 5834      7469616C 
 5834      697A6545 
 5835              	.LASF126:
 5836 0190 43617053 		.ascii	"CapSense_posFiltersData\000"
 5836      656E7365 
ARM GAS  C:\Users\SHOZO\AppData\Local\Temp\cc3BkmVy.s 			page 156


 5836      5F706F73 
 5836      46696C74 
 5836      65727344 
 5837              	.LASF28:
 5838 01a8 7369676E 		.ascii	"signRegisterTbl\000"
 5838      52656769 
 5838      73746572 
 5838      54626C00 
 5839              	.LASF140:
 5840 01b8 43617053 		.ascii	"CapSense_debounce\000"
 5840      656E7365 
 5840      5F646562 
 5840      6F756E63 
 5840      6500
 5841              	.LASF51:
 5842 01ca 43617053 		.ascii	"CapSense_InitializeSensorBaseline\000"
 5842      656E7365 
 5842      5F496E69 
 5842      7469616C 
 5842      697A6553 
 5843              	.LASF95:
 5844 01ec 706F7350 		.ascii	"posPrev\000"
 5844      72657600 
 5845              	.LASF147:
 5846 01f4 43617053 		.ascii	"CapSense_IsBusy\000"
 5846      656E7365 
 5846      5F497342 
 5846      75737900 
 5847              	.LASF56:
 5848 0204 43617053 		.ascii	"CapSense_SetBaselineData\000"
 5848      656E7365 
 5848      5F536574 
 5848      42617365 
 5848      6C696E65 
 5849              	.LASF35:
 5850 021d 72617744 		.ascii	"rawDataIndex\000"
 5850      61746149 
 5850      6E646578 
 5850      00
 5851              	.LASF44:
 5852 022a 746F7461 		.ascii	"totalWidgetsNum\000"
 5852      6C576964 
 5852      67657473 
 5852      4E756D00 
 5853              	.LASF60:
 5854 023a 43617053 		.ascii	"CapSense_SetDiffCountData\000"
 5854      656E7365 
 5854      5F536574 
 5854      44696666 
 5854      436F756E 
 5855              	.LASF132:
 5856 0254 43617053 		.ascii	"CapSense_sensorSignal\000"
 5856      656E7365 
 5856      5F73656E 
 5856      736F7253 
 5856      69676E61 
 5857              	.LASF141:
ARM GAS  C:\Users\SHOZO\AppData\Local\Temp\cc3BkmVy.s 			page 157


 5858 026a 43617053 		.ascii	"CapSense_rawDataIndex\000"
 5858      656E7365 
 5858      5F726177 
 5858      44617461 
 5858      496E6465 
 5859              	.LASF155:
 5860 0280 433A5C55 		.ascii	"C:\\Users\\SHOZO\\Documents\\ROKKO\\PSoC\\PSOC-2020"
 5860      73657273 
 5860      5C53484F 
 5860      5A4F5C44 
 5860      6F63756D 
 5861 02ad 30373135 		.ascii	"0715\\RHINON_Calion_Slider.cydsn\000"
 5861      5C524849 
 5861      4E4F4E5F 
 5861      43616C69 
 5861      6F6E5F53 
 5862              	.LASF68:
 5863 02cd 43617053 		.ascii	"CapSense_SetNoiseThreshold\000"
 5863      656E7365 
 5863      5F536574 
 5863      4E6F6973 
 5863      65546872 
 5864              	.LASF111:
 5865 02e8 43617053 		.ascii	"CapSense_UpdateWidgetBaseline\000"
 5865      656E7365 
 5865      5F557064 
 5865      61746557 
 5865      69646765 
 5866              	.LASF139:
 5867 0306 43617053 		.ascii	"CapSense_hysteresis\000"
 5867      656E7365 
 5867      5F687973 
 5867      74657265 
 5867      73697300 
 5868              	.LASF14:
 5869 031a 666C6F61 		.ascii	"float\000"
 5869      7400
 5870              	.LASF13:
 5871 0320 696E7433 		.ascii	"int32\000"
 5871      3200
 5872              	.LASF88:
 5873 0326 636F756E 		.ascii	"count\000"
 5873      7400
 5874              	.LASF25:
 5875 032c 7265736F 		.ascii	"resolutionsTbl\000"
 5875      6C757469 
 5875      6F6E7354 
 5875      626C00
 5876              	.LASF118:
 5877 033b 706F7346 		.ascii	"posFiltersMask\000"
 5877      696C7465 
 5877      72734D61 
 5877      736B00
 5878              	.LASF64:
 5879 034a 43617053 		.ascii	"CapSense_GetNoiseThreshold\000"
 5879      656E7365 
 5879      5F476574 
ARM GAS  C:\Users\SHOZO\AppData\Local\Temp\cc3BkmVy.s 			page 158


 5879      4E6F6973 
 5879      65546872 
 5880              	.LASF27:
 5881 0365 72756E6E 		.ascii	"runningDifferenceTbl\000"
 5881      696E6744 
 5881      69666665 
 5881      72656E63 
 5881      6554626C 
 5882              	.LASF7:
 5883 037a 6C6F6E67 		.ascii	"long long unsigned int\000"
 5883      206C6F6E 
 5883      6720756E 
 5883      7369676E 
 5883      65642069 
 5884              	.LASF128:
 5885 0391 43617053 		.ascii	"CapSense_sensorEnableMask\000"
 5885      656E7365 
 5885      5F73656E 
 5885      736F7245 
 5885      6E61626C 
 5886              	.LASF63:
 5887 03ab 77696467 		.ascii	"widget\000"
 5887      657400
 5888              	.LASF125:
 5889 03b2 43617053 		.ascii	"CapSense_posFiltersMask\000"
 5889      656E7365 
 5889      5F706F73 
 5889      46696C74 
 5889      6572734D 
 5890              	.LASF136:
 5891 03ca 43617053 		.ascii	"CapSense_fingerThreshold\000"
 5891      656E7365 
 5891      5F66696E 
 5891      67657254 
 5891      68726573 
 5892              	.LASF49:
 5893 03e3 43617053 		.ascii	"CapSense_CONFIG_TYPE_P4_v2_60\000"
 5893      656E7365 
 5893      5F434F4E 
 5893      4649475F 
 5893      54595045 
 5894              	.LASF129:
 5895 0401 43617053 		.ascii	"CapSense_widgetNumber\000"
 5895      656E7365 
 5895      5F776964 
 5895      6765744E 
 5895      756D6265 
 5896              	.LASF67:
 5897 0417 43617053 		.ascii	"CapSense_SetFingerThreshold\000"
 5897      656E7365 
 5897      5F536574 
 5897      46696E67 
 5897      65725468 
 5898              	.LASF123:
 5899 0433 43617053 		.ascii	"CapSense_DisableRawDataFilters\000"
 5899      656E7365 
 5899      5F446973 
ARM GAS  C:\Users\SHOZO\AppData\Local\Temp\cc3BkmVy.s 			page 159


 5899      61626C65 
 5899      52617744 
 5900              	.LASF61:
 5901 0452 76616C75 		.ascii	"value\000"
 5901      6500
 5902              	.LASF65:
 5903 0458 43617053 		.ascii	"CapSense_GetFingerHysteresis\000"
 5903      656E7365 
 5903      5F476574 
 5903      46696E67 
 5903      65724879 
 5904              	.LASF153:
 5905 0475 474E5520 		.ascii	"GNU C11 5.4.1 20160609 (release) [ARM/embedded-5-br"
 5905      43313120 
 5905      352E342E 
 5905      31203230 
 5905      31363036 
 5906 04a8 616E6368 		.ascii	"anch revision 237715] -mcpu=cortex-m0 -mthumb -g -O"
 5906      20726576 
 5906      6973696F 
 5906      6E203233 
 5906      37373135 
 5907 04db 67202D66 		.ascii	"g -ffunction-sections -ffat-lto-objects\000"
 5907      66756E63 
 5907      74696F6E 
 5907      2D736563 
 5907      74696F6E 
 5908              	.LASF59:
 5909 0503 43617053 		.ascii	"CapSense_GetDiffCountData\000"
 5909      656E7365 
 5909      5F476574 
 5909      44696666 
 5909      436F756E 
 5910              	.LASF106:
 5911 051d 7369676E 		.ascii	"sign\000"
 5911      00
 5912              	.LASF87:
 5913 0522 6F666673 		.ascii	"offset\000"
 5913      657400
 5914              	.LASF26:
 5915 0529 6E6F6973 		.ascii	"noiseEnvelopeTbl\000"
 5915      65456E76 
 5915      656C6F70 
 5915      6554626C 
 5915      00
 5916              	.LASF105:
 5917 053a 63616C63 		.ascii	"calc\000"
 5917      00
 5918              	.LASF39:
 5919 053f 70747252 		.ascii	"ptrReadSensorRaw\000"
 5919      65616453 
 5919      656E736F 
 5919      72526177 
 5919      00
 5920              	.LASF77:
 5921 0550 68797374 		.ascii	"hysteresis\000"
 5921      65726573 
ARM GAS  C:\Users\SHOZO\AppData\Local\Temp\cc3BkmVy.s 			page 160


 5921      697300
 5922              	.LASF146:
 5923 055b 43617053 		.ascii	"CapSense_ScanSensor\000"
 5923      656E7365 
 5923      5F536361 
 5923      6E53656E 
 5923      736F7200 
 5924              	.LASF108:
 5925 056f 66696C74 		.ascii	"filteredRawData\000"
 5925      65726564 
 5925      52617744 
 5925      61746100 
 5926              	.LASF112:
 5927 057f 73656E73 		.ascii	"sensorsPerWidget\000"
 5927      6F727350 
 5927      65725769 
 5927      64676574 
 5927      00
 5928              	.LASF83:
 5929 0590 43617053 		.ascii	"CapSense_CheckIsAnyWidgetActive\000"
 5929      656E7365 
 5929      5F436865 
 5929      636B4973 
 5929      416E7957 
 5930              	.LASF142:
 5931 05b0 43617053 		.ascii	"CapSense_numberOfSensors\000"
 5931      656E7365 
 5931      5F6E756D 
 5931      6265724F 
 5931      6653656E 
 5932              	.LASF138:
 5933 05c9 43617053 		.ascii	"CapSense_negativeNoiseThreshold\000"
 5933      656E7365 
 5933      5F6E6567 
 5933      61746976 
 5933      654E6F69 
 5934              	.LASF43:
 5935 05e9 746F7461 		.ascii	"totalScanslotsNum\000"
 5935      6C536361 
 5935      6E736C6F 
 5935      74734E75 
 5935      6D00
 5936              	.LASF151:
 5937 05fb 4D656173 		.ascii	"MeasureNoiseEnvelope_P4_v2_60\000"
 5937      7572654E 
 5937      6F697365 
 5937      456E7665 
 5937      6C6F7065 
 5938              	.LASF52:
 5939 0619 73656E73 		.ascii	"sensor\000"
 5939      6F7200
 5940              	.LASF46:
 5941 0620 73656E73 		.ascii	"sensetivitySeed\000"
 5941      65746976 
 5941      69747953 
 5941      65656400 
 5942              	.LASF84:
ARM GAS  C:\Users\SHOZO\AppData\Local\Temp\cc3BkmVy.s 			page 161


 5943 0630 43617053 		.ascii	"CapSense_EnableWidget\000"
 5943      656E7365 
 5943      5F456E61 
 5943      626C6557 
 5943      69646765 
 5944              	.LASF16:
 5945 0646 63686172 		.ascii	"char\000"
 5945      00
 5946              	.LASF66:
 5947 064b 43617053 		.ascii	"CapSense_GetNegativeNoiseThreshold\000"
 5947      656E7365 
 5947      5F476574 
 5947      4E656761 
 5947      74697665 
 5948              	.LASF34:
 5949 066e 70726573 		.ascii	"prescalerTable\000"
 5949      63616C65 
 5949      72546162 
 5949      6C6500
 5950              	.LASF10:
 5951 067d 75696E74 		.ascii	"uint16\000"
 5951      313600
 5952              	.LASF57:
 5953 0684 64617461 		.ascii	"data\000"
 5953      00
 5954              	.LASF19:
 5955 0689 69646163 		.ascii	"idac1LevelsTbl\000"
 5955      314C6576 
 5955      656C7354 
 5955      626C00
 5956              	.LASF93:
 5957 0698 7265736F 		.ascii	"resolution\000"
 5957      6C757469 
 5957      6F6E00
 5958              	.LASF80:
 5959 06a3 72617749 		.ascii	"rawIndex\000"
 5959      6E646578 
 5959      00
 5960              	.LASF152:
 5961 06ac 43617053 		.ascii	"CapSense_UpdateThresholds\000"
 5961      656E7365 
 5961      5F557064 
 5961      61746554 
 5961      68726573 
 5962              	.LASF97:
 5963 06c6 43617053 		.ascii	"CapSense_centroid\000"
 5963      656E7365 
 5963      5F63656E 
 5963      74726F69 
 5963      6400
 5964              	.LASF148:
 5965 06d8 43617053 		.ascii	"CapSense_ScanEnabledWidgets\000"
 5965      656E7365 
 5965      5F536361 
 5965      6E456E61 
 5965      626C6564 
 5966              	.LASF6:
ARM GAS  C:\Users\SHOZO\AppData\Local\Temp\cc3BkmVy.s 			page 162


 5967 06f4 6C6F6E67 		.ascii	"long long int\000"
 5967      206C6F6E 
 5967      6720696E 
 5967      7400
 5968              	.LASF119:
 5969 0702 43617053 		.ascii	"CapSense_GetWidgetNumber\000"
 5969      656E7365 
 5969      5F476574 
 5969      57696467 
 5969      65744E75 
 5970              	.LASF74:
 5971 071b 6465626F 		.ascii	"debounce\000"
 5971      756E6365 
 5971      00
 5972              	.LASF38:
 5973 0724 70747250 		.ascii	"ptrPreScan\000"
 5973      72655363 
 5973      616E00
 5974              	.LASF73:
 5975 072f 43617053 		.ascii	"CapSense_CheckIsSensorActive\000"
 5975      656E7365 
 5975      5F436865 
 5975      636B4973 
 5975      53656E73 
 5976              	.LASF37:
 5977 074c 70747247 		.ascii	"ptrGetRaw\000"
 5977      65745261 
 5977      7700
 5978              	.LASF109:
 5979 0756 43617053 		.ascii	"CapSense_UpdateSensorBaseline\000"
 5979      656E7365 
 5979      5F557064 
 5979      61746553 
 5979      656E736F 
 5980              	.LASF50:
 5981 0774 43617053 		.ascii	"CapSense_BaseInit\000"
 5981      656E7365 
 5981      5F426173 
 5981      65496E69 
 5981      7400
 5982              	.LASF92:
 5983 0786 43617053 		.ascii	"CapSense_CalcCentroid\000"
 5983      656E7365 
 5983      5F43616C 
 5983      6343656E 
 5983      74726F69 
 5984              	.LASF29:
 5985 079c 73616D70 		.ascii	"sampleMinTbl\000"
 5985      6C654D69 
 5985      6E54626C 
 5985      00
 5986              	.LASF127:
 5987 07a9 43617053 		.ascii	"CapSense_sensorRaw\000"
 5987      656E7365 
 5987      5F73656E 
 5987      736F7252 
 5987      617700
ARM GAS  C:\Users\SHOZO\AppData\Local\Temp\cc3BkmVy.s 			page 163


 5988              	.LASF120:
 5989 07bc 43617053 		.ascii	"CapSense_GetLowBaselineReset\000"
 5989      656E7365 
 5989      5F476574 
 5989      4C6F7742 
 5989      6173656C 
 5990              	.LASF70:
 5991 07d9 43617053 		.ascii	"CapSense_SetNegativeNoiseThreshold\000"
 5991      656E7365 
 5991      5F536574 
 5991      4E656761 
 5991      74697665 
 5992              	.LASF11:
 5993 07fc 75696E74 		.ascii	"uint32\000"
 5993      333200
 5994              	.LASF117:
 5995 0803 66697273 		.ascii	"firstTimeIndex\000"
 5995      7454696D 
 5995      65496E64 
 5995      657800
 5996              	.LASF91:
 5997 0812 73746172 		.ascii	"startOfSlider\000"
 5997      744F6653 
 5997      6C696465 
 5997      7200
 5998              	.LASF69:
 5999 0820 43617053 		.ascii	"CapSense_SetFingerHysteresis\000"
 5999      656E7365 
 5999      5F536574 
 5999      46696E67 
 5999      65724879 
 6000              	.LASF62:
 6001 083d 43617053 		.ascii	"CapSense_GetFingerThreshold\000"
 6001      656E7365 
 6001      5F476574 
 6001      46696E67 
 6001      65725468 
 6002              	.LASF99:
 6003 0859 6E756D65 		.ascii	"numerator\000"
 6003      7261746F 
 6003      7200
 6004              	.LASF18:
 6005 0863 6C6F6E67 		.ascii	"long double\000"
 6005      20646F75 
 6005      626C6500 
 6006              	.LASF114:
 6007 086f 6C617374 		.ascii	"lastSensor\000"
 6007      53656E73 
 6007      6F7200
 6008              	.LASF47:
 6009 087a 6866636C 		.ascii	"hfclkFreq_MHz\000"
 6009      6B467265 
 6009      715F4D48 
 6009      7A00
 6010              	.LASF115:
 6011 0888 43617053 		.ascii	"CapSense_GetCentroidPos\000"
 6011      656E7365 
ARM GAS  C:\Users\SHOZO\AppData\Local\Temp\cc3BkmVy.s 			page 164


 6011      5F476574 
 6011      43656E74 
 6011      726F6964 
 6012              	.LASF20:
 6013 08a0 69646163 		.ascii	"idac2LevelsTbl\000"
 6013      324C6576 
 6013      656C7354 
 6013      626C00
 6014              	.LASF2:
 6015 08af 73686F72 		.ascii	"short int\000"
 6015      7420696E 
 6015      7400
 6016              	.LASF4:
 6017 08b9 6C6F6E67 		.ascii	"long int\000"
 6017      20696E74 
 6017      00
 6018              	.LASF113:
 6019 08c2 66697273 		.ascii	"firstSensor\000"
 6019      7453656E 
 6019      736F7200 
 6020              	.LASF90:
 6021 08ce 74656D70 		.ascii	"temp\000"
 6021      00
 6022              	.LASF86:
 6023 08d3 43617053 		.ascii	"CapSense_FindMaximum\000"
 6023      656E7365 
 6023      5F46696E 
 6023      644D6178 
 6023      696D756D 
 6024              	.LASF24:
 6025 08e8 77696467 		.ascii	"widgetNubmersTbl\000"
 6025      65744E75 
 6025      626D6572 
 6025      7354626C 
 6025      00
 6026              	.LASF122:
 6027 08f9 43617053 		.ascii	"CapSense_EnableRawDataFilters\000"
 6027      656E7365 
 6027      5F456E61 
 6027      626C6552 
 6027      61774461 
 6028              	.LASF135:
 6029 0917 43617053 		.ascii	"CapSense_lowBaselineReset\000"
 6029      656E7365 
 6029      5F6C6F77 
 6029      42617365 
 6029      6C696E65 
 6030              	.LASF100:
 6031 0931 64656E6F 		.ascii	"denominator\000"
 6031      6D696E61 
 6031      746F7200 
 6032              	.LASF32:
 6033 093d 6B56616C 		.ascii	"kValueTbl\000"
 6033      75655462 
 6033      6C00
 6034              	.LASF130:
 6035 0947 43617053 		.ascii	"CapSense_sensorBaseline\000"
ARM GAS  C:\Users\SHOZO\AppData\Local\Temp\cc3BkmVy.s 			page 165


 6035      656E7365 
 6035      5F73656E 
 6035      736F7242 
 6035      6173656C 
 6036              	.LASF89:
 6037 095f 6D617869 		.ascii	"maximum\000"
 6037      6D756D00 
 6038              	.LASF17:
 6039 0967 73697A65 		.ascii	"sizetype\000"
 6039      74797065 
 6039      00
 6040              	.LASF5:
 6041 0970 6C6F6E67 		.ascii	"long unsigned int\000"
 6041      20756E73 
 6041      69676E65 
 6041      6420696E 
 6041      7400
 6042              	.LASF48:
 6043 0982 706F696E 		.ascii	"pointers\000"
 6043      74657273 
 6043      00
 6044              	.LASF94:
 6045 098b 6E6F6973 		.ascii	"noiseThreshold\000"
 6045      65546872 
 6045      6573686F 
 6045      6C6400
 6046              	.LASF31:
 6047 099a 70726576 		.ascii	"previousSampleTbl\000"
 6047      696F7573 
 6047      53616D70 
 6047      6C655462 
 6047      6C00
 6048              	.LASF103:
 6049 09ac 43617053 		.ascii	"CapSense_JitterFilter\000"
 6049      656E7365 
 6049      5F4A6974 
 6049      74657246 
 6049      696C7465 
 6050              	.LASF71:
 6051 09c2 43617053 		.ascii	"CapSense_SetDebounce\000"
 6051      656E7365 
 6051      5F536574 
 6051      4465626F 
 6051      756E6365 
 6052              	.LASF76:
 6053 09d7 66696E67 		.ascii	"fingerThreshold\000"
 6053      65725468 
 6053      72657368 
 6053      6F6C6400 
 6054              	.LASF22:
 6055 09e7 63686172 		.ascii	"chargeDivTbl\000"
 6055      67654469 
 6055      7654626C 
 6055      00
 6056              	.LASF1:
 6057 09f4 756E7369 		.ascii	"unsigned char\000"
 6057      676E6564 
ARM GAS  C:\Users\SHOZO\AppData\Local\Temp\cc3BkmVy.s 			page 166


 6057      20636861 
 6057      7200
 6058              	.LASF137:
 6059 0a02 43617053 		.ascii	"CapSense_noiseThreshold\000"
 6059      656E7365 
 6059      5F6E6F69 
 6059      73655468 
 6059      72657368 
 6060              	.LASF75:
 6061 0a1a 6465626F 		.ascii	"debounceIndex\000"
 6061      756E6365 
 6061      496E6465 
 6061      7800
 6062              	.LASF53:
 6063 0a28 43617053 		.ascii	"CapSense_InitializeAllBaselines\000"
 6063      656E7365 
 6063      5F496E69 
 6063      7469616C 
 6063      697A6541 
 6064              	.LASF58:
 6065 0a48 43617053 		.ascii	"CapSense_GetBaselineData\000"
 6065      656E7365 
 6065      5F476574 
 6065      42617365 
 6065      6C696E65 
 6066              	.LASF72:
 6067 0a61 43617053 		.ascii	"CapSense_SetLowBaselineReset\000"
 6067      656E7365 
 6067      5F536574 
 6067      4C6F7742 
 6067      6173656C 
 6068              	.LASF21:
 6069 0a7e 73656E73 		.ascii	"sensetivityTbl\000"
 6069      65746976 
 6069      69747954 
 6069      626C00
 6070              	.LASF150:
 6071 0a8d 43617053 		.ascii	"CapSense_SetBitValue\000"
 6071      656E7365 
 6071      5F536574 
 6071      42697456 
 6071      616C7565 
 6072              	.LASF124:
 6073 0aa2 43617053 		.ascii	"CapSense_centroidMult\000"
 6073      656E7365 
 6073      5F63656E 
 6073      74726F69 
 6073      644D756C 
 6074              	.LASF154:
 6075 0ab8 47656E65 		.ascii	"Generated_Source\\PSoC4\\CapSense_CSHL.c\000"
 6075      72617465 
 6075      645F536F 
 6075      75726365 
 6075      5C50536F 
 6076              	.LASF149:
 6077 0adf 43617053 		.ascii	"CapSense_GetBitValue\000"
 6077      656E7365 
ARM GAS  C:\Users\SHOZO\AppData\Local\Temp\cc3BkmVy.s 			page 167


 6077      5F476574 
 6077      42697456 
 6077      616C7565 
 6078              	.LASF82:
 6079 0af4 73746174 		.ascii	"state\000"
 6079      6500
 6080              	.LASF145:
 6081 0afa 43617053 		.ascii	"CapSense_enableRawFilters\000"
 6081      656E7365 
 6081      5F656E61 
 6081      626C6552 
 6081      61774669 
 6082              	.LASF23:
 6083 0b14 6D6F6444 		.ascii	"modDivTbl\000"
 6083      69765462 
 6083      6C00
 6084              	.LASF0:
 6085 0b1e 7369676E 		.ascii	"signed char\000"
 6085      65642063 
 6085      68617200 
 6086              	.LASF3:
 6087 0b2a 73686F72 		.ascii	"short unsigned int\000"
 6087      7420756E 
 6087      7369676E 
 6087      65642069 
 6087      6E7400
 6088              	.LASF101:
 6089 0b3d 43617053 		.ascii	"CapSense_GetRadialCentroidPos\000"
 6089      656E7365 
 6089      5F476574 
 6089      52616469 
 6089      616C4365 
 6090              	.LASF41:
 6091 0b5b 70747253 		.ascii	"ptrSetBitValue\000"
 6091      65744269 
 6091      7456616C 
 6091      756500
 6092              	.LASF102:
 6093 0b6a 43617053 		.ascii	"CapSense_MedianFilter\000"
 6093      656E7365 
 6093      5F4D6564 
 6093      69616E46 
 6093      696C7465 
 6094              	.LASF107:
 6095 0b80 74656D70 		.ascii	"tempRaw\000"
 6095      52617700 
 6096              	.LASF121:
 6097 0b88 43617053 		.ascii	"CapSense_GetDebounce\000"
 6097      656E7365 
 6097      5F476574 
 6097      4465626F 
 6097      756E6365 
 6098              	.LASF79:
 6099 0b9d 43617053 		.ascii	"CapSense_CheckIsWidgetActive\000"
 6099      656E7365 
 6099      5F436865 
 6099      636B4973 
ARM GAS  C:\Users\SHOZO\AppData\Local\Temp\cc3BkmVy.s 			page 168


 6099      57696467 
 6100              	.LASF9:
 6101 0bba 75696E74 		.ascii	"uint8\000"
 6101      3800
 6102              	.LASF15:
 6103 0bc0 646F7562 		.ascii	"double\000"
 6103      6C6500
 6104              	.LASF143:
 6105 0bc7 43617053 		.ascii	"CapSense_rawFilterData1\000"
 6105      656E7365 
 6105      5F726177 
 6105      46696C74 
 6105      65724461 
 6106              	.LASF98:
 6107 0bdf 706F7369 		.ascii	"position\000"
 6107      74696F6E 
 6107      00
 6108              	.LASF133:
 6109 0be8 43617053 		.ascii	"CapSense_sensorOnMask\000"
 6109      656E7365 
 6109      5F73656E 
 6109      736F724F 
 6109      6E4D6173 
 6110              		.ident	"GCC: (GNU Tools for ARM Embedded Processors) 5.4.1 20160609 (release) [ARM/embedded-5-bran
