ARM GAS  C:\Users\SHOZO\AppData\Local\Temp\ccK42RbB.s 			page 1


   1              		.syntax unified
   2              		.cpu cortex-m0
   3              		.fpu softvfp
   4              		.eabi_attribute 20, 1
   5              		.eabi_attribute 21, 1
   6              		.eabi_attribute 23, 3
   7              		.eabi_attribute 24, 1
   8              		.eabi_attribute 25, 1
   9              		.eabi_attribute 26, 1
  10              		.eabi_attribute 30, 1
  11              		.eabi_attribute 34, 0
  12              		.eabi_attribute 18, 4
  13              		.thumb
  14              		.syntax unified
  15              		.file	"main.c"
  16              		.text
  17              	.Ltext0:
  18              		.cfi_sections	.debug_frame
  19              		.section	.text.main,"ax",%progbits
  20              		.align	2
  21              		.global	main
  22              		.code	16
  23              		.thumb_func
  24              		.type	main, %function
  25              	main:
  26              	.LFB32:
  27              		.file 1 "main.c"
   1:main.c        **** /* ========================================
   2:main.c        ****  *
   3:main.c        ****  * Copyright YOUR COMPANY, THE YEAR
   4:main.c        ****  * All Rights Reserved
   5:main.c        ****  * UNPUBLISHED, LICENSED SOFTWARE.
   6:main.c        ****  *
   7:main.c        ****  * CONFIDENTIAL AND PROPRIETARY INFORMATION
   8:main.c        ****  * WHICH IS THE PROPERTY OF your company.
   9:main.c        ****  *
  10:main.c        ****  * ========================================
  11:main.c        **** */
  12:main.c        **** #include <project.h>
  13:main.c        **** 
  14:main.c        **** 
  15:main.c        **** //#define NO_FINGER 0xFFFFu
  16:main.c        **** //#define SLIDER_RESOLUTION 100
  17:main.c        **** 
  18:main.c        **** //int status;
  19:main.c        **** int bright;
  20:main.c        **** int slider_pos = 0;
  21:main.c        **** 
  22:main.c        **** int preCnt;
  23:main.c        **** int	current_sensor;	
  24:main.c        **** int prev_sensor;
  25:main.c        **** int	prev_sound;
  26:main.c        **** int	slider_start_pos;
  27:main.c        ****     
  28:main.c        **** //PROTOTYPE
  29:main.c        **** 
  30:main.c        **** int main()
ARM GAS  C:\Users\SHOZO\AppData\Local\Temp\ccK42RbB.s 			page 2


  31:main.c        **** {
  28              		.loc 1 31 0
  29              		.cfi_startproc
  30              		@ Volatile: function does not return.
  31              		@ args = 0, pretend = 0, frame = 0
  32              		@ frame_needed = 0, uses_anonymous_args = 0
  33 0000 70B5     		push	{r4, r5, r6, lr}
  34              		.cfi_def_cfa_offset 16
  35              		.cfi_offset 4, -16
  36              		.cfi_offset 5, -12
  37              		.cfi_offset 6, -8
  38              		.cfi_offset 14, -4
  32:main.c        **** 
  33:main.c        ****     
  34:main.c        ****     CyGlobalIntEnable;      /* Enable global interrupts */
  39              		.loc 1 34 0
  40              		.syntax divided
  41              	@ 34 "main.c" 1
  42 0002 62B6     		CPSIE   i
  43              	@ 0 "" 2
  35:main.c        ****     CapSense_Start();	
  44              		.loc 1 35 0
  45              		.thumb
  46              		.syntax unified
  47 0004 FFF7FEFF 		bl	CapSense_Start
  48              	.LVL0:
  36:main.c        ****     UART_1_Start();
  49              		.loc 1 36 0
  50 0008 FFF7FEFF 		bl	UART_1_Start
  51              	.LVL1:
  37:main.c        ****     LED_CONTROL_Start();
  52              		.loc 1 37 0
  53 000c FFF7FEFF 		bl	LED_CONTROL_Start
  54              	.LVL2:
  38:main.c        ****     /* Initialize baselines */ 
  39:main.c        ****     CapSense_InitializeAllBaselines();
  55              		.loc 1 39 0
  56 0010 FFF7FEFF 		bl	CapSense_InitializeAllBaselines
  57              	.LVL3:
  58              	.L6:
  40:main.c        ****     /* Place your initialization/startup code here (e.g. MyInst_Start()) */
  41:main.c        **** 
  42:main.c        **** 
  43:main.c        ****     
  44:main.c        ****     for(;;)
  45:main.c        ****     {
  46:main.c        ****         /* Update all baselines */
  47:main.c        ****         CapSense_UpdateEnabledBaselines();
  59              		.loc 1 47 0
  60 0014 FFF7FEFF 		bl	CapSense_UpdateEnabledBaselines
  61              	.LVL4:
  48:main.c        ****         
  49:main.c        ****    		/* Start scanning all enabled sensors */
  50:main.c        ****     	CapSense_ScanEnabledWidgets();
  62              		.loc 1 50 0
  63 0018 FFF7FEFF 		bl	CapSense_ScanEnabledWidgets
  64              	.LVL5:
ARM GAS  C:\Users\SHOZO\AppData\Local\Temp\ccK42RbB.s 			page 3


  65              	.L2:
  51:main.c        ****         
  52:main.c        ****         /* Place your application code here */
  53:main.c        ****         while(CapSense_IsBusy() != 0);
  66              		.loc 1 53 0 discriminator 1
  67 001c FFF7FEFF 		bl	CapSense_IsBusy
  68              	.LVL6:
  69 0020 0028     		cmp	r0, #0
  70 0022 FBD1     		bne	.L2
  54:main.c        **** 		
  55:main.c        **** 		/* Loop until condition true */
  56:main.c        **** 		current_sensor = CapSense_GetCentroidPos(0);
  71              		.loc 1 56 0
  72 0024 FFF7FEFF 		bl	CapSense_GetCentroidPos
  73              	.LVL7:
  74 0028 1C4B     		ldr	r3, .L8
  75 002a 1860     		str	r0, [r3]
  57:main.c        **** 
  58:main.c        **** 		if(prev_sensor ==0xFF){
  76              		.loc 1 58 0
  77 002c 1C4B     		ldr	r3, .L8+4
  78 002e 1B68     		ldr	r3, [r3]
  79 0030 FF2B     		cmp	r3, #255
  80 0032 08D1     		bne	.L3
  59:main.c        **** 
  60:main.c        **** 			//if(current_sensor !=0xFF){
  61:main.c        **** 				slider_start_pos=current_sensor;
  81              		.loc 1 61 0
  82 0034 1B4B     		ldr	r3, .L8+8
  83 0036 1860     		str	r0, [r3]
  62:main.c        ****                 bright=0;
  84              		.loc 1 62 0
  85 0038 0022     		movs	r2, #0
  86 003a 1B4B     		ldr	r3, .L8+12
  87 003c 1A60     		str	r2, [r3]
  63:main.c        **** 				UART_1_UartPutChar((slider_start_pos)+1);
  88              		.loc 1 63 0
  89 003e 0130     		adds	r0, r0, #1
  90 0040 FFF7FEFF 		bl	UART_1_SpiUartWriteTxData
  91              	.LVL8:
  92 0044 15E0     		b	.L4
  93              	.L3:
  64:main.c        **** 			//}
  65:main.c        **** 
  66:main.c        **** 		}else {
  67:main.c        **** 
  68:main.c        **** 			if(current_sensor==0xFF){
  94              		.loc 1 68 0
  95 0046 FF28     		cmp	r0, #255
  96 0048 06D1     		bne	.L5
  69:main.c        ****                 UART_1_UartPutChar(0);
  97              		.loc 1 69 0
  98 004a 0020     		movs	r0, #0
  99 004c FFF7FEFF 		bl	UART_1_SpiUartWriteTxData
 100              	.LVL9:
  70:main.c        **** 				slider_pos = 0;
 101              		.loc 1 70 0
ARM GAS  C:\Users\SHOZO\AppData\Local\Temp\ccK42RbB.s 			page 4


 102 0050 0022     		movs	r2, #0
 103 0052 164B     		ldr	r3, .L8+16
 104 0054 1A60     		str	r2, [r3]
 105 0056 0CE0     		b	.L4
 106              	.L5:
  71:main.c        **** 			}else{
  72:main.c        **** 
  73:main.c        **** 				if(current_sensor!=prev_sensor){
 107              		.loc 1 73 0
 108 0058 9842     		cmp	r0, r3
 109 005a 0AD0     		beq	.L4
  74:main.c        **** 
  75:main.c        **** 					//if(prev_sound!=current_sensor){
  76:main.c        **** 
  77:main.c        **** 						bright=0;
 110              		.loc 1 77 0
 111 005c 0022     		movs	r2, #0
 112 005e 124B     		ldr	r3, .L8+12
 113 0060 1A60     		str	r2, [r3]
  78:main.c        **** 						UART_1_UartPutChar((current_sensor)+1);
 114              		.loc 1 78 0
 115 0062 0130     		adds	r0, r0, #1
 116 0064 FFF7FEFF 		bl	UART_1_SpiUartWriteTxData
 117              	.LVL10:
  79:main.c        **** 						slider_pos = current_sensor+1;
 118              		.loc 1 79 0
 119 0068 0C4B     		ldr	r3, .L8
 120 006a 1B68     		ldr	r3, [r3]
 121 006c 0133     		adds	r3, r3, #1
 122 006e 0F4A     		ldr	r2, .L8+16
 123 0070 1360     		str	r3, [r2]
 124              	.L4:
  80:main.c        **** 
  81:main.c        **** 					//}				
  82:main.c        **** 					//prev_sound=current_sensor;
  83:main.c        **** 				}
  84:main.c        **** 			}
  85:main.c        **** 		}
  86:main.c        ****     	
  87:main.c        ****     	prev_sensor = current_sensor;
 125              		.loc 1 87 0
 126 0072 0A4B     		ldr	r3, .L8
 127 0074 1A68     		ldr	r2, [r3]
 128 0076 0A4B     		ldr	r3, .L8+4
 129 0078 1A60     		str	r2, [r3]
  88:main.c        **** 
  89:main.c        ****     
  90:main.c        ****         LED_CONTROL_WriteCompare(65535-(uint32)bright);
 130              		.loc 1 90 0
 131 007a 0B4C     		ldr	r4, .L8+12
 132 007c 0C4D     		ldr	r5, .L8+20
 133 007e 2368     		ldr	r3, [r4]
 134 0080 E81A     		subs	r0, r5, r3
 135 0082 FFF7FEFF 		bl	LED_CONTROL_WriteCompare
 136              	.LVL11:
  91:main.c        ****         bright+=1000;
 137              		.loc 1 91 0
ARM GAS  C:\Users\SHOZO\AppData\Local\Temp\ccK42RbB.s 			page 5


 138 0086 2368     		ldr	r3, [r4]
 139 0088 FA22     		movs	r2, #250
 140 008a 9200     		lsls	r2, r2, #2
 141 008c 9446     		mov	ip, r2
 142 008e 6344     		add	r3, r3, ip
 143 0090 2360     		str	r3, [r4]
  92:main.c        ****         if(bright>65535)bright=65535;
 144              		.loc 1 92 0
 145 0092 AB42     		cmp	r3, r5
 146 0094 BEDD     		ble	.L6
 147              		.loc 1 92 0 is_stmt 0 discriminator 1
 148 0096 044B     		ldr	r3, .L8+12
 149 0098 1D60     		str	r5, [r3]
 150 009a BBE7     		b	.L6
 151              	.L9:
 152              		.align	2
 153              	.L8:
 154 009c 00000000 		.word	current_sensor
 155 00a0 00000000 		.word	prev_sensor
 156 00a4 00000000 		.word	slider_start_pos
 157 00a8 00000000 		.word	bright
 158 00ac 00000000 		.word	.LANCHOR0
 159 00b0 FFFF0000 		.word	65535
 160              		.cfi_endproc
 161              	.LFE32:
 162              		.size	main, .-main
 163              		.comm	slider_start_pos,4,4
 164              		.comm	prev_sound,4,4
 165              		.comm	prev_sensor,4,4
 166              		.comm	current_sensor,4,4
 167              		.comm	preCnt,4,4
 168              		.global	slider_pos
 169              		.comm	bright,4,4
 170              		.bss
 171              		.align	2
 172              		.set	.LANCHOR0,. + 0
 173              		.type	slider_pos, %object
 174              		.size	slider_pos, 4
 175              	slider_pos:
 176 0000 00000000 		.space	4
 177              		.text
 178              	.Letext0:
 179              		.file 2 "Generated_Source\\PSoC4/CapSense.h"
 180              		.file 3 "Generated_Source\\PSoC4/UART_1.h"
 181              		.file 4 "Generated_Source\\PSoC4/LED_CONTROL.h"
 182              		.file 5 "Generated_Source\\PSoC4/CapSense_CSHL.h"
 183              		.file 6 "Generated_Source\\PSoC4/UART_1_SPI_UART.h"
 184              		.file 7 "Generated_Source\\PSoC4/cytypes.h"