ARM GAS  C:\Users\SHOZO\AppData\Local\Temp\ccvk6Xs5.s 			page 1


   1              		.syntax unified
   2              		.cpu cortex-m0
   3              		.fpu softvfp
   4              		.eabi_attribute 20, 1
   5              		.eabi_attribute 21, 1
   6              		.eabi_attribute 23, 3
   7              		.eabi_attribute 24, 1
   8              		.eabi_attribute 25, 1
   9              		.eabi_attribute 26, 1
  10              		.eabi_attribute 30, 1
  11              		.eabi_attribute 34, 0
  12              		.eabi_attribute 18, 4
  13              		.thumb
  14              		.syntax unified
  15              		.file	"CapSense.c"
  16              		.text
  17              	.Ltext0:
  18              		.cfi_sections	.debug_frame
  19              		.section	.text.CapSense_CsdHwBlockInit,"ax",%progbits
  20              		.align	2
  21              		.global	CapSense_CsdHwBlockInit
  22              		.code	16
  23              		.thumb_func
  24              		.type	CapSense_CsdHwBlockInit, %function
  25              	CapSense_CsdHwBlockInit:
  26              	.LFB33:
  27              		.file 1 "Generated_Source\\PSoC4\\CapSense.c"
   1:Generated_Source\PSoC4/CapSense.c **** /*******************************************************************************
   2:Generated_Source\PSoC4/CapSense.c **** * File Name: CapSense.c
   3:Generated_Source\PSoC4/CapSense.c **** * Version 2.60
   4:Generated_Source\PSoC4/CapSense.c **** *
   5:Generated_Source\PSoC4/CapSense.c **** * Description:
   6:Generated_Source\PSoC4/CapSense.c **** *  This file provides the source code for scanning APIs for the CapSense CSD
   7:Generated_Source\PSoC4/CapSense.c **** *  component.
   8:Generated_Source\PSoC4/CapSense.c **** *
   9:Generated_Source\PSoC4/CapSense.c **** * Note:
  10:Generated_Source\PSoC4/CapSense.c **** *
  11:Generated_Source\PSoC4/CapSense.c **** ********************************************************************************
  12:Generated_Source\PSoC4/CapSense.c **** * Copyright 2013-2016, Cypress Semiconductor Corporation.  All rights reserved.
  13:Generated_Source\PSoC4/CapSense.c **** * You may use this file only in accordance with the license, terms, conditions,
  14:Generated_Source\PSoC4/CapSense.c **** * disclaimers, and limitations in the end user license agreement accompanying
  15:Generated_Source\PSoC4/CapSense.c **** * the software package with which this file was provided.
  16:Generated_Source\PSoC4/CapSense.c **** *******************************************************************************/
  17:Generated_Source\PSoC4/CapSense.c **** 
  18:Generated_Source\PSoC4/CapSense.c **** #include "CapSense.h"
  19:Generated_Source\PSoC4/CapSense.c **** #include "CapSense_PVT.h"
  20:Generated_Source\PSoC4/CapSense.c **** #include "cypins.h"
  21:Generated_Source\PSoC4/CapSense.c **** #include "cyapicallbacks.h"
  22:Generated_Source\PSoC4/CapSense.c **** 
  23:Generated_Source\PSoC4/CapSense.c **** #if(0u != CapSense_CSHL_API_GENERATE)
  24:Generated_Source\PSoC4/CapSense.c ****     #include "CapSense_CSHL.h"
  25:Generated_Source\PSoC4/CapSense.c **** #endif /* (0u != CapSense_CSHL_API_GENERATE) */
  26:Generated_Source\PSoC4/CapSense.c **** 
  27:Generated_Source\PSoC4/CapSense.c **** /* This definition is intended to prevent unexpected linker error.
  28:Generated_Source\PSoC4/CapSense.c ****    For more details please see the IAR Technical Note 49981 */
  29:Generated_Source\PSoC4/CapSense.c **** #if defined(__ICCARM__)
  30:Generated_Source\PSoC4/CapSense.c ****     extern void CapSense_EnableSensor(uint32 sensor);
ARM GAS  C:\Users\SHOZO\AppData\Local\Temp\ccvk6Xs5.s 			page 2


  31:Generated_Source\PSoC4/CapSense.c ****     extern void CapSense_DisableSensor(uint32 sensor);
  32:Generated_Source\PSoC4/CapSense.c **** #endif /* (__ICCARM__) */
  33:Generated_Source\PSoC4/CapSense.c **** 
  34:Generated_Source\PSoC4/CapSense.c **** /* SmartSense functions */
  35:Generated_Source\PSoC4/CapSense.c **** #if (CapSense_TUNING_METHOD == CapSense__TUNING_AUTO)
  36:Generated_Source\PSoC4/CapSense.c ****     uint8 CapSense_lowLevelTuningDone = 0u;
  37:Generated_Source\PSoC4/CapSense.c ****     uint8 CapSense_scanSpeedTbl[((CapSense_TOTAL_SENSOR_COUNT - 1u) / 8u) + 1u];
  38:Generated_Source\PSoC4/CapSense.c **** #endif /* (CapSense_TUNING_METHOD == CapSense__TUNING_AUTO) */
  39:Generated_Source\PSoC4/CapSense.c **** 
  40:Generated_Source\PSoC4/CapSense.c **** #if(CapSense_PRS_OPTIONS != CapSense__PRS_NONE)
  41:Generated_Source\PSoC4/CapSense.c ****     uint8 CapSense_prescalersTuningDone = 0u;
  42:Generated_Source\PSoC4/CapSense.c **** #endif /* (CapSense_PRS_OPTIONS == CapSense__PRS_NONE) */
  43:Generated_Source\PSoC4/CapSense.c **** 
  44:Generated_Source\PSoC4/CapSense.c **** /* Global software variables */
  45:Generated_Source\PSoC4/CapSense.c **** volatile uint8 CapSense_csdStatusVar = 0u;   /* CapSense CSD status, variable */
  46:Generated_Source\PSoC4/CapSense.c **** volatile uint8 CapSense_sensorIndex = 0u;    /* Index of scannig sensor */
  47:Generated_Source\PSoC4/CapSense.c **** 
  48:Generated_Source\PSoC4/CapSense.c **** /* Global array of Raw Counts */
  49:Generated_Source\PSoC4/CapSense.c **** uint16 CapSense_sensorRaw[CapSense_TOTAL_SENSOR_COUNT] = {0u};
  50:Generated_Source\PSoC4/CapSense.c **** 
  51:Generated_Source\PSoC4/CapSense.c **** /* Backup variables for trim registers*/
  52:Generated_Source\PSoC4/CapSense.c **** #if (CapSense_IDAC1_POLARITY == CapSense__IDAC_SINK)
  53:Generated_Source\PSoC4/CapSense.c ****     uint8 CapSense_csdTrim2;
  54:Generated_Source\PSoC4/CapSense.c **** #else
  55:Generated_Source\PSoC4/CapSense.c ****     uint8 CapSense_csdTrim1;
  56:Generated_Source\PSoC4/CapSense.c **** #endif /* (CapSense_IDAC1_POLARITY == CapSense__IDAC_SINK) */
  57:Generated_Source\PSoC4/CapSense.c **** 
  58:Generated_Source\PSoC4/CapSense.c **** /* Global array of un-scanned sensors state */
  59:Generated_Source\PSoC4/CapSense.c **** uint8 CapSense_unscannedSnsDriveMode[CapSense_PORT_PIN_CONFIG_TBL_ZISE];
  60:Generated_Source\PSoC4/CapSense.c **** 
  61:Generated_Source\PSoC4/CapSense.c **** /* Backup array for CapSense_sensorEnableMask */
  62:Generated_Source\PSoC4/CapSense.c **** uint8 CapSense_sensorEnableMaskBackup[(((CapSense_TOTAL_SENSOR_COUNT - 1u) / 8u) + 1u)];
  63:Generated_Source\PSoC4/CapSense.c **** 
  64:Generated_Source\PSoC4/CapSense.c **** /* Configured constants and arrays by Customizer */
  65:Generated_Source\PSoC4/CapSense.c **** uint8 CapSense_sensorEnableMask[(((CapSense_TOTAL_SENSOR_COUNT - 1u) / 8u) + 1u)] = {
  66:Generated_Source\PSoC4/CapSense.c **** 0xFFu, 0xFu, };
  67:Generated_Source\PSoC4/CapSense.c **** 
  68:Generated_Source\PSoC4/CapSense.c **** reg32 * CapSense_pcTable[] = {
  69:Generated_Source\PSoC4/CapSense.c ****     (reg32 *)CapSense_Sns__LinearSlider0_e0__LS__PC, 
  70:Generated_Source\PSoC4/CapSense.c ****     (reg32 *)CapSense_Sns__LinearSlider0_e1__LS__PC, 
  71:Generated_Source\PSoC4/CapSense.c ****     (reg32 *)CapSense_Sns__LinearSlider0_e2__LS__PC, 
  72:Generated_Source\PSoC4/CapSense.c ****     (reg32 *)CapSense_Sns__LinearSlider0_e3__LS__PC, 
  73:Generated_Source\PSoC4/CapSense.c ****     (reg32 *)CapSense_Sns__LinearSlider0_e4__LS__PC, 
  74:Generated_Source\PSoC4/CapSense.c ****     (reg32 *)CapSense_Sns__LinearSlider0_e5__LS__PC, 
  75:Generated_Source\PSoC4/CapSense.c ****     (reg32 *)CapSense_Sns__LinearSlider0_e6__LS__PC, 
  76:Generated_Source\PSoC4/CapSense.c ****     (reg32 *)CapSense_Sns__LinearSlider0_e7__LS__PC, 
  77:Generated_Source\PSoC4/CapSense.c ****     (reg32 *)CapSense_Sns__LinearSlider0_e8__LS__PC, 
  78:Generated_Source\PSoC4/CapSense.c ****     (reg32 *)CapSense_Sns__LinearSlider0_e9__LS__PC, 
  79:Generated_Source\PSoC4/CapSense.c ****     (reg32 *)CapSense_Sns__LinearSlider0_e10__LS__PC, 
  80:Generated_Source\PSoC4/CapSense.c ****     (reg32 *)CapSense_Sns__LinearSlider0_e11__LS__PC, 
  81:Generated_Source\PSoC4/CapSense.c **** };
  82:Generated_Source\PSoC4/CapSense.c **** 
  83:Generated_Source\PSoC4/CapSense.c **** const uint8 CapSense_portTable[] = {
  84:Generated_Source\PSoC4/CapSense.c ****     CapSense_Sns__LinearSlider0_e0__LS__PORT, 
  85:Generated_Source\PSoC4/CapSense.c ****     CapSense_Sns__LinearSlider0_e1__LS__PORT, 
  86:Generated_Source\PSoC4/CapSense.c ****     CapSense_Sns__LinearSlider0_e2__LS__PORT, 
  87:Generated_Source\PSoC4/CapSense.c ****     CapSense_Sns__LinearSlider0_e3__LS__PORT, 
ARM GAS  C:\Users\SHOZO\AppData\Local\Temp\ccvk6Xs5.s 			page 3


  88:Generated_Source\PSoC4/CapSense.c ****     CapSense_Sns__LinearSlider0_e4__LS__PORT, 
  89:Generated_Source\PSoC4/CapSense.c ****     CapSense_Sns__LinearSlider0_e5__LS__PORT, 
  90:Generated_Source\PSoC4/CapSense.c ****     CapSense_Sns__LinearSlider0_e6__LS__PORT, 
  91:Generated_Source\PSoC4/CapSense.c ****     CapSense_Sns__LinearSlider0_e7__LS__PORT, 
  92:Generated_Source\PSoC4/CapSense.c ****     CapSense_Sns__LinearSlider0_e8__LS__PORT, 
  93:Generated_Source\PSoC4/CapSense.c ****     CapSense_Sns__LinearSlider0_e9__LS__PORT, 
  94:Generated_Source\PSoC4/CapSense.c ****     CapSense_Sns__LinearSlider0_e10__LS__PORT, 
  95:Generated_Source\PSoC4/CapSense.c ****     CapSense_Sns__LinearSlider0_e11__LS__PORT, 
  96:Generated_Source\PSoC4/CapSense.c **** };
  97:Generated_Source\PSoC4/CapSense.c **** 
  98:Generated_Source\PSoC4/CapSense.c **** const uint32 CapSense_maskTable[] = {
  99:Generated_Source\PSoC4/CapSense.c ****     CapSense_Sns__LinearSlider0_e0__LS__MASK, 
 100:Generated_Source\PSoC4/CapSense.c ****     CapSense_Sns__LinearSlider0_e1__LS__MASK, 
 101:Generated_Source\PSoC4/CapSense.c ****     CapSense_Sns__LinearSlider0_e2__LS__MASK, 
 102:Generated_Source\PSoC4/CapSense.c ****     CapSense_Sns__LinearSlider0_e3__LS__MASK, 
 103:Generated_Source\PSoC4/CapSense.c ****     CapSense_Sns__LinearSlider0_e4__LS__MASK, 
 104:Generated_Source\PSoC4/CapSense.c ****     CapSense_Sns__LinearSlider0_e5__LS__MASK, 
 105:Generated_Source\PSoC4/CapSense.c ****     CapSense_Sns__LinearSlider0_e6__LS__MASK, 
 106:Generated_Source\PSoC4/CapSense.c ****     CapSense_Sns__LinearSlider0_e7__LS__MASK, 
 107:Generated_Source\PSoC4/CapSense.c ****     CapSense_Sns__LinearSlider0_e8__LS__MASK, 
 108:Generated_Source\PSoC4/CapSense.c ****     CapSense_Sns__LinearSlider0_e9__LS__MASK, 
 109:Generated_Source\PSoC4/CapSense.c ****     CapSense_Sns__LinearSlider0_e10__LS__MASK, 
 110:Generated_Source\PSoC4/CapSense.c ****     CapSense_Sns__LinearSlider0_e11__LS__MASK, 
 111:Generated_Source\PSoC4/CapSense.c **** };
 112:Generated_Source\PSoC4/CapSense.c **** 
 113:Generated_Source\PSoC4/CapSense.c **** const uint8 CapSense_pinShiftTbl[] = {
 114:Generated_Source\PSoC4/CapSense.c ****     (uint8) CapSense_Sns__LinearSlider0_e0__LS__SHIFT, 
 115:Generated_Source\PSoC4/CapSense.c ****     (uint8) CapSense_Sns__LinearSlider0_e1__LS__SHIFT, 
 116:Generated_Source\PSoC4/CapSense.c ****     (uint8) CapSense_Sns__LinearSlider0_e2__LS__SHIFT, 
 117:Generated_Source\PSoC4/CapSense.c ****     (uint8) CapSense_Sns__LinearSlider0_e3__LS__SHIFT, 
 118:Generated_Source\PSoC4/CapSense.c ****     (uint8) CapSense_Sns__LinearSlider0_e4__LS__SHIFT, 
 119:Generated_Source\PSoC4/CapSense.c ****     (uint8) CapSense_Sns__LinearSlider0_e5__LS__SHIFT, 
 120:Generated_Source\PSoC4/CapSense.c ****     (uint8) CapSense_Sns__LinearSlider0_e6__LS__SHIFT, 
 121:Generated_Source\PSoC4/CapSense.c ****     (uint8) CapSense_Sns__LinearSlider0_e7__LS__SHIFT, 
 122:Generated_Source\PSoC4/CapSense.c ****     (uint8) CapSense_Sns__LinearSlider0_e8__LS__SHIFT, 
 123:Generated_Source\PSoC4/CapSense.c ****     (uint8) CapSense_Sns__LinearSlider0_e9__LS__SHIFT, 
 124:Generated_Source\PSoC4/CapSense.c ****     (uint8) CapSense_Sns__LinearSlider0_e10__LS__SHIFT, 
 125:Generated_Source\PSoC4/CapSense.c ****     (uint8) CapSense_Sns__LinearSlider0_e11__LS__SHIFT, 
 126:Generated_Source\PSoC4/CapSense.c **** };
 127:Generated_Source\PSoC4/CapSense.c **** 
 128:Generated_Source\PSoC4/CapSense.c **** uint8 CapSense_modulationIDAC[CapSense_TOTAL_SENSOR_COUNT];
 129:Generated_Source\PSoC4/CapSense.c **** uint8 CapSense_compensationIDAC[CapSense_TOTAL_SENSOR_COUNT];
 130:Generated_Source\PSoC4/CapSense.c **** 
 131:Generated_Source\PSoC4/CapSense.c **** uint32 CapSense_widgetResolution[CapSense_RESOLUTIONS_TBL_SIZE] = {
 132:Generated_Source\PSoC4/CapSense.c ****     CapSense_RESOLUTION_12_BITS,
 133:Generated_Source\PSoC4/CapSense.c **** };
 134:Generated_Source\PSoC4/CapSense.c **** 
 135:Generated_Source\PSoC4/CapSense.c **** uint8 CapSense_senseClkDividerVal[CapSense_TOTAL_SCANSLOT_COUNT];
 136:Generated_Source\PSoC4/CapSense.c **** uint8 CapSense_sampleClkDividerVal[CapSense_TOTAL_SCANSLOT_COUNT];
 137:Generated_Source\PSoC4/CapSense.c **** 
 138:Generated_Source\PSoC4/CapSense.c **** const uint8 CapSense_widgetNumber[CapSense_TOTAL_SENSOR_COUNT] = {
 139:Generated_Source\PSoC4/CapSense.c ****     0u, 0u, 0u, 0u, 0u, 0u, 0u, 0u, 0u, 0u, 0u, 0u, /* LinearSlider0__LS */
 140:Generated_Source\PSoC4/CapSense.c **** };
 141:Generated_Source\PSoC4/CapSense.c **** 
 142:Generated_Source\PSoC4/CapSense.c **** reg32* const CapSense_prtSelTbl[CapSense_CFG_REG_TBL_SIZE] = {
 143:Generated_Source\PSoC4/CapSense.c ****     ((reg32 *) CYREG_HSIOM_PORT_SEL0),
 144:Generated_Source\PSoC4/CapSense.c ****     ((reg32 *) CYREG_HSIOM_PORT_SEL1),
ARM GAS  C:\Users\SHOZO\AppData\Local\Temp\ccvk6Xs5.s 			page 4


 145:Generated_Source\PSoC4/CapSense.c ****     ((reg32 *) CYREG_HSIOM_PORT_SEL2),
 146:Generated_Source\PSoC4/CapSense.c ****     ((reg32 *) CYREG_HSIOM_PORT_SEL3),
 147:Generated_Source\PSoC4/CapSense.c ****     ((reg32 *) CYREG_HSIOM_PORT_SEL4),
 148:Generated_Source\PSoC4/CapSense.c **** };
 149:Generated_Source\PSoC4/CapSense.c **** 
 150:Generated_Source\PSoC4/CapSense.c **** reg32* const CapSense_prtCfgTbl[CapSense_CFG_REG_TBL_SIZE] = {
 151:Generated_Source\PSoC4/CapSense.c ****     ((reg32 *) CYREG_PRT0_PC),
 152:Generated_Source\PSoC4/CapSense.c ****     ((reg32 *) CYREG_PRT1_PC),
 153:Generated_Source\PSoC4/CapSense.c ****     ((reg32 *) CYREG_PRT2_PC),
 154:Generated_Source\PSoC4/CapSense.c ****     ((reg32 *) CYREG_PRT3_PC),
 155:Generated_Source\PSoC4/CapSense.c ****     ((reg32 *) CYREG_PRT4_PC),
 156:Generated_Source\PSoC4/CapSense.c **** };
 157:Generated_Source\PSoC4/CapSense.c **** 
 158:Generated_Source\PSoC4/CapSense.c **** reg32* const CapSense_prtDRTbl[CapSense_CFG_REG_TBL_SIZE] = {
 159:Generated_Source\PSoC4/CapSense.c ****     ((reg32 *) CYREG_PRT0_DR),
 160:Generated_Source\PSoC4/CapSense.c ****     ((reg32 *) CYREG_PRT1_DR),
 161:Generated_Source\PSoC4/CapSense.c ****     ((reg32 *) CYREG_PRT2_DR),
 162:Generated_Source\PSoC4/CapSense.c ****     ((reg32 *) CYREG_PRT3_DR),
 163:Generated_Source\PSoC4/CapSense.c ****     ((reg32 *) CYREG_PRT4_DR),
 164:Generated_Source\PSoC4/CapSense.c **** };
 165:Generated_Source\PSoC4/CapSense.c **** 
 166:Generated_Source\PSoC4/CapSense.c **** 
 167:Generated_Source\PSoC4/CapSense.c **** 
 168:Generated_Source\PSoC4/CapSense.c **** /*******************************************************************************
 169:Generated_Source\PSoC4/CapSense.c **** * Function Name: CapSense_Init
 170:Generated_Source\PSoC4/CapSense.c **** ********************************************************************************
 171:Generated_Source\PSoC4/CapSense.c **** *
 172:Generated_Source\PSoC4/CapSense.c **** * Summary:
 173:Generated_Source\PSoC4/CapSense.c **** *  API initializes default CapSense configuration provided by the customizer that defines
 174:Generated_Source\PSoC4/CapSense.c **** *  the mode of component operations and resets all the sensors to an inactive state.
 175:Generated_Source\PSoC4/CapSense.c **** *
 176:Generated_Source\PSoC4/CapSense.c **** * Parameters:
 177:Generated_Source\PSoC4/CapSense.c **** *  None
 178:Generated_Source\PSoC4/CapSense.c **** *
 179:Generated_Source\PSoC4/CapSense.c **** * Return:
 180:Generated_Source\PSoC4/CapSense.c **** *  None
 181:Generated_Source\PSoC4/CapSense.c **** *
 182:Generated_Source\PSoC4/CapSense.c **** * Global Variables:
 183:Generated_Source\PSoC4/CapSense.c **** *  CapSense_immunityIndex - defines immunity level.
 184:Generated_Source\PSoC4/CapSense.c **** *
 185:Generated_Source\PSoC4/CapSense.c **** * Side Effects:
 186:Generated_Source\PSoC4/CapSense.c **** *  None
 187:Generated_Source\PSoC4/CapSense.c **** *
 188:Generated_Source\PSoC4/CapSense.c **** *******************************************************************************/
 189:Generated_Source\PSoC4/CapSense.c **** void CapSense_Init(void)
 190:Generated_Source\PSoC4/CapSense.c **** {
 191:Generated_Source\PSoC4/CapSense.c ****     uint32 curSensor;
 192:Generated_Source\PSoC4/CapSense.c **** 
 193:Generated_Source\PSoC4/CapSense.c ****     #if(CapSense_IS_SHIELD_ENABLE)
 194:Generated_Source\PSoC4/CapSense.c **** 
 195:Generated_Source\PSoC4/CapSense.c ****         #if((CapSense_CSH_TANK_PREGARGE_OPTION == CapSense__CAPPRIOBUF) || (0u != CapSense_CSH_TANK
 196:Generated_Source\PSoC4/CapSense.c ****             uint32 newRegValue;
 197:Generated_Source\PSoC4/CapSense.c **** 
 198:Generated_Source\PSoC4/CapSense.c ****             newRegValue = CapSense_CTANK_CONNECTION_REG;
 199:Generated_Source\PSoC4/CapSense.c ****             newRegValue &= ~(CapSense_CSD_CTANK_CONNECTION_MASK);
 200:Generated_Source\PSoC4/CapSense.c ****             newRegValue |= CapSense_CSD_CTANK_TO_AMUXBUS_B;
 201:Generated_Source\PSoC4/CapSense.c ****             CapSense_CTANK_CONNECTION_REG = newRegValue;
ARM GAS  C:\Users\SHOZO\AppData\Local\Temp\ccvk6Xs5.s 			page 5


 202:Generated_Source\PSoC4/CapSense.c **** 
 203:Generated_Source\PSoC4/CapSense.c ****             #if(CapSense_CSH_TANK_PREGARGE_OPTION == CapSense__CAPPRIOBUF)
 204:Generated_Source\PSoC4/CapSense.c ****                 newRegValue = CapSense_CTANK_PORT_PC_REG;
 205:Generated_Source\PSoC4/CapSense.c ****                 newRegValue &= ~(CapSense_CSD_CTANK_PC_MASK);
 206:Generated_Source\PSoC4/CapSense.c ****                 newRegValue |= CapSense_CTANK_PC_STRONG_MODE;
 207:Generated_Source\PSoC4/CapSense.c ****                 CapSense_CTANK_PORT_PC_REG = newRegValue;
 208:Generated_Source\PSoC4/CapSense.c **** 
 209:Generated_Source\PSoC4/CapSense.c ****                 newRegValue = CapSense_CTANK_PORT_DR_REG;
 210:Generated_Source\PSoC4/CapSense.c ****                 newRegValue &= ~(CapSense_CTANK_DR_MASK);
 211:Generated_Source\PSoC4/CapSense.c ****                 newRegValue |= CapSense_CTANK_DR_CONFIG;
 212:Generated_Source\PSoC4/CapSense.c ****                 CapSense_CTANK_PORT_DR_REG = newRegValue;
 213:Generated_Source\PSoC4/CapSense.c ****             #endif /* (CapSense_CSH_TANK_PREGARGE_OPTION == CapSense__CAPPRIOBUF) */
 214:Generated_Source\PSoC4/CapSense.c **** 
 215:Generated_Source\PSoC4/CapSense.c ****         #endif /* ((CapSense_CSH_TANK_PREGARGE_OPTION == CapSense__CAPPRIOBUF) || (CapSense_CSH_TAN
 216:Generated_Source\PSoC4/CapSense.c **** 
 217:Generated_Source\PSoC4/CapSense.c ****         CapSense_EnableShieldElectrode((uint32)CapSense_SHIELD_PIN_NUMBER, (uint32)CapSense_SHIELD_
 218:Generated_Source\PSoC4/CapSense.c **** 
 219:Generated_Source\PSoC4/CapSense.c ****     #endif /* (CapSense_IS_SHIELD_ENABLE) */
 220:Generated_Source\PSoC4/CapSense.c **** 
 221:Generated_Source\PSoC4/CapSense.c ****     for(curSensor = 0u; curSensor < CapSense_TOTAL_SENSOR_COUNT; curSensor++)
 222:Generated_Source\PSoC4/CapSense.c ****     {
 223:Generated_Source\PSoC4/CapSense.c ****         CapSense_SetUnscannedSensorState(curSensor, CapSense_CONNECT_INACTIVE_SNS);
 224:Generated_Source\PSoC4/CapSense.c ****     }
 225:Generated_Source\PSoC4/CapSense.c **** 
 226:Generated_Source\PSoC4/CapSense.c ****     CapSense_CsdHwBlockInit();
 227:Generated_Source\PSoC4/CapSense.c ****     CapSense_SetShieldDelay(CapSense_SHIELD_DELAY );
 228:Generated_Source\PSoC4/CapSense.c **** 
 229:Generated_Source\PSoC4/CapSense.c ****     /* Clear all sensors */
 230:Generated_Source\PSoC4/CapSense.c ****     CapSense_ClearSensors();
 231:Generated_Source\PSoC4/CapSense.c **** }
 232:Generated_Source\PSoC4/CapSense.c **** 
 233:Generated_Source\PSoC4/CapSense.c **** /*******************************************************************************
 234:Generated_Source\PSoC4/CapSense.c **** * Function Name: CapSense_CsdHwBlockInit
 235:Generated_Source\PSoC4/CapSense.c **** ********************************************************************************
 236:Generated_Source\PSoC4/CapSense.c **** *
 237:Generated_Source\PSoC4/CapSense.c **** * Summary:
 238:Generated_Source\PSoC4/CapSense.c **** *  Initialises the hardware parameters of the CSD block
 239:Generated_Source\PSoC4/CapSense.c **** *
 240:Generated_Source\PSoC4/CapSense.c **** * Parameters:
 241:Generated_Source\PSoC4/CapSense.c **** *  None
 242:Generated_Source\PSoC4/CapSense.c **** *
 243:Generated_Source\PSoC4/CapSense.c **** * Return:
 244:Generated_Source\PSoC4/CapSense.c **** *  None
 245:Generated_Source\PSoC4/CapSense.c **** *
 246:Generated_Source\PSoC4/CapSense.c **** * Global Variables:
 247:Generated_Source\PSoC4/CapSense.c **** *  CapSense_csdTrim1 - Contains IDAC trim register value for Sourcing Mode.
 248:Generated_Source\PSoC4/CapSense.c **** *  CapSense_csdTrim2 - Contains IDAC trim register value for Sinking Mode.
 249:Generated_Source\PSoC4/CapSense.c **** *
 250:Generated_Source\PSoC4/CapSense.c **** * Side Effects:
 251:Generated_Source\PSoC4/CapSense.c **** *  None
 252:Generated_Source\PSoC4/CapSense.c **** *
 253:Generated_Source\PSoC4/CapSense.c **** *******************************************************************************/
 254:Generated_Source\PSoC4/CapSense.c **** void CapSense_CsdHwBlockInit(void)
 255:Generated_Source\PSoC4/CapSense.c **** {
  28              		.loc 1 255 0
  29              		.cfi_startproc
  30              		@ args = 0, pretend = 0, frame = 0
ARM GAS  C:\Users\SHOZO\AppData\Local\Temp\ccvk6Xs5.s 			page 6


  31              		@ frame_needed = 0, uses_anonymous_args = 0
  32 0000 70B5     		push	{r4, r5, r6, lr}
  33              		.cfi_def_cfa_offset 16
  34              		.cfi_offset 4, -16
  35              		.cfi_offset 5, -12
  36              		.cfi_offset 6, -8
  37              		.cfi_offset 14, -4
 256:Generated_Source\PSoC4/CapSense.c ****     uint32 newRegValue;
 257:Generated_Source\PSoC4/CapSense.c **** 
 258:Generated_Source\PSoC4/CapSense.c ****         /* Set trim registers for CSD Mode */
 259:Generated_Source\PSoC4/CapSense.c ****     #if (CapSense_IDAC1_POLARITY == CapSense__IDAC_SINK)
 260:Generated_Source\PSoC4/CapSense.c ****         /* iDAC1 Sinking Mode */
 261:Generated_Source\PSoC4/CapSense.c ****         CapSense_csdTrim2 = (uint8)CapSense_CSD_TRIM2_REG;
 262:Generated_Source\PSoC4/CapSense.c ****         newRegValue = CapSense_csdTrim2;
 263:Generated_Source\PSoC4/CapSense.c ****         newRegValue &= CapSense_CSD_IDAC1_TRIM_MASK;
 264:Generated_Source\PSoC4/CapSense.c ****         newRegValue |= (uint32)((uint32)CapSense_SFLASH_CSD_TRIM2_REG & (uint32)CapSense_CSFLASH_TR
 265:Generated_Source\PSoC4/CapSense.c **** 
 266:Generated_Source\PSoC4/CapSense.c ****         #if (CapSense_IDAC_CNT == 2u)
 267:Generated_Source\PSoC4/CapSense.c ****             /* iDAC2 Sinking Mode */
 268:Generated_Source\PSoC4/CapSense.c ****             newRegValue &= CapSense_CSD_IDAC2_TRIM_MASK;
 269:Generated_Source\PSoC4/CapSense.c ****             newRegValue |= (uint32)((uint32)CapSense_SFLASH_CSD_TRIM2_REG & (uint32)CapSense_CSFLAS
 270:Generated_Source\PSoC4/CapSense.c ****         #endif /* (CapSense_IDAC_CNT == 2u) */
 271:Generated_Source\PSoC4/CapSense.c ****         CapSense_CSD_TRIM2_REG = newRegValue;
 272:Generated_Source\PSoC4/CapSense.c ****     #else
 273:Generated_Source\PSoC4/CapSense.c ****         /* iDAC1 Sourcing Mode */
 274:Generated_Source\PSoC4/CapSense.c ****         CapSense_csdTrim1 = (uint8)CapSense_CSD_TRIM1_REG;
  38              		.loc 1 274 0
  39 0002 1648     		ldr	r0, .L2
  40 0004 0368     		ldr	r3, [r0]
  41 0006 DBB2     		uxtb	r3, r3
  42 0008 154A     		ldr	r2, .L2+4
  43 000a 1370     		strb	r3, [r2]
  44              	.LVL0:
 275:Generated_Source\PSoC4/CapSense.c ****         newRegValue = CapSense_csdTrim1;
 276:Generated_Source\PSoC4/CapSense.c ****         newRegValue &= CapSense_CSD_IDAC1_TRIM_MASK;
  45              		.loc 1 276 0
  46 000c 0F24     		movs	r4, #15
  47 000e A343     		bics	r3, r4
  48              	.LVL1:
  49 0010 1900     		movs	r1, r3
  50              	.LVL2:
 277:Generated_Source\PSoC4/CapSense.c ****         newRegValue |= (uint32)((uint32)CapSense_SFLASH_CSD_TRIM1_REG & (uint32)CapSense_CSFLASH_TR
  51              		.loc 1 277 0
  52 0012 144D     		ldr	r5, .L2+8
  53 0014 2B78     		ldrb	r3, [r5]
  54 0016 0F22     		movs	r2, #15
  55 0018 1340     		ands	r3, r2
  56 001a 0B43     		orrs	r3, r1
  57              	.LVL3:
 278:Generated_Source\PSoC4/CapSense.c ****         #if (CapSense_IDAC_CNT == 2u)
 279:Generated_Source\PSoC4/CapSense.c ****              /* iDAC2 Sourcing Mode */
 280:Generated_Source\PSoC4/CapSense.c ****             newRegValue &= CapSense_CSD_IDAC2_TRIM_MASK;
  58              		.loc 1 280 0
  59 001c E132     		adds	r2, r2, #225
  60 001e 9343     		bics	r3, r2
  61              	.LVL4:
 281:Generated_Source\PSoC4/CapSense.c ****             newRegValue |= (uint32)((uint32)CapSense_SFLASH_CSD_TRIM1_REG & (uint32)CapSense_CSFLAS
ARM GAS  C:\Users\SHOZO\AppData\Local\Temp\ccvk6Xs5.s 			page 7


  62              		.loc 1 281 0
  63 0020 2A78     		ldrb	r2, [r5]
  64 0022 A243     		bics	r2, r4
  65 0024 1343     		orrs	r3, r2
  66              	.LVL5:
 282:Generated_Source\PSoC4/CapSense.c ****         #endif
 283:Generated_Source\PSoC4/CapSense.c ****         CapSense_CSD_TRIM1_REG = newRegValue;
  67              		.loc 1 283 0
  68 0026 0360     		str	r3, [r0]
 284:Generated_Source\PSoC4/CapSense.c ****     #endif /* (CapSense_IDAC1_POLARITY == CapSense__IDAC_SINK) */
 285:Generated_Source\PSoC4/CapSense.c **** 
 286:Generated_Source\PSoC4/CapSense.c ****     /* Configure CSD and IDAC */
 287:Generated_Source\PSoC4/CapSense.c ****     #if (CapSense_IDAC_CNT > 1u)
 288:Generated_Source\PSoC4/CapSense.c ****         CapSense_CSD_IDAC_REG = CapSense_DEFAULT_CSD_IDAC_CONFIG;
  69              		.loc 1 288 0
  70 0028 0F4A     		ldr	r2, .L2+12
  71 002a 104B     		ldr	r3, .L2+16
  72              	.LVL6:
  73 002c 1A60     		str	r2, [r3]
  74              	.LVL7:
 289:Generated_Source\PSoC4/CapSense.c ****         CapSense_CSD_CFG_REG = CapSense_DEFAULT_CSD_CONFIG;
  75              		.loc 1 289 0
  76 002e 104A     		ldr	r2, .L2+20
  77 0030 104B     		ldr	r3, .L2+24
  78 0032 1A60     		str	r2, [r3]
 290:Generated_Source\PSoC4/CapSense.c ****     #else
 291:Generated_Source\PSoC4/CapSense.c ****         CapSense_CSD_IDAC_REG &= ~(CapSense_CSD_IDAC1_MODE_MASK  | CapSense_CSD_IDAC1_DATA_MASK);
 292:Generated_Source\PSoC4/CapSense.c ****         CapSense_CSD_IDAC_REG |= CapSense_DEFAULT_CSD_IDAC_CONFIG;
 293:Generated_Source\PSoC4/CapSense.c **** 
 294:Generated_Source\PSoC4/CapSense.c ****         CapSense_CSD_CFG_REG &= ~(CapSense_CSD_CONFIG_MASK);
 295:Generated_Source\PSoC4/CapSense.c ****         CapSense_CSD_CFG_REG |= (CapSense_DEFAULT_CSD_CONFIG);
 296:Generated_Source\PSoC4/CapSense.c ****     #endif /* (CapSense_IDAC_CNT > 1u) */
 297:Generated_Source\PSoC4/CapSense.c **** 
 298:Generated_Source\PSoC4/CapSense.c **** 
 299:Generated_Source\PSoC4/CapSense.c ****     /* Connect Cmod to AMUX bus */
 300:Generated_Source\PSoC4/CapSense.c ****     newRegValue = CapSense_CMOD_CONNECTION_REG;
  79              		.loc 1 300 0
  80 0034 104A     		ldr	r2, .L2+28
  81 0036 1168     		ldr	r1, [r2]
  82              	.LVL8:
 301:Generated_Source\PSoC4/CapSense.c ****     newRegValue &= ~(CapSense_CSD_CMOD_CONNECTION_MASK);
  83              		.loc 1 301 0
  84 0038 104B     		ldr	r3, .L2+32
  85 003a 0B40     		ands	r3, r1
  86              	.LVL9:
 302:Generated_Source\PSoC4/CapSense.c ****     newRegValue |= CapSense_CSD_CMOD_TO_AMUXBUS_A;
  87              		.loc 1 302 0
  88 003c C021     		movs	r1, #192
  89 003e C900     		lsls	r1, r1, #3
  90 0040 0B43     		orrs	r3, r1
  91              	.LVL10:
 303:Generated_Source\PSoC4/CapSense.c ****     CapSense_CMOD_CONNECTION_REG = newRegValue;
  92              		.loc 1 303 0
  93 0042 1360     		str	r3, [r2]
 304:Generated_Source\PSoC4/CapSense.c **** 
 305:Generated_Source\PSoC4/CapSense.c ****     /* Configure Dead Band PWM if it is enabled */
 306:Generated_Source\PSoC4/CapSense.c ****     #if(CapSense_CSD_4B_PWM_MODE != CapSense__PWM_OFF)
ARM GAS  C:\Users\SHOZO\AppData\Local\Temp\ccvk6Xs5.s 			page 8


 307:Generated_Source\PSoC4/CapSense.c ****         CapSense_CSD_4B_PWM_REG = CapSense_DEFAULT_CSD_4B_PWM_CONFIG;
 308:Generated_Source\PSoC4/CapSense.c ****     #endif /* (CapSense_CSD_4B_PWM_MODE != CapSense__PWM_OFF) */
 309:Generated_Source\PSoC4/CapSense.c **** 
 310:Generated_Source\PSoC4/CapSense.c ****     /* Setup ISR */
 311:Generated_Source\PSoC4/CapSense.c ****     CyIntDisable(CapSense_ISR_NUMBER);
  94              		.loc 1 311 0
  95 0044 0F20     		movs	r0, #15
  96 0046 FFF7FEFF 		bl	CyIntDisable
  97              	.LVL11:
 312:Generated_Source\PSoC4/CapSense.c ****     #if !defined(CY_EXTERNAL_INTERRUPT_CONFIG)
 313:Generated_Source\PSoC4/CapSense.c ****         (void)CyIntSetVector(CapSense_ISR_NUMBER, &CapSense_ISR);
  98              		.loc 1 313 0
  99 004a 0D49     		ldr	r1, .L2+36
 100 004c 0F20     		movs	r0, #15
 101 004e FFF7FEFF 		bl	CyIntSetVector
 102              	.LVL12:
 314:Generated_Source\PSoC4/CapSense.c ****         CyIntSetPriority(CapSense_ISR_NUMBER, CapSense_ISR_PRIORITY);
 103              		.loc 1 314 0
 104 0052 0321     		movs	r1, #3
 105 0054 0F20     		movs	r0, #15
 106 0056 FFF7FEFF 		bl	CyIntSetPriority
 107              	.LVL13:
 315:Generated_Source\PSoC4/CapSense.c ****     #endif /* (CY_EXTERNAL_INTERRUPT_CONFIG) */
 316:Generated_Source\PSoC4/CapSense.c **** }
 108              		.loc 1 316 0
 109              		@ sp needed
 110 005a 70BD     		pop	{r4, r5, r6, pc}
 111              	.L3:
 112              		.align	2
 113              	.L2:
 114 005c 00FF0840 		.word	1074331392
 115 0060 00000000 		.word	CapSense_csdTrim1
 116 0064 62F1FF0F 		.word	268431714
 117 0068 00020001 		.word	16777728
 118 006c 08000840 		.word	1074266120
 119 0070 0008A001 		.word	27265024
 120 0074 04000840 		.word	1074266116
 121 0078 10000140 		.word	1073807376
 122 007c FFF0FFFF 		.word	-3841
 123 0080 00000000 		.word	CapSense_ISR
 124              		.cfi_endproc
 125              	.LFE33:
 126              		.size	CapSense_CsdHwBlockInit, .-CapSense_CsdHwBlockInit
 127              		.section	.text.CapSense_Enable,"ax",%progbits
 128              		.align	2
 129              		.global	CapSense_Enable
 130              		.code	16
 131              		.thumb_func
 132              		.type	CapSense_Enable, %function
 133              	CapSense_Enable:
 134              	.LFB34:
 317:Generated_Source\PSoC4/CapSense.c **** 
 318:Generated_Source\PSoC4/CapSense.c **** 
 319:Generated_Source\PSoC4/CapSense.c **** /*******************************************************************************
 320:Generated_Source\PSoC4/CapSense.c **** * Function Name: CapSense_Enable
 321:Generated_Source\PSoC4/CapSense.c **** ********************************************************************************
 322:Generated_Source\PSoC4/CapSense.c **** *
ARM GAS  C:\Users\SHOZO\AppData\Local\Temp\ccvk6Xs5.s 			page 9


 323:Generated_Source\PSoC4/CapSense.c **** * Summary:
 324:Generated_Source\PSoC4/CapSense.c **** *  Enables the CSD block and related resources to an active mode.
 325:Generated_Source\PSoC4/CapSense.c **** *
 326:Generated_Source\PSoC4/CapSense.c **** * Parameters:
 327:Generated_Source\PSoC4/CapSense.c **** *  None
 328:Generated_Source\PSoC4/CapSense.c **** *
 329:Generated_Source\PSoC4/CapSense.c **** * Return:
 330:Generated_Source\PSoC4/CapSense.c **** *  None
 331:Generated_Source\PSoC4/CapSense.c **** *
 332:Generated_Source\PSoC4/CapSense.c **** * Global Variables:
 333:Generated_Source\PSoC4/CapSense.c **** *  None.
 334:Generated_Source\PSoC4/CapSense.c **** *
 335:Generated_Source\PSoC4/CapSense.c **** * Side Effects:
 336:Generated_Source\PSoC4/CapSense.c **** *  None
 337:Generated_Source\PSoC4/CapSense.c **** *
 338:Generated_Source\PSoC4/CapSense.c **** *******************************************************************************/
 339:Generated_Source\PSoC4/CapSense.c **** void CapSense_Enable(void)
 340:Generated_Source\PSoC4/CapSense.c **** {
 135              		.loc 1 340 0
 136              		.cfi_startproc
 137              		@ args = 0, pretend = 0, frame = 0
 138              		@ frame_needed = 0, uses_anonymous_args = 0
 139 0000 10B5     		push	{r4, lr}
 140              		.cfi_def_cfa_offset 8
 141              		.cfi_offset 4, -8
 142              		.cfi_offset 14, -4
 341:Generated_Source\PSoC4/CapSense.c ****     uint32 newRegValue;
 342:Generated_Source\PSoC4/CapSense.c **** 
 343:Generated_Source\PSoC4/CapSense.c ****     /* Enable Clocks */
 344:Generated_Source\PSoC4/CapSense.c ****     CapSense_SenseClk_Stop();
 143              		.loc 1 344 0
 144 0002 FFF7FEFF 		bl	CapSense_SenseClk_Stop
 145              	.LVL14:
 345:Generated_Source\PSoC4/CapSense.c ****     CapSense_SampleClk_Stop();
 146              		.loc 1 345 0
 147 0006 FFF7FEFF 		bl	CapSense_SampleClk_Stop
 148              	.LVL15:
 346:Generated_Source\PSoC4/CapSense.c **** 
 347:Generated_Source\PSoC4/CapSense.c ****     CapSense_SampleClk_SetDividerValue((uint16)CapSense_INITIAL_CLK_DIVIDER);
 149              		.loc 1 347 0
 150 000a 0021     		movs	r1, #0
 151 000c 0020     		movs	r0, #0
 152 000e FFF7FEFF 		bl	CapSense_SampleClk_SetFractionalDividerRegister
 153              	.LVL16:
 348:Generated_Source\PSoC4/CapSense.c ****     CapSense_SenseClk_SetDividerValue((uint16)CapSense_INITIAL_CLK_DIVIDER);
 154              		.loc 1 348 0
 155 0012 0021     		movs	r1, #0
 156 0014 0020     		movs	r0, #0
 157 0016 FFF7FEFF 		bl	CapSense_SenseClk_SetFractionalDividerRegister
 158              	.LVL17:
 349:Generated_Source\PSoC4/CapSense.c **** 
 350:Generated_Source\PSoC4/CapSense.c ****     #if (0u == CapSense_IS_M0S8PERI_BLOCK)
 351:Generated_Source\PSoC4/CapSense.c ****         CapSense_SenseClk_Start();
 159              		.loc 1 351 0
 160 001a FFF7FEFF 		bl	CapSense_SenseClk_Start
 161              	.LVL18:
 352:Generated_Source\PSoC4/CapSense.c ****         CapSense_SampleClk_Start();
ARM GAS  C:\Users\SHOZO\AppData\Local\Temp\ccvk6Xs5.s 			page 10


 162              		.loc 1 352 0
 163 001e FFF7FEFF 		bl	CapSense_SampleClk_Start
 164              	.LVL19:
 353:Generated_Source\PSoC4/CapSense.c ****     #else
 354:Generated_Source\PSoC4/CapSense.c ****         CapSense_SampleClk_Start();
 355:Generated_Source\PSoC4/CapSense.c ****         CapSense_SenseClk_StartEx(CapSense_SampleClk__DIV_ID);
 356:Generated_Source\PSoC4/CapSense.c ****     #endif /* (0u == CapSense_IS_M0S8PERI_BLOCK) */
 357:Generated_Source\PSoC4/CapSense.c **** 
 358:Generated_Source\PSoC4/CapSense.c ****     /* Enable the CSD block */
 359:Generated_Source\PSoC4/CapSense.c ****     newRegValue = CapSense_CSD_CFG_REG;
 165              		.loc 1 359 0
 166 0022 044A     		ldr	r2, .L5
 167 0024 1368     		ldr	r3, [r2]
 168              	.LVL20:
 360:Generated_Source\PSoC4/CapSense.c ****     newRegValue |= (CapSense_CSD_CFG_ENABLE | CapSense_CSD_CFG_SENSE_COMP_EN
 169              		.loc 1 360 0
 170 0026 0449     		ldr	r1, .L5+4
 171 0028 0B43     		orrs	r3, r1
 172              	.LVL21:
 361:Generated_Source\PSoC4/CapSense.c ****                                                    | CapSense_CSD_CFG_SENSE_EN);
 362:Generated_Source\PSoC4/CapSense.c ****     CapSense_CSD_CFG_REG = newRegValue;
 173              		.loc 1 362 0
 174 002a 1360     		str	r3, [r2]
 363:Generated_Source\PSoC4/CapSense.c **** 
 364:Generated_Source\PSoC4/CapSense.c ****     /* Enable interrupt */
 365:Generated_Source\PSoC4/CapSense.c ****     CyIntEnable(CapSense_ISR_NUMBER);
 175              		.loc 1 365 0
 176 002c 0F20     		movs	r0, #15
 177 002e FFF7FEFF 		bl	CyIntEnable
 178              	.LVL22:
 366:Generated_Source\PSoC4/CapSense.c **** }
 179              		.loc 1 366 0
 180              		@ sp needed
 181 0032 10BD     		pop	{r4, pc}
 182              	.L6:
 183              		.align	2
 184              	.L5:
 185 0034 04000840 		.word	1074266116
 186 0038 00100880 		.word	-2146955264
 187              		.cfi_endproc
 188              	.LFE34:
 189              		.size	CapSense_Enable, .-CapSense_Enable
 190              		.section	.text.CapSense_Stop,"ax",%progbits
 191              		.align	2
 192              		.global	CapSense_Stop
 193              		.code	16
 194              		.thumb_func
 195              		.type	CapSense_Stop, %function
 196              	CapSense_Stop:
 197              	.LFB36:
 367:Generated_Source\PSoC4/CapSense.c **** 
 368:Generated_Source\PSoC4/CapSense.c **** 
 369:Generated_Source\PSoC4/CapSense.c **** /*******************************************************************************
 370:Generated_Source\PSoC4/CapSense.c **** * Function Name: CapSense_Start
 371:Generated_Source\PSoC4/CapSense.c **** ********************************************************************************
 372:Generated_Source\PSoC4/CapSense.c **** *
 373:Generated_Source\PSoC4/CapSense.c **** * Summary:
ARM GAS  C:\Users\SHOZO\AppData\Local\Temp\ccvk6Xs5.s 			page 11


 374:Generated_Source\PSoC4/CapSense.c **** *  This is the preferred method to begin the component operation. CapSense_Start()
 375:Generated_Source\PSoC4/CapSense.c **** *  calls the CapSense_Init() function, and then calls the CapSense_Enable()
 376:Generated_Source\PSoC4/CapSense.c **** *  function. Initializes the registers and starts the CSD method of the CapSense
 377:Generated_Source\PSoC4/CapSense.c **** *  component. Resets all the sensors to an inactive state. Enables interrupts for
 378:Generated_Source\PSoC4/CapSense.c **** *  sensors scanning. When the SmartSense tuning mode is selected, the tuning procedure
 379:Generated_Source\PSoC4/CapSense.c **** *  is applied for all the sensors. The CapSense_Start() routine must be called before
 380:Generated_Source\PSoC4/CapSense.c **** *  any other API routines.
 381:Generated_Source\PSoC4/CapSense.c **** *
 382:Generated_Source\PSoC4/CapSense.c **** * Parameters:
 383:Generated_Source\PSoC4/CapSense.c **** *  None
 384:Generated_Source\PSoC4/CapSense.c **** *
 385:Generated_Source\PSoC4/CapSense.c **** * Return:
 386:Generated_Source\PSoC4/CapSense.c **** *  None
 387:Generated_Source\PSoC4/CapSense.c **** *
 388:Generated_Source\PSoC4/CapSense.c **** * Global Variables:
 389:Generated_Source\PSoC4/CapSense.c **** *   CapSense_initVar - used to check the initial configuration,
 390:Generated_Source\PSoC4/CapSense.c **** *   modified on the first function call.
 391:Generated_Source\PSoC4/CapSense.c **** *  CapSense_lowLevelTuningDone - Used to notify the Tuner GUI that
 392:Generated_Source\PSoC4/CapSense.c **** *   tuning of the scanning parameters is done.
 393:Generated_Source\PSoC4/CapSense.c **** *
 394:Generated_Source\PSoC4/CapSense.c **** * Side Effects:
 395:Generated_Source\PSoC4/CapSense.c **** *  None
 396:Generated_Source\PSoC4/CapSense.c **** *
 397:Generated_Source\PSoC4/CapSense.c **** *******************************************************************************/
 398:Generated_Source\PSoC4/CapSense.c **** void CapSense_Start(void)
 399:Generated_Source\PSoC4/CapSense.c **** {
 400:Generated_Source\PSoC4/CapSense.c **** 
 401:Generated_Source\PSoC4/CapSense.c ****     static uint8 CapSense_initVar = 0u;
 402:Generated_Source\PSoC4/CapSense.c **** 
 403:Generated_Source\PSoC4/CapSense.c ****     #if((0u != CapSense_AUTOCALIBRATION_ENABLE) && (CapSense_TUNING_METHOD != CapSense__TUNING_AUTO
 404:Generated_Source\PSoC4/CapSense.c ****         uint32 curSensor;
 405:Generated_Source\PSoC4/CapSense.c ****         uint32 rawLevel;
 406:Generated_Source\PSoC4/CapSense.c ****         uint32 widget;
 407:Generated_Source\PSoC4/CapSense.c ****     #endif /* ((0u != CapSense_AUTOCALIBRATION_ENABLE) && (CapSense_TUNING_METHOD != CapSense__TUNI
 408:Generated_Source\PSoC4/CapSense.c **** 
 409:Generated_Source\PSoC4/CapSense.c ****     if (CapSense_initVar == 0u)
 410:Generated_Source\PSoC4/CapSense.c ****     {
 411:Generated_Source\PSoC4/CapSense.c ****         CapSense_Init();
 412:Generated_Source\PSoC4/CapSense.c ****         CapSense_initVar = 1u;
 413:Generated_Source\PSoC4/CapSense.c ****     }
 414:Generated_Source\PSoC4/CapSense.c ****     CapSense_Enable();
 415:Generated_Source\PSoC4/CapSense.c **** 
 416:Generated_Source\PSoC4/CapSense.c ****     /* AutoTunning start */
 417:Generated_Source\PSoC4/CapSense.c ****     #if(CapSense_TUNING_METHOD == CapSense__TUNING_AUTO)
 418:Generated_Source\PSoC4/CapSense.c ****         #if(0u != CapSense_CSHL_API_GENERATE)
 419:Generated_Source\PSoC4/CapSense.c ****             CapSense_AutoTune();
 420:Generated_Source\PSoC4/CapSense.c ****             CapSense_lowLevelTuningDone = 1u;
 421:Generated_Source\PSoC4/CapSense.c ****         #endif /* (0u != CapSense_CSHL_API_GENERATE) */
 422:Generated_Source\PSoC4/CapSense.c ****     #else
 423:Generated_Source\PSoC4/CapSense.c ****         #if(0u != CapSense_AUTOCALIBRATION_ENABLE)
 424:Generated_Source\PSoC4/CapSense.c **** 
 425:Generated_Source\PSoC4/CapSense.c ****             #if(CapSense_IDAC_CNT > 1u)
 426:Generated_Source\PSoC4/CapSense.c ****                 CapSense_CSD_IDAC_REG &= ~(CapSense_CSD_IDAC2_MODE_MASK);
 427:Generated_Source\PSoC4/CapSense.c ****             #endif /* (CapSense_IDAC_CNT > 1u) */
 428:Generated_Source\PSoC4/CapSense.c **** 
 429:Generated_Source\PSoC4/CapSense.c ****             for(curSensor = 0u; curSensor < CapSense_TOTAL_SCANSLOT_COUNT; curSensor++)
 430:Generated_Source\PSoC4/CapSense.c ****             {
ARM GAS  C:\Users\SHOZO\AppData\Local\Temp\ccvk6Xs5.s 			page 12


 431:Generated_Source\PSoC4/CapSense.c ****                 widget = CapSense_widgetNumber[curSensor];
 432:Generated_Source\PSoC4/CapSense.c ****                 rawLevel = CapSense_widgetResolution[widget] >> CapSense_RESOLUTION_OFFSET;
 433:Generated_Source\PSoC4/CapSense.c **** 
 434:Generated_Source\PSoC4/CapSense.c ****                 /* Calibration level should be equal to 85% from scanning resolution */
 435:Generated_Source\PSoC4/CapSense.c ****                 rawLevel = (rawLevel * 85u) / 100u;
 436:Generated_Source\PSoC4/CapSense.c **** 
 437:Generated_Source\PSoC4/CapSense.c ****                 CapSense_CalibrateSensor(curSensor, rawLevel, CapSense_modulationIDAC);
 438:Generated_Source\PSoC4/CapSense.c ****             }
 439:Generated_Source\PSoC4/CapSense.c **** 
 440:Generated_Source\PSoC4/CapSense.c ****             #if(0u != CapSense_TOTAL_CENTROIDS_COUNT)
 441:Generated_Source\PSoC4/CapSense.c ****                 CapSense_NormalizeWidgets(CapSense_END_OF_WIDGETS_INDEX, CapSense_modulationIDAC);
 442:Generated_Source\PSoC4/CapSense.c ****             #endif /* (0u != CapSense_TOTAL_CENTROIDS_COUNT)  */
 443:Generated_Source\PSoC4/CapSense.c **** 
 444:Generated_Source\PSoC4/CapSense.c ****             #if(CapSense_IDAC_CNT > 1u)
 445:Generated_Source\PSoC4/CapSense.c ****                 for(curSensor = 0u; curSensor < CapSense_TOTAL_SCANSLOT_COUNT; curSensor++)
 446:Generated_Source\PSoC4/CapSense.c ****                 {
 447:Generated_Source\PSoC4/CapSense.c ****                     CapSense_compensationIDAC[curSensor] = CapSense_modulationIDAC[curSensor] / 2u;
 448:Generated_Source\PSoC4/CapSense.c ****                     CapSense_modulationIDAC[curSensor] = (CapSense_modulationIDAC[curSensor] + 1u) 
 449:Generated_Source\PSoC4/CapSense.c ****                 }
 450:Generated_Source\PSoC4/CapSense.c ****                 CapSense_CSD_IDAC_REG |= CapSense_CSD_IDAC2_MODE_FIXED;
 451:Generated_Source\PSoC4/CapSense.c ****             #endif /* (CapSense_IDAC_CNT > 1u) */
 452:Generated_Source\PSoC4/CapSense.c **** 
 453:Generated_Source\PSoC4/CapSense.c ****         #endif /* (0u != CapSense_AUTOCALIBRATION_ENABLE) */
 454:Generated_Source\PSoC4/CapSense.c **** 
 455:Generated_Source\PSoC4/CapSense.c ****     #endif /* ((CapSense_TUNING_METHOD == CapSense__TUNING_AUTO) */
 456:Generated_Source\PSoC4/CapSense.c **** 
 457:Generated_Source\PSoC4/CapSense.c ****     /* Initialize Advanced Centroid */
 458:Generated_Source\PSoC4/CapSense.c ****     #if(CapSense_TOTAL_TRACKPAD_GESTURES_COUNT > 0u)
 459:Generated_Source\PSoC4/CapSense.c ****         CapSense_AdvancedCentroidInit();
 460:Generated_Source\PSoC4/CapSense.c ****     #endif /* (CapSense_TOTAL_TRACKPAD_GESTURES_COUNT > 0u) */
 461:Generated_Source\PSoC4/CapSense.c **** 
 462:Generated_Source\PSoC4/CapSense.c ****     /* Connect sense comparator input to AMUXA */
 463:Generated_Source\PSoC4/CapSense.c ****     CapSense_CSD_CFG_REG |= CapSense_CSD_CFG_SENSE_INSEL;
 464:Generated_Source\PSoC4/CapSense.c **** }
 465:Generated_Source\PSoC4/CapSense.c **** 
 466:Generated_Source\PSoC4/CapSense.c **** 
 467:Generated_Source\PSoC4/CapSense.c **** /*******************************************************************************
 468:Generated_Source\PSoC4/CapSense.c **** * Function Name: CapSense_Stop
 469:Generated_Source\PSoC4/CapSense.c **** ********************************************************************************
 470:Generated_Source\PSoC4/CapSense.c **** *
 471:Generated_Source\PSoC4/CapSense.c **** * Summary:
 472:Generated_Source\PSoC4/CapSense.c **** *  Stops the sensor scanning, disables component interrupts, and resets all the
 473:Generated_Source\PSoC4/CapSense.c **** *  sensors to an inactive state. Disables the Active mode power template bits for
 474:Generated_Source\PSoC4/CapSense.c **** *  the subcomponents used within CapSense.
 475:Generated_Source\PSoC4/CapSense.c **** *
 476:Generated_Source\PSoC4/CapSense.c **** * Parameters:
 477:Generated_Source\PSoC4/CapSense.c **** *  None
 478:Generated_Source\PSoC4/CapSense.c **** *
 479:Generated_Source\PSoC4/CapSense.c **** * Return:
 480:Generated_Source\PSoC4/CapSense.c **** *  None
 481:Generated_Source\PSoC4/CapSense.c **** *
 482:Generated_Source\PSoC4/CapSense.c **** * Global Variables:
 483:Generated_Source\PSoC4/CapSense.c **** *  CapSense_csdTrim1 - Contains the IDAC trim register value for the Sourcing Mode.
 484:Generated_Source\PSoC4/CapSense.c **** *  CapSense_csdTrim2 - Contains the IDAC trim register value for vSinking Mode.
 485:Generated_Source\PSoC4/CapSense.c **** *
 486:Generated_Source\PSoC4/CapSense.c **** * Side Effects:
 487:Generated_Source\PSoC4/CapSense.c **** *  This function should be called after scans are completed.
ARM GAS  C:\Users\SHOZO\AppData\Local\Temp\ccvk6Xs5.s 			page 13


 488:Generated_Source\PSoC4/CapSense.c **** *
 489:Generated_Source\PSoC4/CapSense.c **** *******************************************************************************/
 490:Generated_Source\PSoC4/CapSense.c **** void CapSense_Stop(void)
 491:Generated_Source\PSoC4/CapSense.c **** {
 198              		.loc 1 491 0
 199              		.cfi_startproc
 200              		@ args = 0, pretend = 0, frame = 0
 201              		@ frame_needed = 0, uses_anonymous_args = 0
 202 0000 10B5     		push	{r4, lr}
 203              		.cfi_def_cfa_offset 8
 204              		.cfi_offset 4, -8
 205              		.cfi_offset 14, -4
 492:Generated_Source\PSoC4/CapSense.c ****     /* Disable interrupt */
 493:Generated_Source\PSoC4/CapSense.c ****     CyIntDisable(CapSense_ISR_NUMBER);
 206              		.loc 1 493 0
 207 0002 0F20     		movs	r0, #15
 208 0004 FFF7FEFF 		bl	CyIntDisable
 209              	.LVL23:
 494:Generated_Source\PSoC4/CapSense.c **** 
 495:Generated_Source\PSoC4/CapSense.c ****     CapSense_CSD_CFG_REG &= ~(CapSense_CSD_CFG_SENSE_COMP_EN | CapSense_CSD_CFG_SENSE_EN);
 210              		.loc 1 495 0
 211 0008 064A     		ldr	r2, .L8
 212 000a 1168     		ldr	r1, [r2]
 213 000c 064B     		ldr	r3, .L8+4
 214 000e 0B40     		ands	r3, r1
 215 0010 1360     		str	r3, [r2]
 496:Generated_Source\PSoC4/CapSense.c **** 
 497:Generated_Source\PSoC4/CapSense.c ****     #if(CapSense_IDAC_CNT == 2u)
 498:Generated_Source\PSoC4/CapSense.c ****         CapSense_CSD_CFG_REG &= ~(CapSense_CSD_CFG_ENABLE);
 216              		.loc 1 498 0
 217 0012 1368     		ldr	r3, [r2]
 218 0014 5B00     		lsls	r3, r3, #1
 219 0016 5B08     		lsrs	r3, r3, #1
 220 0018 1360     		str	r3, [r2]
 499:Generated_Source\PSoC4/CapSense.c ****     #endif /* (CapSense_IDAC_CNT == 2u) */
 500:Generated_Source\PSoC4/CapSense.c **** 
 501:Generated_Source\PSoC4/CapSense.c ****     /* Disable the Clocks */
 502:Generated_Source\PSoC4/CapSense.c ****     CapSense_SenseClk_Stop();
 221              		.loc 1 502 0
 222 001a FFF7FEFF 		bl	CapSense_SenseClk_Stop
 223              	.LVL24:
 503:Generated_Source\PSoC4/CapSense.c ****     CapSense_SampleClk_Stop();
 224              		.loc 1 503 0
 225 001e FFF7FEFF 		bl	CapSense_SampleClk_Stop
 226              	.LVL25:
 504:Generated_Source\PSoC4/CapSense.c **** }
 227              		.loc 1 504 0
 228              		@ sp needed
 229 0022 10BD     		pop	{r4, pc}
 230              	.L9:
 231              		.align	2
 232              	.L8:
 233 0024 04000840 		.word	1074266116
 234 0028 FFEFF7FF 		.word	-528385
 235              		.cfi_endproc
 236              	.LFE36:
 237              		.size	CapSense_Stop, .-CapSense_Stop
ARM GAS  C:\Users\SHOZO\AppData\Local\Temp\ccvk6Xs5.s 			page 14


 238              		.section	.text.CapSense_IsBusy,"ax",%progbits
 239              		.align	2
 240              		.global	CapSense_IsBusy
 241              		.code	16
 242              		.thumb_func
 243              		.type	CapSense_IsBusy, %function
 244              	CapSense_IsBusy:
 245              	.LFB41:
 505:Generated_Source\PSoC4/CapSense.c **** 
 506:Generated_Source\PSoC4/CapSense.c **** 
 507:Generated_Source\PSoC4/CapSense.c **** /*******************************************************************************
 508:Generated_Source\PSoC4/CapSense.c **** * Function Name: CapSense_FindNextSensor
 509:Generated_Source\PSoC4/CapSense.c **** ********************************************************************************
 510:Generated_Source\PSoC4/CapSense.c **** *
 511:Generated_Source\PSoC4/CapSense.c **** * Summary:
 512:Generated_Source\PSoC4/CapSense.c **** *  Finds the next sensor to scan.
 513:Generated_Source\PSoC4/CapSense.c **** *
 514:Generated_Source\PSoC4/CapSense.c **** * Parameters:
 515:Generated_Source\PSoC4/CapSense.c **** *  snsIndex:  Current index of sensor.
 516:Generated_Source\PSoC4/CapSense.c **** *
 517:Generated_Source\PSoC4/CapSense.c **** * Return:
 518:Generated_Source\PSoC4/CapSense.c **** *  Returns the next sensor index to scan.
 519:Generated_Source\PSoC4/CapSense.c **** *
 520:Generated_Source\PSoC4/CapSense.c **** * Global Variables:
 521:Generated_Source\PSoC4/CapSense.c **** *  CapSense_sensorEnableMask[] - used to store bit masks of the enabled sensors.
 522:Generated_Source\PSoC4/CapSense.c **** *
 523:Generated_Source\PSoC4/CapSense.c **** * Side Effects:
 524:Generated_Source\PSoC4/CapSense.c **** *  This function affects the  current scanning and should not
 525:Generated_Source\PSoC4/CapSense.c **** *  be used outside the component.
 526:Generated_Source\PSoC4/CapSense.c **** *
 527:Generated_Source\PSoC4/CapSense.c **** *******************************************************************************/
 528:Generated_Source\PSoC4/CapSense.c **** uint8 CapSense_FindNextSensor(uint8 snsIndex)
 529:Generated_Source\PSoC4/CapSense.c **** {
 530:Generated_Source\PSoC4/CapSense.c ****     uint32 enableFlag;
 531:Generated_Source\PSoC4/CapSense.c **** 
 532:Generated_Source\PSoC4/CapSense.c ****     /* Check if sensor enabled */
 533:Generated_Source\PSoC4/CapSense.c ****     do
 534:Generated_Source\PSoC4/CapSense.c ****     {
 535:Generated_Source\PSoC4/CapSense.c ****         /* Proceed with next sensor */
 536:Generated_Source\PSoC4/CapSense.c ****         snsIndex++;
 537:Generated_Source\PSoC4/CapSense.c ****         if(snsIndex == CapSense_TOTAL_SENSOR_COUNT)
 538:Generated_Source\PSoC4/CapSense.c ****         {
 539:Generated_Source\PSoC4/CapSense.c ****             break;
 540:Generated_Source\PSoC4/CapSense.c ****         }
 541:Generated_Source\PSoC4/CapSense.c ****         enableFlag = CapSense_GetBitValue(CapSense_sensorEnableMask, (uint32)snsIndex);
 542:Generated_Source\PSoC4/CapSense.c ****     }
 543:Generated_Source\PSoC4/CapSense.c ****     while(enableFlag == 0u);
 544:Generated_Source\PSoC4/CapSense.c **** 
 545:Generated_Source\PSoC4/CapSense.c ****     return ((uint8)snsIndex);
 546:Generated_Source\PSoC4/CapSense.c **** }
 547:Generated_Source\PSoC4/CapSense.c **** 
 548:Generated_Source\PSoC4/CapSense.c **** 
 549:Generated_Source\PSoC4/CapSense.c **** /*******************************************************************************
 550:Generated_Source\PSoC4/CapSense.c **** * Function Name: CapSense_ScanSensor
 551:Generated_Source\PSoC4/CapSense.c **** ********************************************************************************
 552:Generated_Source\PSoC4/CapSense.c **** *
 553:Generated_Source\PSoC4/CapSense.c **** * Summary:
ARM GAS  C:\Users\SHOZO\AppData\Local\Temp\ccvk6Xs5.s 			page 15


 554:Generated_Source\PSoC4/CapSense.c **** *  Sets the scan settings and starts scanning a sensor. After scanning is complete,
 555:Generated_Source\PSoC4/CapSense.c **** *  the ISR copies the measured sensor raw data to the global raw sensor array.
 556:Generated_Source\PSoC4/CapSense.c **** *  Use of the ISR ensures this function is non-blocking.
 557:Generated_Source\PSoC4/CapSense.c **** *  Each sensor has a unique number within the sensor array.
 558:Generated_Source\PSoC4/CapSense.c **** *  This number is assigned by the CapSense customizer in sequence.
 559:Generated_Source\PSoC4/CapSense.c **** *
 560:Generated_Source\PSoC4/CapSense.c **** * Parameters:
 561:Generated_Source\PSoC4/CapSense.c **** *  sensor:  Sensor number.
 562:Generated_Source\PSoC4/CapSense.c **** *
 563:Generated_Source\PSoC4/CapSense.c **** * Return:
 564:Generated_Source\PSoC4/CapSense.c **** *  None
 565:Generated_Source\PSoC4/CapSense.c **** *
 566:Generated_Source\PSoC4/CapSense.c **** * Global Variables:
 567:Generated_Source\PSoC4/CapSense.c **** *  CapSense_csdStatusVar - used to provide the status and mode of the scanning process.
 568:Generated_Source\PSoC4/CapSense.c **** *  Sets the busy status(scan in progress) and mode of scan as single scan.
 569:Generated_Source\PSoC4/CapSense.c **** *  CapSense_sensorIndex - used to store a sensor scanning sensor number.
 570:Generated_Source\PSoC4/CapSense.c **** *  Sets to the provided sensor argument.
 571:Generated_Source\PSoC4/CapSense.c **** *
 572:Generated_Source\PSoC4/CapSense.c **** * Side Effects:
 573:Generated_Source\PSoC4/CapSense.c **** *  None
 574:Generated_Source\PSoC4/CapSense.c **** *
 575:Generated_Source\PSoC4/CapSense.c **** *******************************************************************************/
 576:Generated_Source\PSoC4/CapSense.c **** void CapSense_ScanSensor(uint32 sensor)
 577:Generated_Source\PSoC4/CapSense.c **** {
 578:Generated_Source\PSoC4/CapSense.c ****     /* Clears status/control variable and set sensorIndex */
 579:Generated_Source\PSoC4/CapSense.c ****     CapSense_csdStatusVar = 0u;
 580:Generated_Source\PSoC4/CapSense.c ****     CapSense_sensorIndex = (uint8)sensor;
 581:Generated_Source\PSoC4/CapSense.c **** 
 582:Generated_Source\PSoC4/CapSense.c ****     /* Start of sensor scan */
 583:Generated_Source\PSoC4/CapSense.c ****     CapSense_csdStatusVar = (CapSense_SW_STS_BUSY | CapSense_SW_CTRL_SINGLE_SCAN);
 584:Generated_Source\PSoC4/CapSense.c ****     CapSense_PreScan(sensor);
 585:Generated_Source\PSoC4/CapSense.c **** }
 586:Generated_Source\PSoC4/CapSense.c **** 
 587:Generated_Source\PSoC4/CapSense.c **** 
 588:Generated_Source\PSoC4/CapSense.c **** #if(0u != CapSense_CSHL_API_GENERATE)
 589:Generated_Source\PSoC4/CapSense.c **** /*******************************************************************************
 590:Generated_Source\PSoC4/CapSense.c **** * Function Name: CapSense_ScanWidget
 591:Generated_Source\PSoC4/CapSense.c **** ********************************************************************************
 592:Generated_Source\PSoC4/CapSense.c **** *
 593:Generated_Source\PSoC4/CapSense.c **** * Summary:
 594:Generated_Source\PSoC4/CapSense.c **** *  Sets the scan settings and starts scanning a widget.
 595:Generated_Source\PSoC4/CapSense.c **** *
 596:Generated_Source\PSoC4/CapSense.c **** * Parameters:
 597:Generated_Source\PSoC4/CapSense.c **** *  uint32 widget: Widget number.
 598:Generated_Source\PSoC4/CapSense.c **** *
 599:Generated_Source\PSoC4/CapSense.c **** * Return:
 600:Generated_Source\PSoC4/CapSense.c **** *  None
 601:Generated_Source\PSoC4/CapSense.c **** *
 602:Generated_Source\PSoC4/CapSense.c **** * Global Variables:
 603:Generated_Source\PSoC4/CapSense.c **** *  CapSense_csdStatusVar - used to provide the status and mode of the scanning process.
 604:Generated_Source\PSoC4/CapSense.c **** *  Sets the busy status(scan in progress) and clears the single scan mode.
 605:Generated_Source\PSoC4/CapSense.c **** *  CapSense_sensorIndex - used to store a sensor scanning sensor number.
 606:Generated_Source\PSoC4/CapSense.c **** *  Sets to 0xFF and provided to function CapSense_FindNextSensor or
 607:Generated_Source\PSoC4/CapSense.c **** *  CapSense_sensorEnableMask[] - used to store bit masks of the enabled sensors.
 608:Generated_Source\PSoC4/CapSense.c **** *  CapSense_sensorEnableMaskBackup[] - used to backup bit masks of the enabled
 609:Generated_Source\PSoC4/CapSense.c **** *   sensors.
 610:Generated_Source\PSoC4/CapSense.c **** *
ARM GAS  C:\Users\SHOZO\AppData\Local\Temp\ccvk6Xs5.s 			page 16


 611:Generated_Source\PSoC4/CapSense.c **** * Side Effects:
 612:Generated_Source\PSoC4/CapSense.c **** *  None
 613:Generated_Source\PSoC4/CapSense.c **** *
 614:Generated_Source\PSoC4/CapSense.c **** *******************************************************************************/
 615:Generated_Source\PSoC4/CapSense.c **** void CapSense_ScanWidget(uint32 widget)
 616:Generated_Source\PSoC4/CapSense.c **** {
 617:Generated_Source\PSoC4/CapSense.c ****     uint32 sensorsPerWidget;
 618:Generated_Source\PSoC4/CapSense.c ****     uint32 lastSensor;
 619:Generated_Source\PSoC4/CapSense.c ****     uint32 snsIndex;
 620:Generated_Source\PSoC4/CapSense.c **** 
 621:Generated_Source\PSoC4/CapSense.c ****     /* Get first sensor in widget */
 622:Generated_Source\PSoC4/CapSense.c ****     CapSense_sensorIndex = CapSense_rawDataIndex[widget];
 623:Generated_Source\PSoC4/CapSense.c **** 
 624:Generated_Source\PSoC4/CapSense.c ****     /* Get number of sensors in widget */
 625:Generated_Source\PSoC4/CapSense.c ****     sensorsPerWidget = CapSense_numberOfSensors[widget];
 626:Generated_Source\PSoC4/CapSense.c **** 
 627:Generated_Source\PSoC4/CapSense.c ****     /* Check if generic Sensor */
 628:Generated_Source\PSoC4/CapSense.c ****     if(sensorsPerWidget == 0u)
 629:Generated_Source\PSoC4/CapSense.c ****     {
 630:Generated_Source\PSoC4/CapSense.c ****         sensorsPerWidget = 1u;
 631:Generated_Source\PSoC4/CapSense.c ****     }
 632:Generated_Source\PSoC4/CapSense.c **** 
 633:Generated_Source\PSoC4/CapSense.c ****     /* Get last sensor in widget */
 634:Generated_Source\PSoC4/CapSense.c ****     lastSensor = (CapSense_rawDataIndex[widget] + sensorsPerWidget) - 1u;
 635:Generated_Source\PSoC4/CapSense.c **** 
 636:Generated_Source\PSoC4/CapSense.c ****     /* Backup sensorEnableMask array */
 637:Generated_Source\PSoC4/CapSense.c ****     for(snsIndex = 0u; snsIndex < CapSense_TOTAL_SENSOR_MASK; snsIndex++)
 638:Generated_Source\PSoC4/CapSense.c ****     {
 639:Generated_Source\PSoC4/CapSense.c ****         /* Backup sensorEnableMask array */
 640:Generated_Source\PSoC4/CapSense.c ****         CapSense_sensorEnableMaskBackup[snsIndex] = CapSense_sensorEnableMask[snsIndex];
 641:Generated_Source\PSoC4/CapSense.c ****     }
 642:Generated_Source\PSoC4/CapSense.c **** 
 643:Generated_Source\PSoC4/CapSense.c ****     /* Update sensorEnableMask to scan the sensors that belong to widget */
 644:Generated_Source\PSoC4/CapSense.c ****     for(snsIndex = 0u; snsIndex < CapSense_TOTAL_SENSOR_COUNT; snsIndex++)
 645:Generated_Source\PSoC4/CapSense.c ****     {
 646:Generated_Source\PSoC4/CapSense.c ****         /* Update sensorEnableMask array bits to scan the widget only */
 647:Generated_Source\PSoC4/CapSense.c ****         if((snsIndex >= CapSense_sensorIndex) && (snsIndex <= lastSensor))
 648:Generated_Source\PSoC4/CapSense.c ****         {
 649:Generated_Source\PSoC4/CapSense.c ****             /* Set sensor bit to scan */
 650:Generated_Source\PSoC4/CapSense.c ****             CapSense_SetBitValue(CapSense_sensorEnableMask, snsIndex, 1u);
 651:Generated_Source\PSoC4/CapSense.c ****         }
 652:Generated_Source\PSoC4/CapSense.c ****         else
 653:Generated_Source\PSoC4/CapSense.c ****         {
 654:Generated_Source\PSoC4/CapSense.c ****             /* Reset sensor bit to do not scan */
 655:Generated_Source\PSoC4/CapSense.c ****             CapSense_SetBitValue(CapSense_sensorEnableMask, snsIndex, 0u);
 656:Generated_Source\PSoC4/CapSense.c ****         }
 657:Generated_Source\PSoC4/CapSense.c ****     }
 658:Generated_Source\PSoC4/CapSense.c **** 
 659:Generated_Source\PSoC4/CapSense.c ****     /* Check end of scan condition */
 660:Generated_Source\PSoC4/CapSense.c ****     if(CapSense_sensorIndex < CapSense_TOTAL_SENSOR_COUNT)
 661:Generated_Source\PSoC4/CapSense.c ****     {
 662:Generated_Source\PSoC4/CapSense.c ****         /* Set widget busy bit in status/control variable*/
 663:Generated_Source\PSoC4/CapSense.c ****         CapSense_csdStatusVar = (CapSense_SW_STS_BUSY | CapSense_SW_CTRL_WIDGET_SCAN);
 664:Generated_Source\PSoC4/CapSense.c ****         /* Scan first sensor of widget*/
 665:Generated_Source\PSoC4/CapSense.c ****         CapSense_PreScan((uint32)CapSense_sensorIndex);
 666:Generated_Source\PSoC4/CapSense.c ****     }
 667:Generated_Source\PSoC4/CapSense.c **** }
ARM GAS  C:\Users\SHOZO\AppData\Local\Temp\ccvk6Xs5.s 			page 17


 668:Generated_Source\PSoC4/CapSense.c **** #endif /* (0u != CapSense_CSHL_API_GENERATE) */
 669:Generated_Source\PSoC4/CapSense.c **** 
 670:Generated_Source\PSoC4/CapSense.c **** 
 671:Generated_Source\PSoC4/CapSense.c **** /*******************************************************************************
 672:Generated_Source\PSoC4/CapSense.c **** * Function Name: CapSense_ScanEnableWidgets
 673:Generated_Source\PSoC4/CapSense.c **** ********************************************************************************
 674:Generated_Source\PSoC4/CapSense.c **** *
 675:Generated_Source\PSoC4/CapSense.c **** * Summary:
 676:Generated_Source\PSoC4/CapSense.c **** *  This is the preferred method to scan all of the enabled widgets.
 677:Generated_Source\PSoC4/CapSense.c **** *  The API starts scanning a sensor within the enabled widgets.
 678:Generated_Source\PSoC4/CapSense.c **** *  The ISR continues scanning the sensors until all the enabled widgets are scanned.
 679:Generated_Source\PSoC4/CapSense.c **** *  Use of the ISR ensures this function is non-blocking.
 680:Generated_Source\PSoC4/CapSense.c **** *  All the widgets are enabled by default except proximity widgets.
 681:Generated_Source\PSoC4/CapSense.c **** *  The proximity widgets must be manually enabled as their long scan time
 682:Generated_Source\PSoC4/CapSense.c **** *  is incompatible with a fast response required of other widget types.
 683:Generated_Source\PSoC4/CapSense.c **** *
 684:Generated_Source\PSoC4/CapSense.c **** * Parameters:
 685:Generated_Source\PSoC4/CapSense.c **** *  None
 686:Generated_Source\PSoC4/CapSense.c **** *
 687:Generated_Source\PSoC4/CapSense.c **** * Return:
 688:Generated_Source\PSoC4/CapSense.c **** *  None
 689:Generated_Source\PSoC4/CapSense.c **** *
 690:Generated_Source\PSoC4/CapSense.c **** * Global Variables:
 691:Generated_Source\PSoC4/CapSense.c **** *  CapSense_csdStatusVar - used to provide the status and mode of the scanning process.
 692:Generated_Source\PSoC4/CapSense.c **** *  Sets the busy status(scan in progress) and clears the single scan mode.
 693:Generated_Source\PSoC4/CapSense.c **** *  CapSense_sensorIndex - used to store a sensor scanning sensor number.
 694:Generated_Source\PSoC4/CapSense.c **** *  Sets to 0xFF and provided to function CapSense_FindNextSensor or
 695:Generated_Source\PSoC4/CapSense.c **** *
 696:Generated_Source\PSoC4/CapSense.c **** * Side Effects:
 697:Generated_Source\PSoC4/CapSense.c **** *  None
 698:Generated_Source\PSoC4/CapSense.c **** *
 699:Generated_Source\PSoC4/CapSense.c **** *******************************************************************************/
 700:Generated_Source\PSoC4/CapSense.c **** void CapSense_ScanEnabledWidgets(void)
 701:Generated_Source\PSoC4/CapSense.c **** {
 702:Generated_Source\PSoC4/CapSense.c ****     /* Clears status/control variable and set sensorIndex */
 703:Generated_Source\PSoC4/CapSense.c ****     CapSense_csdStatusVar = 0u;
 704:Generated_Source\PSoC4/CapSense.c ****     CapSense_sensorIndex = 0xFFu;
 705:Generated_Source\PSoC4/CapSense.c **** 
 706:Generated_Source\PSoC4/CapSense.c ****     /* Find next sensor */
 707:Generated_Source\PSoC4/CapSense.c ****     CapSense_sensorIndex = (uint8)CapSense_FindNextSensor(CapSense_sensorIndex);
 708:Generated_Source\PSoC4/CapSense.c **** 
 709:Generated_Source\PSoC4/CapSense.c ****     /* Check end of scan condition */
 710:Generated_Source\PSoC4/CapSense.c ****     if(CapSense_sensorIndex < CapSense_TOTAL_SENSOR_COUNT)
 711:Generated_Source\PSoC4/CapSense.c ****     {
 712:Generated_Source\PSoC4/CapSense.c ****         CapSense_csdStatusVar |= CapSense_SW_STS_BUSY;
 713:Generated_Source\PSoC4/CapSense.c ****         CapSense_PreScan((uint32)CapSense_sensorIndex);
 714:Generated_Source\PSoC4/CapSense.c ****     }
 715:Generated_Source\PSoC4/CapSense.c **** }
 716:Generated_Source\PSoC4/CapSense.c **** 
 717:Generated_Source\PSoC4/CapSense.c **** 
 718:Generated_Source\PSoC4/CapSense.c **** /*******************************************************************************
 719:Generated_Source\PSoC4/CapSense.c **** * Function Name: CapSense_IsBusy
 720:Generated_Source\PSoC4/CapSense.c **** ********************************************************************************
 721:Generated_Source\PSoC4/CapSense.c **** *
 722:Generated_Source\PSoC4/CapSense.c **** * Summary:
 723:Generated_Source\PSoC4/CapSense.c **** *  Returns the state of the CapSense component. 1 means that scanning in
 724:Generated_Source\PSoC4/CapSense.c **** *  progress and 0 means that scanning is complete.
ARM GAS  C:\Users\SHOZO\AppData\Local\Temp\ccvk6Xs5.s 			page 18


 725:Generated_Source\PSoC4/CapSense.c **** *
 726:Generated_Source\PSoC4/CapSense.c **** * Parameters:
 727:Generated_Source\PSoC4/CapSense.c **** *  None
 728:Generated_Source\PSoC4/CapSense.c **** *
 729:Generated_Source\PSoC4/CapSense.c **** * Return:
 730:Generated_Source\PSoC4/CapSense.c **** *  Returns the state of scanning. 1 - scanning in progress, 0 - scanning
 731:Generated_Source\PSoC4/CapSense.c **** *  completed.
 732:Generated_Source\PSoC4/CapSense.c **** *
 733:Generated_Source\PSoC4/CapSense.c **** * Global Variables:
 734:Generated_Source\PSoC4/CapSense.c **** *  CapSense_csdStatusVar - used to provide the status and mode of the scanning process.
 735:Generated_Source\PSoC4/CapSense.c **** *  Checks the busy status.
 736:Generated_Source\PSoC4/CapSense.c **** *
 737:Generated_Source\PSoC4/CapSense.c **** * Side Effects:
 738:Generated_Source\PSoC4/CapSense.c **** *  None
 739:Generated_Source\PSoC4/CapSense.c **** *
 740:Generated_Source\PSoC4/CapSense.c **** *******************************************************************************/
 741:Generated_Source\PSoC4/CapSense.c **** uint32 CapSense_IsBusy(void)
 742:Generated_Source\PSoC4/CapSense.c **** {
 246              		.loc 1 742 0
 247              		.cfi_startproc
 248              		@ args = 0, pretend = 0, frame = 0
 249              		@ frame_needed = 0, uses_anonymous_args = 0
 250              		@ link register save eliminated.
 743:Generated_Source\PSoC4/CapSense.c ****     return ((uint32)((0u != (CapSense_csdStatusVar & CapSense_SW_STS_BUSY)) ? 1u : 0u));
 251              		.loc 1 743 0
 252 0000 024B     		ldr	r3, .L11
 253 0002 1878     		ldrb	r0, [r3]
 254 0004 0123     		movs	r3, #1
 255 0006 1840     		ands	r0, r3
 744:Generated_Source\PSoC4/CapSense.c **** }
 256              		.loc 1 744 0
 257              		@ sp needed
 258 0008 7047     		bx	lr
 259              	.L12:
 260 000a C046     		.align	2
 261              	.L11:
 262 000c 00000000 		.word	.LANCHOR0
 263              		.cfi_endproc
 264              	.LFE41:
 265              		.size	CapSense_IsBusy, .-CapSense_IsBusy
 266              		.section	.text.CapSense_ReadSensorRaw,"ax",%progbits
 267              		.align	2
 268              		.global	CapSense_ReadSensorRaw
 269              		.code	16
 270              		.thumb_func
 271              		.type	CapSense_ReadSensorRaw, %function
 272              	CapSense_ReadSensorRaw:
 273              	.LFB42:
 745:Generated_Source\PSoC4/CapSense.c **** 
 746:Generated_Source\PSoC4/CapSense.c **** 
 747:Generated_Source\PSoC4/CapSense.c **** /*******************************************************************************
 748:Generated_Source\PSoC4/CapSense.c **** * Function Name: CapSense_ReadSensorRaw
 749:Generated_Source\PSoC4/CapSense.c **** ********************************************************************************
 750:Generated_Source\PSoC4/CapSense.c **** *
 751:Generated_Source\PSoC4/CapSense.c **** * Summary:
 752:Generated_Source\PSoC4/CapSense.c **** *  Returns sensor raw data from the global CapSense_sensorRaw[ ] array.
 753:Generated_Source\PSoC4/CapSense.c **** *  Each scan sensor has a unique number within the sensor array.
ARM GAS  C:\Users\SHOZO\AppData\Local\Temp\ccvk6Xs5.s 			page 19


 754:Generated_Source\PSoC4/CapSense.c **** *  This number is assigned by the CapSense customizer in sequence.
 755:Generated_Source\PSoC4/CapSense.c **** *  Raw data can be used to perform calculations outside of the CapSense
 756:Generated_Source\PSoC4/CapSense.c **** *  provided framework.
 757:Generated_Source\PSoC4/CapSense.c **** *
 758:Generated_Source\PSoC4/CapSense.c **** * Parameters:
 759:Generated_Source\PSoC4/CapSense.c **** *  sensor:  Sensor number.
 760:Generated_Source\PSoC4/CapSense.c **** *
 761:Generated_Source\PSoC4/CapSense.c **** * Return:
 762:Generated_Source\PSoC4/CapSense.c **** *  Returns the current raw data value for a defined sensor number.
 763:Generated_Source\PSoC4/CapSense.c **** *
 764:Generated_Source\PSoC4/CapSense.c **** * Global Variables:
 765:Generated_Source\PSoC4/CapSense.c **** *  CapSense_sensorRaw[] - used to store sensors raw data.
 766:Generated_Source\PSoC4/CapSense.c **** *
 767:Generated_Source\PSoC4/CapSense.c **** * Side Effects:
 768:Generated_Source\PSoC4/CapSense.c **** *  None
 769:Generated_Source\PSoC4/CapSense.c **** *
 770:Generated_Source\PSoC4/CapSense.c **** *******************************************************************************/
 771:Generated_Source\PSoC4/CapSense.c **** uint16 CapSense_ReadSensorRaw(uint32 sensor)
 772:Generated_Source\PSoC4/CapSense.c **** {
 274              		.loc 1 772 0
 275              		.cfi_startproc
 276              		@ args = 0, pretend = 0, frame = 0
 277              		@ frame_needed = 0, uses_anonymous_args = 0
 278              		@ link register save eliminated.
 279              	.LVL26:
 773:Generated_Source\PSoC4/CapSense.c ****     return CapSense_sensorRaw[sensor];
 280              		.loc 1 773 0
 281 0000 4000     		lsls	r0, r0, #1
 282              	.LVL27:
 283 0002 024B     		ldr	r3, .L14
 284 0004 1818     		adds	r0, r3, r0
 285 0006 8088     		ldrh	r0, [r0, #4]
 774:Generated_Source\PSoC4/CapSense.c **** }
 286              		.loc 1 774 0
 287              		@ sp needed
 288 0008 7047     		bx	lr
 289              	.L15:
 290 000a C046     		.align	2
 291              	.L14:
 292 000c 00000000 		.word	.LANCHOR0
 293              		.cfi_endproc
 294              	.LFE42:
 295              		.size	CapSense_ReadSensorRaw, .-CapSense_ReadSensorRaw
 296              		.section	.text.CapSense_WriteSensorRaw,"ax",%progbits
 297              		.align	2
 298              		.global	CapSense_WriteSensorRaw
 299              		.code	16
 300              		.thumb_func
 301              		.type	CapSense_WriteSensorRaw, %function
 302              	CapSense_WriteSensorRaw:
 303              	.LFB43:
 775:Generated_Source\PSoC4/CapSense.c **** 
 776:Generated_Source\PSoC4/CapSense.c **** 
 777:Generated_Source\PSoC4/CapSense.c **** /*******************************************************************************
 778:Generated_Source\PSoC4/CapSense.c **** * Function Name: CapSense_WriteSensorRaw
 779:Generated_Source\PSoC4/CapSense.c **** ********************************************************************************
 780:Generated_Source\PSoC4/CapSense.c **** *
ARM GAS  C:\Users\SHOZO\AppData\Local\Temp\ccvk6Xs5.s 			page 20


 781:Generated_Source\PSoC4/CapSense.c **** * Summary:
 782:Generated_Source\PSoC4/CapSense.c **** *  This API writes the raw count value passed as an argument to the sensor Raw count array.
 783:Generated_Source\PSoC4/CapSense.c **** *
 784:Generated_Source\PSoC4/CapSense.c **** * Parameters:
 785:Generated_Source\PSoC4/CapSense.c **** *  sensor:  Sensor number.
 786:Generated_Source\PSoC4/CapSense.c **** *  value: Raw count value.
 787:Generated_Source\PSoC4/CapSense.c **** *
 788:Generated_Source\PSoC4/CapSense.c **** * Global Variables:
 789:Generated_Source\PSoC4/CapSense.c **** *  CapSense_sensorRaw[] - used to store sensors raw data.
 790:Generated_Source\PSoC4/CapSense.c **** *
 791:Generated_Source\PSoC4/CapSense.c **** * Return:
 792:Generated_Source\PSoC4/CapSense.c **** *  None
 793:Generated_Source\PSoC4/CapSense.c **** *
 794:Generated_Source\PSoC4/CapSense.c **** * Side Effects:
 795:Generated_Source\PSoC4/CapSense.c **** *  None
 796:Generated_Source\PSoC4/CapSense.c **** *
 797:Generated_Source\PSoC4/CapSense.c **** *******************************************************************************/
 798:Generated_Source\PSoC4/CapSense.c **** void CapSense_WriteSensorRaw(uint32 sensor, uint16 value)
 799:Generated_Source\PSoC4/CapSense.c **** {
 304              		.loc 1 799 0
 305              		.cfi_startproc
 306              		@ args = 0, pretend = 0, frame = 0
 307              		@ frame_needed = 0, uses_anonymous_args = 0
 308              		@ link register save eliminated.
 309              	.LVL28:
 800:Generated_Source\PSoC4/CapSense.c ****     CapSense_sensorRaw[sensor] = value;
 310              		.loc 1 800 0
 311 0000 4000     		lsls	r0, r0, #1
 312              	.LVL29:
 313 0002 024B     		ldr	r3, .L17
 314 0004 1818     		adds	r0, r3, r0
 315 0006 8180     		strh	r1, [r0, #4]
 801:Generated_Source\PSoC4/CapSense.c **** }
 316              		.loc 1 801 0
 317              		@ sp needed
 318 0008 7047     		bx	lr
 319              	.L18:
 320 000a C046     		.align	2
 321              	.L17:
 322 000c 00000000 		.word	.LANCHOR0
 323              		.cfi_endproc
 324              	.LFE43:
 325              		.size	CapSense_WriteSensorRaw, .-CapSense_WriteSensorRaw
 326              		.section	.text.CapSense_SetScanResolution,"ax",%progbits
 327              		.align	2
 328              		.global	CapSense_SetScanResolution
 329              		.code	16
 330              		.thumb_func
 331              		.type	CapSense_SetScanResolution, %function
 332              	CapSense_SetScanResolution:
 333              	.LFB44:
 802:Generated_Source\PSoC4/CapSense.c **** 
 803:Generated_Source\PSoC4/CapSense.c **** 
 804:Generated_Source\PSoC4/CapSense.c **** #if (CapSense_TUNING_METHOD != CapSense__TUNING_NONE)
 805:Generated_Source\PSoC4/CapSense.c ****     /*******************************************************************************
 806:Generated_Source\PSoC4/CapSense.c ****     * Function Name: CapSense_SetScanResolution
 807:Generated_Source\PSoC4/CapSense.c ****     ********************************************************************************
ARM GAS  C:\Users\SHOZO\AppData\Local\Temp\ccvk6Xs5.s 			page 21


 808:Generated_Source\PSoC4/CapSense.c ****     *
 809:Generated_Source\PSoC4/CapSense.c ****     * Summary:
 810:Generated_Source\PSoC4/CapSense.c ****     *  Sets a value of the sensor scan resolution for a widget.
 811:Generated_Source\PSoC4/CapSense.c ****     *  The MIN resolution can be set 8-bit. The MAX Resolution can be set 16 bit.
 812:Generated_Source\PSoC4/CapSense.c ****     *  This function is not available for the tuning mode "None".
 813:Generated_Source\PSoC4/CapSense.c ****     *
 814:Generated_Source\PSoC4/CapSense.c ****     * Parameters:
 815:Generated_Source\PSoC4/CapSense.c ****     *  widget:     Widget index.
 816:Generated_Source\PSoC4/CapSense.c ****     *  resolution: Represents the resolution value. The following defines which are available in th
 817:Generated_Source\PSoC4/CapSense.c ****     *              CapSense.h file should be used:
 818:Generated_Source\PSoC4/CapSense.c ****     *              CapSense_RESOLUTION_6_BITS
 819:Generated_Source\PSoC4/CapSense.c ****     *              CapSense_RESOLUTION_7_BITS
 820:Generated_Source\PSoC4/CapSense.c ****     *              CapSense_RESOLUTION_8_BITS
 821:Generated_Source\PSoC4/CapSense.c ****     *              CapSense_RESOLUTION_9_BITS
 822:Generated_Source\PSoC4/CapSense.c ****     *              CapSense_RESOLUTION_10_BITS
 823:Generated_Source\PSoC4/CapSense.c ****     *              CapSense_RESOLUTION_11_BITS
 824:Generated_Source\PSoC4/CapSense.c ****     *              CapSense_RESOLUTION_12_BITS
 825:Generated_Source\PSoC4/CapSense.c ****     *              CapSense_RESOLUTION_13_BITS
 826:Generated_Source\PSoC4/CapSense.c ****     *              CapSense_RESOLUTION_14_BITS
 827:Generated_Source\PSoC4/CapSense.c ****     *              CapSense_RESOLUTION_15_BITS
 828:Generated_Source\PSoC4/CapSense.c ****     *              CapSense_RESOLUTION_16_BITS
 829:Generated_Source\PSoC4/CapSense.c ****     *
 830:Generated_Source\PSoC4/CapSense.c ****     * Return:
 831:Generated_Source\PSoC4/CapSense.c ****     *  None
 832:Generated_Source\PSoC4/CapSense.c ****     *
 833:Generated_Source\PSoC4/CapSense.c ****     * Global Variables:
 834:Generated_Source\PSoC4/CapSense.c ****     *  CapSense_widgetResolution[] - used to store scan resolution of each widget.
 835:Generated_Source\PSoC4/CapSense.c ****     *
 836:Generated_Source\PSoC4/CapSense.c ****     * Side Effects:
 837:Generated_Source\PSoC4/CapSense.c ****     *  None
 838:Generated_Source\PSoC4/CapSense.c ****     *
 839:Generated_Source\PSoC4/CapSense.c ****     *******************************************************************************/
 840:Generated_Source\PSoC4/CapSense.c ****     void CapSense_SetScanResolution(uint32 widget, uint32 resolution)
 841:Generated_Source\PSoC4/CapSense.c ****     {
 334              		.loc 1 841 0
 335              		.cfi_startproc
 336              		@ args = 0, pretend = 0, frame = 0
 337              		@ frame_needed = 0, uses_anonymous_args = 0
 338              		@ link register save eliminated.
 339              	.LVL30:
 842:Generated_Source\PSoC4/CapSense.c ****         CapSense_widgetResolution[widget] = resolution;
 340              		.loc 1 842 0
 341 0000 8000     		lsls	r0, r0, #2
 342              	.LVL31:
 343 0002 014B     		ldr	r3, .L20
 344 0004 C150     		str	r1, [r0, r3]
 843:Generated_Source\PSoC4/CapSense.c ****     }
 345              		.loc 1 843 0
 346              		@ sp needed
 347 0006 7047     		bx	lr
 348              	.L21:
 349              		.align	2
 350              	.L20:
 351 0008 00000000 		.word	.LANCHOR1
 352              		.cfi_endproc
 353              	.LFE44:
 354              		.size	CapSense_SetScanResolution, .-CapSense_SetScanResolution
ARM GAS  C:\Users\SHOZO\AppData\Local\Temp\ccvk6Xs5.s 			page 22


 355              		.section	.text.CapSense_GetScanResolution,"ax",%progbits
 356              		.align	2
 357              		.global	CapSense_GetScanResolution
 358              		.code	16
 359              		.thumb_func
 360              		.type	CapSense_GetScanResolution, %function
 361              	CapSense_GetScanResolution:
 362              	.LFB45:
 844:Generated_Source\PSoC4/CapSense.c **** #endif /* (CapSense_TUNING_METHOD != CapSense__TUNING_NONE) */
 845:Generated_Source\PSoC4/CapSense.c **** 
 846:Generated_Source\PSoC4/CapSense.c **** 
 847:Generated_Source\PSoC4/CapSense.c **** /*******************************************************************************
 848:Generated_Source\PSoC4/CapSense.c **** * Function Name: CapSense_GetScanResolution
 849:Generated_Source\PSoC4/CapSense.c **** ********************************************************************************
 850:Generated_Source\PSoC4/CapSense.c **** *
 851:Generated_Source\PSoC4/CapSense.c **** * Summary:
 852:Generated_Source\PSoC4/CapSense.c **** *  Returns the resolution value for the appropriate sensor.
 853:Generated_Source\PSoC4/CapSense.c **** *  This function is not available for tuning mode "None".
 854:Generated_Source\PSoC4/CapSense.c **** *
 855:Generated_Source\PSoC4/CapSense.c **** * Parameters:
 856:Generated_Source\PSoC4/CapSense.c **** *  widget:     Widget index.
 857:Generated_Source\PSoC4/CapSense.c **** *
 858:Generated_Source\PSoC4/CapSense.c **** * Return:
 859:Generated_Source\PSoC4/CapSense.c **** *  resolution: Returns the resolution value for the appropriate sensor.
 860:Generated_Source\PSoC4/CapSense.c **** *              The resolution values are defined in the CapSense.h file
 861:Generated_Source\PSoC4/CapSense.c **** *              The defines are encountered below:
 862:Generated_Source\PSoC4/CapSense.c **** *              CapSense_RESOLUTION_6_BITS
 863:Generated_Source\PSoC4/CapSense.c **** *              CapSense_RESOLUTION_7_BITS
 864:Generated_Source\PSoC4/CapSense.c **** *              CapSense_RESOLUTION_8_BITS
 865:Generated_Source\PSoC4/CapSense.c **** *              CapSense_RESOLUTION_9_BITS
 866:Generated_Source\PSoC4/CapSense.c **** *              CapSense_RESOLUTION_10_BITS
 867:Generated_Source\PSoC4/CapSense.c **** *              CapSense_RESOLUTION_11_BITS
 868:Generated_Source\PSoC4/CapSense.c **** *              CapSense_RESOLUTION_12_BITS
 869:Generated_Source\PSoC4/CapSense.c **** *              CapSense_RESOLUTION_13_BITS
 870:Generated_Source\PSoC4/CapSense.c **** *              CapSense_RESOLUTION_14_BITS
 871:Generated_Source\PSoC4/CapSense.c **** *              CapSense_RESOLUTION_15_BITS
 872:Generated_Source\PSoC4/CapSense.c **** *              CapSense_RESOLUTION_16_BITS
 873:Generated_Source\PSoC4/CapSense.c **** *
 874:Generated_Source\PSoC4/CapSense.c **** * Global Variables:
 875:Generated_Source\PSoC4/CapSense.c **** *  CapSense_widgetResolution[] - used to store scan resolution of every widget.
 876:Generated_Source\PSoC4/CapSense.c **** *
 877:Generated_Source\PSoC4/CapSense.c **** * Side Effects:
 878:Generated_Source\PSoC4/CapSense.c **** *  None
 879:Generated_Source\PSoC4/CapSense.c **** *
 880:Generated_Source\PSoC4/CapSense.c **** *******************************************************************************/
 881:Generated_Source\PSoC4/CapSense.c **** uint32 CapSense_GetScanResolution(uint32 widget)
 882:Generated_Source\PSoC4/CapSense.c **** {
 363              		.loc 1 882 0
 364              		.cfi_startproc
 365              		@ args = 0, pretend = 0, frame = 0
 366              		@ frame_needed = 0, uses_anonymous_args = 0
 367              		@ link register save eliminated.
 368              	.LVL32:
 883:Generated_Source\PSoC4/CapSense.c ****     return(CapSense_widgetResolution[widget]);
 369              		.loc 1 883 0
 370 0000 8000     		lsls	r0, r0, #2
 371              	.LVL33:
ARM GAS  C:\Users\SHOZO\AppData\Local\Temp\ccvk6Xs5.s 			page 23


 372 0002 014B     		ldr	r3, .L23
 373 0004 C058     		ldr	r0, [r0, r3]
 884:Generated_Source\PSoC4/CapSense.c **** }
 374              		.loc 1 884 0
 375              		@ sp needed
 376 0006 7047     		bx	lr
 377              	.L24:
 378              		.align	2
 379              	.L23:
 380 0008 00000000 		.word	.LANCHOR1
 381              		.cfi_endproc
 382              	.LFE45:
 383              		.size	CapSense_GetScanResolution, .-CapSense_GetScanResolution
 384              		.section	.text.CapSense_EnableSensor,"ax",%progbits
 385              		.align	2
 386              		.global	CapSense_EnableSensor
 387              		.code	16
 388              		.thumb_func
 389              		.type	CapSense_EnableSensor, %function
 390              	CapSense_EnableSensor:
 391              	.LFB47:
 885:Generated_Source\PSoC4/CapSense.c **** 
 886:Generated_Source\PSoC4/CapSense.c **** 
 887:Generated_Source\PSoC4/CapSense.c **** /*******************************************************************************
 888:Generated_Source\PSoC4/CapSense.c **** * Function Name: CapSense_ClearSensors
 889:Generated_Source\PSoC4/CapSense.c **** ********************************************************************************
 890:Generated_Source\PSoC4/CapSense.c **** *
 891:Generated_Source\PSoC4/CapSense.c **** * Summary:
 892:Generated_Source\PSoC4/CapSense.c **** *  Resets all the sensors to the non-sampling state by sequentially disconnecting
 893:Generated_Source\PSoC4/CapSense.c **** *  all the sensors from Analog MUX Bus and putting them to an inactive state.
 894:Generated_Source\PSoC4/CapSense.c **** *
 895:Generated_Source\PSoC4/CapSense.c **** * Parameters:
 896:Generated_Source\PSoC4/CapSense.c **** *  None
 897:Generated_Source\PSoC4/CapSense.c **** *
 898:Generated_Source\PSoC4/CapSense.c **** * Return:
 899:Generated_Source\PSoC4/CapSense.c **** *  None
 900:Generated_Source\PSoC4/CapSense.c **** *
 901:Generated_Source\PSoC4/CapSense.c **** * Global Variables:
 902:Generated_Source\PSoC4/CapSense.c **** *  None
 903:Generated_Source\PSoC4/CapSense.c **** *
 904:Generated_Source\PSoC4/CapSense.c **** * Side Effects:
 905:Generated_Source\PSoC4/CapSense.c **** *  None
 906:Generated_Source\PSoC4/CapSense.c **** *
 907:Generated_Source\PSoC4/CapSense.c **** *******************************************************************************/
 908:Generated_Source\PSoC4/CapSense.c **** void CapSense_ClearSensors(void)
 909:Generated_Source\PSoC4/CapSense.c **** {
 910:Generated_Source\PSoC4/CapSense.c ****     uint32 snsIndex;
 911:Generated_Source\PSoC4/CapSense.c **** 
 912:Generated_Source\PSoC4/CapSense.c ****     for (snsIndex = 0u; snsIndex < CapSense_TOTAL_SENSOR_COUNT; snsIndex++)
 913:Generated_Source\PSoC4/CapSense.c ****     {
 914:Generated_Source\PSoC4/CapSense.c ****         CapSense_DisableScanSlot(snsIndex);
 915:Generated_Source\PSoC4/CapSense.c ****     }
 916:Generated_Source\PSoC4/CapSense.c **** }
 917:Generated_Source\PSoC4/CapSense.c **** 
 918:Generated_Source\PSoC4/CapSense.c **** 
 919:Generated_Source\PSoC4/CapSense.c **** #if (CapSense_IS_COMPLEX_SCANSLOTS)
 920:Generated_Source\PSoC4/CapSense.c ****     /*******************************************************************************
ARM GAS  C:\Users\SHOZO\AppData\Local\Temp\ccvk6Xs5.s 			page 24


 921:Generated_Source\PSoC4/CapSense.c ****     * Function Name: CapSense_EnableScanSlot
 922:Generated_Source\PSoC4/CapSense.c ****     ********************************************************************************
 923:Generated_Source\PSoC4/CapSense.c ****     *
 924:Generated_Source\PSoC4/CapSense.c ****     * Summary:
 925:Generated_Source\PSoC4/CapSense.c ****     *  Configures the selected slot to measure during the next measurement
 926:Generated_Source\PSoC4/CapSense.c ****     *  cycle. The corresponding pin/pins are set to Analog High-Z mode and
 927:Generated_Source\PSoC4/CapSense.c ****     *  connected to the Analog Mux Bus. This also enables the comparator function.
 928:Generated_Source\PSoC4/CapSense.c ****     *
 929:Generated_Source\PSoC4/CapSense.c ****     * Parameters:
 930:Generated_Source\PSoC4/CapSense.c ****     *  slot:  Slot number.
 931:Generated_Source\PSoC4/CapSense.c ****     *
 932:Generated_Source\PSoC4/CapSense.c ****     * Return:
 933:Generated_Source\PSoC4/CapSense.c ****     *  None
 934:Generated_Source\PSoC4/CapSense.c ****     *
 935:Generated_Source\PSoC4/CapSense.c ****     * Global Constants:
 936:Generated_Source\PSoC4/CapSense.c ****     *  CapSense_portTable[]  - used to store the port number that pin
 937:Generated_Source\PSoC4/CapSense.c ****     *  belongs to for each sensor.
 938:Generated_Source\PSoC4/CapSense.c ****     *  CapSense_maskTable[]  - used to store the pin within the port for
 939:Generated_Source\PSoC4/CapSense.c ****     *  each sensor.
 940:Generated_Source\PSoC4/CapSense.c ****     *  CapSense_indexTable[] - used to store indexes of complex sensors.
 941:Generated_Source\PSoC4/CapSense.c ****     *  The offset and position in this array are stored in a port and mask table for
 942:Generated_Source\PSoC4/CapSense.c ****     *  complex sensors.
 943:Generated_Source\PSoC4/CapSense.c ****     *  Bit 7 (msb) is used to define the sensor type: single or complex.
 944:Generated_Source\PSoC4/CapSense.c ****     *
 945:Generated_Source\PSoC4/CapSense.c ****     * Side Effects:
 946:Generated_Source\PSoC4/CapSense.c ****     *  None
 947:Generated_Source\PSoC4/CapSense.c ****     *
 948:Generated_Source\PSoC4/CapSense.c ****     *******************************************************************************/
 949:Generated_Source\PSoC4/CapSense.c ****     void CapSense_EnableScanSlot(uint32 slot)
 950:Generated_Source\PSoC4/CapSense.c ****     {
 951:Generated_Source\PSoC4/CapSense.c ****         uint8 j;
 952:Generated_Source\PSoC4/CapSense.c ****         uint8 snsNumber;
 953:Generated_Source\PSoC4/CapSense.c ****         const uint8 *index;
 954:Generated_Source\PSoC4/CapSense.c ****         /* Read sensor type: single or complex */
 955:Generated_Source\PSoC4/CapSense.c ****         uint8 snsType = CapSense_portTable[slot];
 956:Generated_Source\PSoC4/CapSense.c **** 
 957:Generated_Source\PSoC4/CapSense.c ****         /* Check if sensor is complex */
 958:Generated_Source\PSoC4/CapSense.c ****         if ((snsType & CapSense_COMPLEX_SS_FLAG) == 0u)
 959:Generated_Source\PSoC4/CapSense.c ****         {
 960:Generated_Source\PSoC4/CapSense.c ****             /* Enable sensor (single) */
 961:Generated_Source\PSoC4/CapSense.c ****             CapSense_EnableSensor(slot);
 962:Generated_Source\PSoC4/CapSense.c ****         }
 963:Generated_Source\PSoC4/CapSense.c ****         else
 964:Generated_Source\PSoC4/CapSense.c ****         {
 965:Generated_Source\PSoC4/CapSense.c ****             /* Enable complex sensor */
 966:Generated_Source\PSoC4/CapSense.c ****             snsType &= ~CapSense_COMPLEX_SS_FLAG;
 967:Generated_Source\PSoC4/CapSense.c ****             index = &CapSense_indexTable[snsType];
 968:Generated_Source\PSoC4/CapSense.c ****             snsNumber = CapSense_maskTable[slot];
 969:Generated_Source\PSoC4/CapSense.c **** 
 970:Generated_Source\PSoC4/CapSense.c ****             for (j = 0u; j < snsNumber; j++)
 971:Generated_Source\PSoC4/CapSense.c ****             {
 972:Generated_Source\PSoC4/CapSense.c ****                 CapSense_EnableSensor(index[j]);
 973:Generated_Source\PSoC4/CapSense.c ****             }
 974:Generated_Source\PSoC4/CapSense.c ****         }
 975:Generated_Source\PSoC4/CapSense.c ****     }
 976:Generated_Source\PSoC4/CapSense.c **** 
 977:Generated_Source\PSoC4/CapSense.c **** 
ARM GAS  C:\Users\SHOZO\AppData\Local\Temp\ccvk6Xs5.s 			page 25


 978:Generated_Source\PSoC4/CapSense.c ****     /*******************************************************************************
 979:Generated_Source\PSoC4/CapSense.c ****     * Function Name: CapSense_DisableScanSlot
 980:Generated_Source\PSoC4/CapSense.c ****     ********************************************************************************
 981:Generated_Source\PSoC4/CapSense.c ****     *
 982:Generated_Source\PSoC4/CapSense.c ****     * Summary:
 983:Generated_Source\PSoC4/CapSense.c ****     *  Disables the selected slot. The corresponding pin/pins is/are disconnected
 984:Generated_Source\PSoC4/CapSense.c ****     *  from the Analog Mux Bus and connected to GND, High_Z or Shield electrode.
 985:Generated_Source\PSoC4/CapSense.c ****     *
 986:Generated_Source\PSoC4/CapSense.c ****     * Parameters:
 987:Generated_Source\PSoC4/CapSense.c ****     *  slot:  Slot number.
 988:Generated_Source\PSoC4/CapSense.c ****     *
 989:Generated_Source\PSoC4/CapSense.c ****     * Return:
 990:Generated_Source\PSoC4/CapSense.c ****     *  None
 991:Generated_Source\PSoC4/CapSense.c ****     *
 992:Generated_Source\PSoC4/CapSense.c ****     * Global Variables:
 993:Generated_Source\PSoC4/CapSense.c ****     *  CapSense_portTable[]  - used to store the port number that pin
 994:Generated_Source\PSoC4/CapSense.c ****     *  belongs to for each sensor.
 995:Generated_Source\PSoC4/CapSense.c ****     *  CapSense_maskTable[]  - used to store the pin within the port for
 996:Generated_Source\PSoC4/CapSense.c ****     *  each sensor.
 997:Generated_Source\PSoC4/CapSense.c ****     *  CapSense_indexTable[] - used to store indexes of complex sensors.
 998:Generated_Source\PSoC4/CapSense.c ****     *  The offset and position in this array are stored in a port and mask table for
 999:Generated_Source\PSoC4/CapSense.c ****     *  complex sensors.
1000:Generated_Source\PSoC4/CapSense.c ****     *  7bit(msb) is used to define the sensor type: single or complex.
1001:Generated_Source\PSoC4/CapSense.c ****     *
1002:Generated_Source\PSoC4/CapSense.c ****     * Side Effects:
1003:Generated_Source\PSoC4/CapSense.c ****     *  None
1004:Generated_Source\PSoC4/CapSense.c ****     *
1005:Generated_Source\PSoC4/CapSense.c ****     *******************************************************************************/
1006:Generated_Source\PSoC4/CapSense.c ****     void CapSense_DisableScanSlot(uint32 slot)
1007:Generated_Source\PSoC4/CapSense.c ****     {
1008:Generated_Source\PSoC4/CapSense.c ****         uint8 j;
1009:Generated_Source\PSoC4/CapSense.c ****         uint8 snsNumber;
1010:Generated_Source\PSoC4/CapSense.c ****         const uint8 *index;
1011:Generated_Source\PSoC4/CapSense.c **** 
1012:Generated_Source\PSoC4/CapSense.c ****         /* Read sensor type: single or complex */
1013:Generated_Source\PSoC4/CapSense.c ****         uint8 snsType = CapSense_portTable[slot];
1014:Generated_Source\PSoC4/CapSense.c **** 
1015:Generated_Source\PSoC4/CapSense.c ****         /* Check if sensor is complex */
1016:Generated_Source\PSoC4/CapSense.c ****         if ((snsType & CapSense_COMPLEX_SS_FLAG) == 0u)
1017:Generated_Source\PSoC4/CapSense.c ****         {
1018:Generated_Source\PSoC4/CapSense.c ****             /* Disable sensor (single) */
1019:Generated_Source\PSoC4/CapSense.c ****             CapSense_DisableSensor(slot);
1020:Generated_Source\PSoC4/CapSense.c ****         }
1021:Generated_Source\PSoC4/CapSense.c ****         else
1022:Generated_Source\PSoC4/CapSense.c ****         {
1023:Generated_Source\PSoC4/CapSense.c ****             /* Disable complex sensor */
1024:Generated_Source\PSoC4/CapSense.c ****             snsType &= ~CapSense_COMPLEX_SS_FLAG;
1025:Generated_Source\PSoC4/CapSense.c ****             index = &CapSense_indexTable[snsType];
1026:Generated_Source\PSoC4/CapSense.c ****             snsNumber = CapSense_maskTable[slot];
1027:Generated_Source\PSoC4/CapSense.c **** 
1028:Generated_Source\PSoC4/CapSense.c ****             for (j=0; j < snsNumber; j++)
1029:Generated_Source\PSoC4/CapSense.c ****             {
1030:Generated_Source\PSoC4/CapSense.c ****                 CapSense_DisableSensor(index[j]);
1031:Generated_Source\PSoC4/CapSense.c ****             }
1032:Generated_Source\PSoC4/CapSense.c ****         }
1033:Generated_Source\PSoC4/CapSense.c ****     }
1034:Generated_Source\PSoC4/CapSense.c **** #endif  /* CapSense_IS_COMPLEX_SCANSLOTS */
ARM GAS  C:\Users\SHOZO\AppData\Local\Temp\ccvk6Xs5.s 			page 26


1035:Generated_Source\PSoC4/CapSense.c **** 
1036:Generated_Source\PSoC4/CapSense.c **** 
1037:Generated_Source\PSoC4/CapSense.c **** /*******************************************************************************
1038:Generated_Source\PSoC4/CapSense.c **** * Function Name: CapSense_EnableSensor
1039:Generated_Source\PSoC4/CapSense.c **** ********************************************************************************
1040:Generated_Source\PSoC4/CapSense.c **** *
1041:Generated_Source\PSoC4/CapSense.c **** * Summary:
1042:Generated_Source\PSoC4/CapSense.c **** *  Configures the selected sensor to measure during the next measurement cycle.
1043:Generated_Source\PSoC4/CapSense.c **** *  The corresponding pins are set to Analog High-Z mode and connected to the
1044:Generated_Source\PSoC4/CapSense.c **** *  Analog Mux Bus. This also enables the comparator function.
1045:Generated_Source\PSoC4/CapSense.c **** *
1046:Generated_Source\PSoC4/CapSense.c **** * Parameters:
1047:Generated_Source\PSoC4/CapSense.c **** *  sensor:  Sensor number.
1048:Generated_Source\PSoC4/CapSense.c **** *
1049:Generated_Source\PSoC4/CapSense.c **** * Return:
1050:Generated_Source\PSoC4/CapSense.c **** *  None
1051:Generated_Source\PSoC4/CapSense.c **** *
1052:Generated_Source\PSoC4/CapSense.c **** * Global Variables:
1053:Generated_Source\PSoC4/CapSense.c **** *  CapSense_portTable[] - used to store the port number that pin
1054:Generated_Source\PSoC4/CapSense.c **** *  belongs to for each sensor.
1055:Generated_Source\PSoC4/CapSense.c **** *  CapSense_pinShiftTbl[] - used to store position of pin that
1056:Generated_Source\PSoC4/CapSense.c **** *  configured as sensor in port.
1057:Generated_Source\PSoC4/CapSense.c **** *  CapSense_prtSelTbl[] - Contains pointers to the HSIOM
1058:Generated_Source\PSoC4/CapSense.c **** *  registers for each port.
1059:Generated_Source\PSoC4/CapSense.c **** *  CapSense_PrtCfgTb[] - Contains pointers to the port config
1060:Generated_Source\PSoC4/CapSense.c **** *  registers for each port.
1061:Generated_Source\PSoC4/CapSense.c **** *
1062:Generated_Source\PSoC4/CapSense.c **** * Side Effects:
1063:Generated_Source\PSoC4/CapSense.c **** *  None
1064:Generated_Source\PSoC4/CapSense.c **** *
1065:Generated_Source\PSoC4/CapSense.c **** *******************************************************************************/
1066:Generated_Source\PSoC4/CapSense.c **** void CapSense_EnableSensor(uint32 sensor)
1067:Generated_Source\PSoC4/CapSense.c **** {
 392              		.loc 1 1067 0
 393              		.cfi_startproc
 394              		@ args = 0, pretend = 0, frame = 0
 395              		@ frame_needed = 0, uses_anonymous_args = 0
 396              	.LVL34:
 397 0000 F8B5     		push	{r3, r4, r5, r6, r7, lr}
 398              		.cfi_def_cfa_offset 24
 399              		.cfi_offset 3, -24
 400              		.cfi_offset 4, -20
 401              		.cfi_offset 5, -16
 402              		.cfi_offset 6, -12
 403              		.cfi_offset 7, -8
 404              		.cfi_offset 14, -4
1068:Generated_Source\PSoC4/CapSense.c ****     uint8  pinModeShift;
1069:Generated_Source\PSoC4/CapSense.c ****     uint8  pinHSIOMShift;
1070:Generated_Source\PSoC4/CapSense.c ****     uint8 interruptState;
1071:Generated_Source\PSoC4/CapSense.c ****     uint32 newRegisterValue;
1072:Generated_Source\PSoC4/CapSense.c ****     uint32 port;
1073:Generated_Source\PSoC4/CapSense.c **** 
1074:Generated_Source\PSoC4/CapSense.c ****     port = (uint32) CapSense_portTable[sensor];
 405              		.loc 1 1074 0
 406 0002 104F     		ldr	r7, .L26
 407 0004 3E5C     		ldrb	r6, [r7, r0]
 408              	.LVL35:
ARM GAS  C:\Users\SHOZO\AppData\Local\Temp\ccvk6Xs5.s 			page 27


1075:Generated_Source\PSoC4/CapSense.c ****     pinModeShift = CapSense_pinShiftTbl[sensor]  * CapSense_PC_PIN_CFG_SIZE;
 409              		.loc 1 1075 0
 410 0006 3818     		adds	r0, r7, r0
 411              	.LVL36:
 412 0008 037B     		ldrb	r3, [r0, #12]
 413 000a 5D00     		lsls	r5, r3, #1
 414 000c 5D19     		adds	r5, r3, r5
 415 000e EDB2     		uxtb	r5, r5
 416              	.LVL37:
1076:Generated_Source\PSoC4/CapSense.c ****     pinHSIOMShift = CapSense_pinShiftTbl[sensor] * CapSense_HSIOM_PIN_CFG_SIZE;
 417              		.loc 1 1076 0
 418 0010 9B00     		lsls	r3, r3, #2
 419 0012 DCB2     		uxtb	r4, r3
 420              	.LVL38:
1077:Generated_Source\PSoC4/CapSense.c **** 
1078:Generated_Source\PSoC4/CapSense.c ****     interruptState = CyEnterCriticalSection();
 421              		.loc 1 1078 0
 422 0014 FFF7FEFF 		bl	CyEnterCriticalSection
 423              	.LVL39:
1079:Generated_Source\PSoC4/CapSense.c **** 
1080:Generated_Source\PSoC4/CapSense.c ****     newRegisterValue = *CapSense_prtSelTbl[port];
 424              		.loc 1 1080 0
 425 0018 B300     		lsls	r3, r6, #2
 426 001a FB18     		adds	r3, r7, r3
 427 001c 9E69     		ldr	r6, [r3, #24]
 428              	.LVL40:
 429 001e 3268     		ldr	r2, [r6]
 430              	.LVL41:
1081:Generated_Source\PSoC4/CapSense.c ****     newRegisterValue &= ~(CapSense_CSD_HSIOM_MASK << pinHSIOMShift);
 431              		.loc 1 1081 0
 432 0020 0F21     		movs	r1, #15
 433 0022 A140     		lsls	r1, r1, r4
 434 0024 8A43     		bics	r2, r1
 435              	.LVL42:
 436 0026 1100     		movs	r1, r2
 437              	.LVL43:
1082:Generated_Source\PSoC4/CapSense.c ****     newRegisterValue |= (uint32)((uint32)CapSense_CSD_SENSE_PORT_MODE << pinHSIOMShift);
 438              		.loc 1 1082 0
 439 0028 0422     		movs	r2, #4
 440 002a A240     		lsls	r2, r2, r4
 441 002c 0A43     		orrs	r2, r1
 442              	.LVL44:
1083:Generated_Source\PSoC4/CapSense.c **** 
1084:Generated_Source\PSoC4/CapSense.c ****     *CapSense_prtCfgTbl[port] &= (uint32)~((uint32)CapSense_CSD_PIN_MODE_MASK << pinModeShift);
 443              		.loc 1 1084 0
 444 002e DC6A     		ldr	r4, [r3, #44]
 445              	.LVL45:
 446 0030 2368     		ldr	r3, [r4]
 447 0032 0721     		movs	r1, #7
 448 0034 A940     		lsls	r1, r1, r5
 449 0036 8B43     		bics	r3, r1
 450 0038 2360     		str	r3, [r4]
1085:Generated_Source\PSoC4/CapSense.c ****     *CapSense_prtSelTbl[port] = newRegisterValue;
 451              		.loc 1 1085 0
 452 003a 3260     		str	r2, [r6]
1086:Generated_Source\PSoC4/CapSense.c **** 
1087:Generated_Source\PSoC4/CapSense.c ****     CyExitCriticalSection(interruptState);
ARM GAS  C:\Users\SHOZO\AppData\Local\Temp\ccvk6Xs5.s 			page 28


 453              		.loc 1 1087 0
 454 003c FFF7FEFF 		bl	CyExitCriticalSection
 455              	.LVL46:
1088:Generated_Source\PSoC4/CapSense.c **** }
 456              		.loc 1 1088 0
 457              		@ sp needed
 458              	.LVL47:
 459              	.LVL48:
 460 0040 F8BD     		pop	{r3, r4, r5, r6, r7, pc}
 461              	.L27:
 462 0042 C046     		.align	2
 463              	.L26:
 464 0044 00000000 		.word	.LANCHOR2
 465              		.cfi_endproc
 466              	.LFE47:
 467              		.size	CapSense_EnableSensor, .-CapSense_EnableSensor
 468              		.section	.text.CapSense_DisableSensor,"ax",%progbits
 469              		.align	2
 470              		.global	CapSense_DisableSensor
 471              		.code	16
 472              		.thumb_func
 473              		.type	CapSense_DisableSensor, %function
 474              	CapSense_DisableSensor:
 475              	.LFB48:
1089:Generated_Source\PSoC4/CapSense.c **** 
1090:Generated_Source\PSoC4/CapSense.c **** 
1091:Generated_Source\PSoC4/CapSense.c **** /*******************************************************************************
1092:Generated_Source\PSoC4/CapSense.c **** * Function Name: CapSense_DisableSensor
1093:Generated_Source\PSoC4/CapSense.c **** ********************************************************************************
1094:Generated_Source\PSoC4/CapSense.c **** *
1095:Generated_Source\PSoC4/CapSense.c **** * Summary:
1096:Generated_Source\PSoC4/CapSense.c **** *  Disables the selected sensor. The corresponding pin is disconnected from the
1097:Generated_Source\PSoC4/CapSense.c **** *  Analog Mux Bus and connected to GND, High_Z or Shield electrode.
1098:Generated_Source\PSoC4/CapSense.c **** *
1099:Generated_Source\PSoC4/CapSense.c **** * Parameters:
1100:Generated_Source\PSoC4/CapSense.c **** *  sensor:  Sensor number
1101:Generated_Source\PSoC4/CapSense.c **** *
1102:Generated_Source\PSoC4/CapSense.c **** * Return:
1103:Generated_Source\PSoC4/CapSense.c **** *  None
1104:Generated_Source\PSoC4/CapSense.c **** *
1105:Generated_Source\PSoC4/CapSense.c **** * Global Variables:
1106:Generated_Source\PSoC4/CapSense.c **** *  CapSense_portTable[] - used to store the port number that pin
1107:Generated_Source\PSoC4/CapSense.c **** *  belongs to for each sensor.
1108:Generated_Source\PSoC4/CapSense.c **** *  CapSense_pinShiftTbl[] - used to store position of pin that
1109:Generated_Source\PSoC4/CapSense.c **** *  configured as a sensor in the port.
1110:Generated_Source\PSoC4/CapSense.c **** *  CapSense_prtSelTbl[] - Contains pointers to the HSIOM
1111:Generated_Source\PSoC4/CapSense.c **** *  registers for each port.
1112:Generated_Source\PSoC4/CapSense.c **** *  CapSense_PrtCfgTb[] - Contains pointers to the port config
1113:Generated_Source\PSoC4/CapSense.c **** *  registers for each port.
1114:Generated_Source\PSoC4/CapSense.c **** *
1115:Generated_Source\PSoC4/CapSense.c **** * Side Effects:
1116:Generated_Source\PSoC4/CapSense.c **** *  None
1117:Generated_Source\PSoC4/CapSense.c **** *
1118:Generated_Source\PSoC4/CapSense.c **** *******************************************************************************/
1119:Generated_Source\PSoC4/CapSense.c **** void CapSense_DisableSensor(uint32 sensor)
1120:Generated_Source\PSoC4/CapSense.c **** {
 476              		.loc 1 1120 0
ARM GAS  C:\Users\SHOZO\AppData\Local\Temp\ccvk6Xs5.s 			page 29


 477              		.cfi_startproc
 478              		@ args = 0, pretend = 0, frame = 0
 479              		@ frame_needed = 0, uses_anonymous_args = 0
 480              	.LVL49:
 481 0000 F8B5     		push	{r3, r4, r5, r6, r7, lr}
 482              		.cfi_def_cfa_offset 24
 483              		.cfi_offset 3, -24
 484              		.cfi_offset 4, -20
 485              		.cfi_offset 5, -16
 486              		.cfi_offset 6, -12
 487              		.cfi_offset 7, -8
 488              		.cfi_offset 14, -4
1121:Generated_Source\PSoC4/CapSense.c ****     uint8 interruptState;
1122:Generated_Source\PSoC4/CapSense.c ****     uint32 newRegisterValue;
1123:Generated_Source\PSoC4/CapSense.c **** 
1124:Generated_Source\PSoC4/CapSense.c ****     uint32 port = (uint32) CapSense_portTable[sensor];
 489              		.loc 1 1124 0
 490 0002 194A     		ldr	r2, .L33
 491 0004 145C     		ldrb	r4, [r2, r0]
 492              	.LVL50:
1125:Generated_Source\PSoC4/CapSense.c ****     uint8  pinHSIOMShift = CapSense_pinShiftTbl[sensor] * CapSense_HSIOM_PIN_CFG_SIZE;
 493              		.loc 1 1125 0
 494 0006 1318     		adds	r3, r2, r0
 495 0008 1F7B     		ldrb	r7, [r3, #12]
 496 000a B900     		lsls	r1, r7, #2
 497 000c C9B2     		uxtb	r1, r1
 498              	.LVL51:
1126:Generated_Source\PSoC4/CapSense.c ****     uint8  pinModeShift = CapSense_pinShiftTbl[sensor]  * CapSense_PC_PIN_CFG_SIZE;
 499              		.loc 1 1126 0
 500 000e 7D00     		lsls	r5, r7, #1
 501 0010 7D19     		adds	r5, r7, r5
 502 0012 EDB2     		uxtb	r5, r5
 503              	.LVL52:
1127:Generated_Source\PSoC4/CapSense.c **** 
1128:Generated_Source\PSoC4/CapSense.c ****     uint32 inactiveConnect = CapSense_SNS_HIZANALOG_CONNECT;
1129:Generated_Source\PSoC4/CapSense.c ****     uint32 sensorState = CapSense_unscannedSnsDriveMode[sensor];
 504              		.loc 1 1129 0
 505 0014 154B     		ldr	r3, .L33+4
 506 0016 185C     		ldrb	r0, [r3, r0]
 507              	.LVL53:
1130:Generated_Source\PSoC4/CapSense.c **** 
1131:Generated_Source\PSoC4/CapSense.c ****     *CapSense_prtSelTbl[port] &= ~(CapSense_CSD_HSIOM_MASK << pinHSIOMShift);
 508              		.loc 1 1131 0
 509 0018 A300     		lsls	r3, r4, #2
 510 001a D318     		adds	r3, r2, r3
 511 001c 9E69     		ldr	r6, [r3, #24]
 512 001e 3368     		ldr	r3, [r6]
 513 0020 0F22     		movs	r2, #15
 514 0022 8A40     		lsls	r2, r2, r1
 515 0024 9343     		bics	r3, r2
 516 0026 3360     		str	r3, [r6]
1132:Generated_Source\PSoC4/CapSense.c **** 
1133:Generated_Source\PSoC4/CapSense.c ****     #if(CapSense_IS_SHIELD_ENABLE != 0)
1134:Generated_Source\PSoC4/CapSense.c ****     if(sensorState != (uint32)CapSense__SHIELD)
1135:Generated_Source\PSoC4/CapSense.c ****     {
1136:Generated_Source\PSoC4/CapSense.c ****     #else
1137:Generated_Source\PSoC4/CapSense.c ****         /* Connected to Ground if shield is disabled */
ARM GAS  C:\Users\SHOZO\AppData\Local\Temp\ccvk6Xs5.s 			page 30


1138:Generated_Source\PSoC4/CapSense.c ****         if(sensorState == (uint32)CapSense__SHIELD)
 517              		.loc 1 1138 0
 518 0028 0228     		cmp	r0, #2
 519 002a 00D1     		bne	.L29
1139:Generated_Source\PSoC4/CapSense.c ****         {
1140:Generated_Source\PSoC4/CapSense.c ****             sensorState = (uint32)CapSense__GROUND;
 520              		.loc 1 1140 0
 521 002c 0020     		movs	r0, #0
 522              	.LVL54:
 523              	.L29:
1141:Generated_Source\PSoC4/CapSense.c ****         }
1142:Generated_Source\PSoC4/CapSense.c ****     #endif /* (CapSense_IS_SHIELD_ENABLE) */
1143:Generated_Source\PSoC4/CapSense.c ****         if(sensorState != (uint32)CapSense__HIZ_ANALOG)
 524              		.loc 1 1143 0
 525 002e 0128     		cmp	r0, #1
 526 0030 01D1     		bne	.L32
1128:Generated_Source\PSoC4/CapSense.c ****     uint32 sensorState = CapSense_unscannedSnsDriveMode[sensor];
 527              		.loc 1 1128 0
 528 0032 0026     		movs	r6, #0
 529 0034 00E0     		b	.L30
 530              	.L32:
1144:Generated_Source\PSoC4/CapSense.c ****         {
1145:Generated_Source\PSoC4/CapSense.c ****             /* Connected to Ground */
1146:Generated_Source\PSoC4/CapSense.c ****             inactiveConnect = (uint32)CapSense_SNS_GROUND_CONNECT;
 531              		.loc 1 1146 0
 532 0036 0626     		movs	r6, #6
 533              	.L30:
 534              	.LVL55:
1147:Generated_Source\PSoC4/CapSense.c ****         }
1148:Generated_Source\PSoC4/CapSense.c **** 
1149:Generated_Source\PSoC4/CapSense.c ****         interruptState = CyEnterCriticalSection();
 535              		.loc 1 1149 0
 536 0038 FFF7FEFF 		bl	CyEnterCriticalSection
 537              	.LVL56:
1150:Generated_Source\PSoC4/CapSense.c **** 
1151:Generated_Source\PSoC4/CapSense.c ****         /* Set drive mode */
1152:Generated_Source\PSoC4/CapSense.c ****         newRegisterValue = *CapSense_prtCfgTbl[port];
 538              		.loc 1 1152 0
 539 003c A400     		lsls	r4, r4, #2
 540              	.LVL57:
 541 003e 0A4B     		ldr	r3, .L33
 542              	.LVL58:
 543 0040 1C19     		adds	r4, r3, r4
 544 0042 E16A     		ldr	r1, [r4, #44]
 545 0044 0B68     		ldr	r3, [r1]
 546              	.LVL59:
1153:Generated_Source\PSoC4/CapSense.c ****         newRegisterValue &= ~(CapSense_CSD_PIN_MODE_MASK << pinModeShift);
 547              		.loc 1 1153 0
 548 0046 0722     		movs	r2, #7
 549 0048 AA40     		lsls	r2, r2, r5
 550 004a 9343     		bics	r3, r2
 551              	.LVL60:
 552 004c 1A00     		movs	r2, r3
 553              	.LVL61:
1154:Generated_Source\PSoC4/CapSense.c ****         newRegisterValue |=  (uint32)(inactiveConnect << pinModeShift);
 554              		.loc 1 1154 0
 555 004e 3300     		movs	r3, r6
ARM GAS  C:\Users\SHOZO\AppData\Local\Temp\ccvk6Xs5.s 			page 31


 556 0050 AB40     		lsls	r3, r3, r5
 557 0052 1343     		orrs	r3, r2
 558              	.LVL62:
1155:Generated_Source\PSoC4/CapSense.c ****         *CapSense_prtCfgTbl[port] =  newRegisterValue;
 559              		.loc 1 1155 0
 560 0054 0B60     		str	r3, [r1]
1156:Generated_Source\PSoC4/CapSense.c **** 
1157:Generated_Source\PSoC4/CapSense.c ****         CyExitCriticalSection(interruptState);
 561              		.loc 1 1157 0
 562 0056 FFF7FEFF 		bl	CyExitCriticalSection
 563              	.LVL63:
1158:Generated_Source\PSoC4/CapSense.c **** 
1159:Generated_Source\PSoC4/CapSense.c ****         *CapSense_prtDRTbl[port]  &=  (uint32)~(uint32)((uint32)1u << CapSense_pinShiftTbl[sensor])
 564              		.loc 1 1159 0
 565 005a 216C     		ldr	r1, [r4, #64]
 566 005c 0B68     		ldr	r3, [r1]
 567 005e 0122     		movs	r2, #1
 568 0060 BA40     		lsls	r2, r2, r7
 569 0062 9343     		bics	r3, r2
 570 0064 0B60     		str	r3, [r1]
1160:Generated_Source\PSoC4/CapSense.c ****     #if(CapSense_IS_SHIELD_ENABLE != 0)
1161:Generated_Source\PSoC4/CapSense.c ****     }
1162:Generated_Source\PSoC4/CapSense.c ****     else
1163:Generated_Source\PSoC4/CapSense.c ****     {
1164:Generated_Source\PSoC4/CapSense.c ****         /* Connect to Shield */
1165:Generated_Source\PSoC4/CapSense.c ****         *CapSense_prtSelTbl[port] |= (CapSense_CSD_SHIELD_PORT_MODE << pinHSIOMShift);
1166:Generated_Source\PSoC4/CapSense.c ****     }
1167:Generated_Source\PSoC4/CapSense.c ****     #endif /* (CapSense_IS_SHIELD_ENABLE) */
1168:Generated_Source\PSoC4/CapSense.c **** }
 571              		.loc 1 1168 0
 572              		@ sp needed
 573              	.LVL64:
 574              	.LVL65:
 575              	.LVL66:
 576 0066 F8BD     		pop	{r3, r4, r5, r6, r7, pc}
 577              	.L34:
 578              		.align	2
 579              	.L33:
 580 0068 00000000 		.word	.LANCHOR2
 581 006c 00000000 		.word	CapSense_unscannedSnsDriveMode
 582              		.cfi_endproc
 583              	.LFE48:
 584              		.size	CapSense_DisableSensor, .-CapSense_DisableSensor
 585              		.section	.text.CapSense_ClearSensors,"ax",%progbits
 586              		.align	2
 587              		.global	CapSense_ClearSensors
 588              		.code	16
 589              		.thumb_func
 590              		.type	CapSense_ClearSensors, %function
 591              	CapSense_ClearSensors:
 592              	.LFB46:
 909:Generated_Source\PSoC4/CapSense.c ****     uint32 snsIndex;
 593              		.loc 1 909 0
 594              		.cfi_startproc
 595              		@ args = 0, pretend = 0, frame = 0
 596              		@ frame_needed = 0, uses_anonymous_args = 0
 597 0000 10B5     		push	{r4, lr}
ARM GAS  C:\Users\SHOZO\AppData\Local\Temp\ccvk6Xs5.s 			page 32


 598              		.cfi_def_cfa_offset 8
 599              		.cfi_offset 4, -8
 600              		.cfi_offset 14, -4
 601              	.LVL67:
 912:Generated_Source\PSoC4/CapSense.c ****     {
 602              		.loc 1 912 0
 603 0002 0024     		movs	r4, #0
 604 0004 03E0     		b	.L36
 605              	.LVL68:
 606              	.L37:
 914:Generated_Source\PSoC4/CapSense.c ****     }
 607              		.loc 1 914 0 discriminator 3
 608 0006 2000     		movs	r0, r4
 609 0008 FFF7FEFF 		bl	CapSense_DisableSensor
 610              	.LVL69:
 912:Generated_Source\PSoC4/CapSense.c ****     {
 611              		.loc 1 912 0 discriminator 3
 612 000c 0134     		adds	r4, r4, #1
 613              	.LVL70:
 614              	.L36:
 912:Generated_Source\PSoC4/CapSense.c ****     {
 615              		.loc 1 912 0 is_stmt 0 discriminator 1
 616 000e 0B2C     		cmp	r4, #11
 617 0010 F9D9     		bls	.L37
 916:Generated_Source\PSoC4/CapSense.c **** 
 618              		.loc 1 916 0 is_stmt 1
 619              		@ sp needed
 620              	.LVL71:
 621 0012 10BD     		pop	{r4, pc}
 622              		.cfi_endproc
 623              	.LFE46:
 624              		.size	CapSense_ClearSensors, .-CapSense_ClearSensors
 625              		.section	.text.CapSense_SetPinDriveMode,"ax",%progbits
 626              		.align	2
 627              		.global	CapSense_SetPinDriveMode
 628              		.code	16
 629              		.thumb_func
 630              		.type	CapSense_SetPinDriveMode, %function
 631              	CapSense_SetPinDriveMode:
 632              	.LFB51:
1169:Generated_Source\PSoC4/CapSense.c **** 
1170:Generated_Source\PSoC4/CapSense.c **** 
1171:Generated_Source\PSoC4/CapSense.c **** /*******************************************************************************
1172:Generated_Source\PSoC4/CapSense.c **** * Function Name: CapSense_SetDriveModeAllPins
1173:Generated_Source\PSoC4/CapSense.c **** ********************************************************************************
1174:Generated_Source\PSoC4/CapSense.c **** *
1175:Generated_Source\PSoC4/CapSense.c **** * Summary:
1176:Generated_Source\PSoC4/CapSense.c **** * This API sets the drive mode of port pins used by the CapSense
1177:Generated_Source\PSoC4/CapSense.c **** * component (sensors, guard, shield, shield tank and Cmod) to drive the
1178:Generated_Source\PSoC4/CapSense.c **** * mode specified by the argument.
1179:Generated_Source\PSoC4/CapSense.c **** *
1180:Generated_Source\PSoC4/CapSense.c **** * Parameters:
1181:Generated_Source\PSoC4/CapSense.c **** *  driveMode:  Drive mode definition.
1182:Generated_Source\PSoC4/CapSense.c **** *
1183:Generated_Source\PSoC4/CapSense.c **** * Return:
1184:Generated_Source\PSoC4/CapSense.c **** *  None
1185:Generated_Source\PSoC4/CapSense.c **** *
ARM GAS  C:\Users\SHOZO\AppData\Local\Temp\ccvk6Xs5.s 			page 33


1186:Generated_Source\PSoC4/CapSense.c **** * Global Variables:
1187:Generated_Source\PSoC4/CapSense.c **** *  CapSense_portTable[] - used to store the port number that pin
1188:Generated_Source\PSoC4/CapSense.c **** *  belongs to for each sensor.
1189:Generated_Source\PSoC4/CapSense.c **** *  CapSense_pinShiftTbl[] - used to store position of pin that
1190:Generated_Source\PSoC4/CapSense.c **** *  configured as a sensor in the port.
1191:Generated_Source\PSoC4/CapSense.c **** *
1192:Generated_Source\PSoC4/CapSense.c **** * Side Effects:
1193:Generated_Source\PSoC4/CapSense.c **** *  This API shall be called only after CapSense component is stopped.
1194:Generated_Source\PSoC4/CapSense.c **** *
1195:Generated_Source\PSoC4/CapSense.c **** *******************************************************************************/
1196:Generated_Source\PSoC4/CapSense.c **** void CapSense_SetDriveModeAllPins(uint32 driveMode)
1197:Generated_Source\PSoC4/CapSense.c **** {
1198:Generated_Source\PSoC4/CapSense.c ****     uint8 curSensor;
1199:Generated_Source\PSoC4/CapSense.c ****     #if (CapSense_IS_COMPLEX_SCANSLOTS)
1200:Generated_Source\PSoC4/CapSense.c ****         uint8 snsNumber;
1201:Generated_Source\PSoC4/CapSense.c ****         uint8 snsType;
1202:Generated_Source\PSoC4/CapSense.c ****     #endif  /* CapSense_IS_COMPLEX_SCANSLOTS */
1203:Generated_Source\PSoC4/CapSense.c ****     uint32 prtNumberTmp;
1204:Generated_Source\PSoC4/CapSense.c ****     uint32 pinNumberTmp;
1205:Generated_Source\PSoC4/CapSense.c **** 
1206:Generated_Source\PSoC4/CapSense.c ****     for(curSensor = 0u; curSensor < CapSense_TOTAL_SENSOR_COUNT; curSensor++)
1207:Generated_Source\PSoC4/CapSense.c ****     {
1208:Generated_Source\PSoC4/CapSense.c ****         #if (CapSense_IS_COMPLEX_SCANSLOTS)
1209:Generated_Source\PSoC4/CapSense.c ****             /* Read sensor type: single or complex */
1210:Generated_Source\PSoC4/CapSense.c ****             snsType = CapSense_portTable[curSensor];
1211:Generated_Source\PSoC4/CapSense.c **** 
1212:Generated_Source\PSoC4/CapSense.c ****             /* Check if sensor is complex */
1213:Generated_Source\PSoC4/CapSense.c ****             if ((snsType & CapSense_COMPLEX_SS_FLAG) == 0u)
1214:Generated_Source\PSoC4/CapSense.c ****             {
1215:Generated_Source\PSoC4/CapSense.c ****                 /* The sensor is not complex */
1216:Generated_Source\PSoC4/CapSense.c ****                 snsNumber = curSensor;
1217:Generated_Source\PSoC4/CapSense.c ****             }
1218:Generated_Source\PSoC4/CapSense.c ****             else
1219:Generated_Source\PSoC4/CapSense.c ****             {
1220:Generated_Source\PSoC4/CapSense.c ****                 /* Get dedicated sensor ID of the complex sensor */
1221:Generated_Source\PSoC4/CapSense.c ****                 snsType &= ~CapSense_COMPLEX_SS_FLAG;
1222:Generated_Source\PSoC4/CapSense.c ****                 snsNumber = CapSense_indexTable[snsType];
1223:Generated_Source\PSoC4/CapSense.c ****             }
1224:Generated_Source\PSoC4/CapSense.c **** 
1225:Generated_Source\PSoC4/CapSense.c ****             prtNumberTmp = CapSense_portTable[snsNumber];
1226:Generated_Source\PSoC4/CapSense.c ****             pinNumberTmp = CapSense_pinShiftTbl[snsNumber];
1227:Generated_Source\PSoC4/CapSense.c ****         #else
1228:Generated_Source\PSoC4/CapSense.c ****             prtNumberTmp = CapSense_portTable[curSensor];
1229:Generated_Source\PSoC4/CapSense.c ****             pinNumberTmp = CapSense_pinShiftTbl[curSensor];
1230:Generated_Source\PSoC4/CapSense.c ****         #endif  /* CapSense_IS_COMPLEX_SCANSLOTS */
1231:Generated_Source\PSoC4/CapSense.c **** 
1232:Generated_Source\PSoC4/CapSense.c ****         CapSense_SetPinDriveMode(driveMode, pinNumberTmp, prtNumberTmp);
1233:Generated_Source\PSoC4/CapSense.c ****     }
1234:Generated_Source\PSoC4/CapSense.c **** 
1235:Generated_Source\PSoC4/CapSense.c ****     CapSense_SetPinDriveMode(driveMode, (uint32)CapSense_CMOD_PIN_NUMBER, (uint32)CapSense_CMOD_PRT
1236:Generated_Source\PSoC4/CapSense.c **** 
1237:Generated_Source\PSoC4/CapSense.c ****     #if(0u != CapSense_CSH_TANK_ENABLE)
1238:Generated_Source\PSoC4/CapSense.c ****         CapSense_SetPinDriveMode(driveMode, (uint32)CapSense_CTANK_PIN_NUMBER, (uint32)CapSense_CTA
1239:Generated_Source\PSoC4/CapSense.c ****     #endif /* (0u != CapSense_CSH_TANK_ENABLE) */
1240:Generated_Source\PSoC4/CapSense.c **** 
1241:Generated_Source\PSoC4/CapSense.c ****     #if(0u != CapSense_IS_SHIELD_ENABLE)
1242:Generated_Source\PSoC4/CapSense.c ****         CapSense_SetPinDriveMode(driveMode, (uint32)CapSense_SHIELD_PIN_NUMBER, (uint32)CapSense_SH
ARM GAS  C:\Users\SHOZO\AppData\Local\Temp\ccvk6Xs5.s 			page 34


1243:Generated_Source\PSoC4/CapSense.c ****     #endif /* (0u != CapSense_IS_SHIELD_ENABLE) */
1244:Generated_Source\PSoC4/CapSense.c **** }
1245:Generated_Source\PSoC4/CapSense.c **** 
1246:Generated_Source\PSoC4/CapSense.c **** 
1247:Generated_Source\PSoC4/CapSense.c **** /*******************************************************************************
1248:Generated_Source\PSoC4/CapSense.c **** * Function Name: CapSense_RestoreDriveModeAllPins
1249:Generated_Source\PSoC4/CapSense.c **** ********************************************************************************
1250:Generated_Source\PSoC4/CapSense.c **** *
1251:Generated_Source\PSoC4/CapSense.c **** * Summary:
1252:Generated_Source\PSoC4/CapSense.c **** *  This API restores the drive for all the CapSense port pins to the original
1253:Generated_Source\PSoC4/CapSense.c **** *  state.
1254:Generated_Source\PSoC4/CapSense.c **** *
1255:Generated_Source\PSoC4/CapSense.c **** * Parameters:
1256:Generated_Source\PSoC4/CapSense.c **** *  None
1257:Generated_Source\PSoC4/CapSense.c **** *
1258:Generated_Source\PSoC4/CapSense.c **** * Return:
1259:Generated_Source\PSoC4/CapSense.c **** *  None
1260:Generated_Source\PSoC4/CapSense.c **** *
1261:Generated_Source\PSoC4/CapSense.c **** * Global Variables:
1262:Generated_Source\PSoC4/CapSense.c **** *  CapSense_prtSelTbl[] - Contains pointers to the HSIOM
1263:Generated_Source\PSoC4/CapSense.c **** *  registers for each port.
1264:Generated_Source\PSoC4/CapSense.c **** *
1265:Generated_Source\PSoC4/CapSense.c **** * Side Effects:
1266:Generated_Source\PSoC4/CapSense.c **** *  This API is called only after the CapSense component is stopped.
1267:Generated_Source\PSoC4/CapSense.c **** *
1268:Generated_Source\PSoC4/CapSense.c **** *******************************************************************************/
1269:Generated_Source\PSoC4/CapSense.c **** void CapSense_RestoreDriveModeAllPins(void)
1270:Generated_Source\PSoC4/CapSense.c **** {
1271:Generated_Source\PSoC4/CapSense.c ****     uint32 newRegisterValue;
1272:Generated_Source\PSoC4/CapSense.c **** 
1273:Generated_Source\PSoC4/CapSense.c ****     CapSense_SetDriveModeAllPins(CY_SYS_PINS_DM_ALG_HIZ);
1274:Generated_Source\PSoC4/CapSense.c **** 
1275:Generated_Source\PSoC4/CapSense.c ****     newRegisterValue = CapSense_CMOD_CONNECTION_REG;
1276:Generated_Source\PSoC4/CapSense.c ****     newRegisterValue &= ~(CapSense_CSD_CMOD_CONNECTION_MASK);
1277:Generated_Source\PSoC4/CapSense.c ****     newRegisterValue |= CapSense_CSD_CMOD_TO_AMUXBUS_A;
1278:Generated_Source\PSoC4/CapSense.c ****     CapSense_CMOD_CONNECTION_REG = newRegisterValue;
1279:Generated_Source\PSoC4/CapSense.c **** 
1280:Generated_Source\PSoC4/CapSense.c ****     #if(0u != CapSense_CSH_TANK_ENABLE)
1281:Generated_Source\PSoC4/CapSense.c ****         newRegisterValue = CapSense_CTANK_CONNECTION_REG;
1282:Generated_Source\PSoC4/CapSense.c ****         newRegisterValue &= ~(CapSense_CSD_CTANK_CONNECTION_MASK);
1283:Generated_Source\PSoC4/CapSense.c ****         newRegisterValue |= CapSense_CSD_CTANK_TO_AMUXBUS_B;
1284:Generated_Source\PSoC4/CapSense.c ****         CapSense_CTANK_CONNECTION_REG = newRegisterValue;
1285:Generated_Source\PSoC4/CapSense.c ****     #endif/* (0u != CapSense_CSH_TANK_ENABLE) */
1286:Generated_Source\PSoC4/CapSense.c **** 
1287:Generated_Source\PSoC4/CapSense.c ****     #if(0u != CapSense_IS_SHIELD_ENABLE)
1288:Generated_Source\PSoC4/CapSense.c ****         newRegisterValue = *CapSense_prtSelTbl[CapSense_SHIELD_PORT_NUMBER];
1289:Generated_Source\PSoC4/CapSense.c ****         newRegisterValue &= ~(CapSense_CSD_HSIOM_MASK << ((uint32)CapSense_SHIELD_PIN_NUMBER * CapS
1290:Generated_Source\PSoC4/CapSense.c ****         newRegisterValue |= (CapSense_CSD_SHIELD_PORT_MODE << ((uint32)CapSense_SHIELD_PIN_NUMBER *
1291:Generated_Source\PSoC4/CapSense.c ****         *CapSense_prtSelTbl[CapSense_SHIELD_PORT_NUMBER] = newRegisterValue;
1292:Generated_Source\PSoC4/CapSense.c ****     #endif /* (0u != CapSense_IS_SHIELD_ENABLE) */
1293:Generated_Source\PSoC4/CapSense.c **** }
1294:Generated_Source\PSoC4/CapSense.c **** 
1295:Generated_Source\PSoC4/CapSense.c **** 
1296:Generated_Source\PSoC4/CapSense.c **** /*******************************************************************************
1297:Generated_Source\PSoC4/CapSense.c **** * Function Name: CapSense_SetPinDriveMode
1298:Generated_Source\PSoC4/CapSense.c **** ********************************************************************************
1299:Generated_Source\PSoC4/CapSense.c **** *
ARM GAS  C:\Users\SHOZO\AppData\Local\Temp\ccvk6Xs5.s 			page 35


1300:Generated_Source\PSoC4/CapSense.c **** * Summary:
1301:Generated_Source\PSoC4/CapSense.c **** * This API sets the drive mode for the appropriate port/pin.
1302:Generated_Source\PSoC4/CapSense.c **** *
1303:Generated_Source\PSoC4/CapSense.c **** * Parameters:
1304:Generated_Source\PSoC4/CapSense.c **** *  driveMode:  Drive mode definition.
1305:Generated_Source\PSoC4/CapSense.c **** *  portNumber: contains port number (0, 1, 2).
1306:Generated_Source\PSoC4/CapSense.c **** *  pinNumber: contains pin number (0, 1, 2, ... , 7).
1307:Generated_Source\PSoC4/CapSense.c **** *
1308:Generated_Source\PSoC4/CapSense.c **** * Return:
1309:Generated_Source\PSoC4/CapSense.c **** *  None
1310:Generated_Source\PSoC4/CapSense.c **** *
1311:Generated_Source\PSoC4/CapSense.c **** * Global Variables:
1312:Generated_Source\PSoC4/CapSense.c **** *  CapSense_prtSelTbl[] - Contains pointers to the HSIOM
1313:Generated_Source\PSoC4/CapSense.c **** *  registers for each port.
1314:Generated_Source\PSoC4/CapSense.c **** *  CapSense_prtCfgTb[] - Contains pointers to the port config
1315:Generated_Source\PSoC4/CapSense.c **** *  registers for each port.
1316:Generated_Source\PSoC4/CapSense.c **** *
1317:Generated_Source\PSoC4/CapSense.c **** * Side Effects:
1318:Generated_Source\PSoC4/CapSense.c **** *  This API is called only after CapSense component is stopped.
1319:Generated_Source\PSoC4/CapSense.c **** *
1320:Generated_Source\PSoC4/CapSense.c **** *******************************************************************************/
1321:Generated_Source\PSoC4/CapSense.c **** void CapSense_SetPinDriveMode(uint32 driveMode, uint32 pinNumber, uint32 portNumber)
1322:Generated_Source\PSoC4/CapSense.c **** {
 633              		.loc 1 1322 0
 634              		.cfi_startproc
 635              		@ args = 0, pretend = 0, frame = 0
 636              		@ frame_needed = 0, uses_anonymous_args = 0
 637              	.LVL72:
 638 0000 10B5     		push	{r4, lr}
 639              		.cfi_def_cfa_offset 8
 640              		.cfi_offset 4, -8
 641              		.cfi_offset 14, -4
1323:Generated_Source\PSoC4/CapSense.c ****     uint32  pinModeShift;
1324:Generated_Source\PSoC4/CapSense.c ****     uint32 newRegisterValue;
1325:Generated_Source\PSoC4/CapSense.c **** 
1326:Generated_Source\PSoC4/CapSense.c ****     pinModeShift  = pinNumber * CapSense_PC_PIN_CFG_SIZE;
 642              		.loc 1 1326 0
 643 0002 4B00     		lsls	r3, r1, #1
 644 0004 5918     		adds	r1, r3, r1
 645              	.LVL73:
1327:Generated_Source\PSoC4/CapSense.c **** 
1328:Generated_Source\PSoC4/CapSense.c ****     newRegisterValue = *CapSense_prtCfgTbl[portNumber];
 646              		.loc 1 1328 0
 647 0006 9200     		lsls	r2, r2, #2
 648              	.LVL74:
 649 0008 054B     		ldr	r3, .L39
 650 000a 9A18     		adds	r2, r3, r2
 651 000c D46A     		ldr	r4, [r2, #44]
 652 000e 2368     		ldr	r3, [r4]
 653              	.LVL75:
1329:Generated_Source\PSoC4/CapSense.c ****     newRegisterValue &= ~(CapSense_CSD_PIN_MODE_MASK << pinModeShift);
 654              		.loc 1 1329 0
 655 0010 0722     		movs	r2, #7
 656 0012 8A40     		lsls	r2, r2, r1
 657 0014 9343     		bics	r3, r2
 658              	.LVL76:
1330:Generated_Source\PSoC4/CapSense.c ****     newRegisterValue |=  (uint32)((uint32)driveMode << pinModeShift);
ARM GAS  C:\Users\SHOZO\AppData\Local\Temp\ccvk6Xs5.s 			page 36


 659              		.loc 1 1330 0
 660 0016 8840     		lsls	r0, r0, r1
 661              	.LVL77:
 662 0018 1843     		orrs	r0, r3
 663              	.LVL78:
1331:Generated_Source\PSoC4/CapSense.c ****     *CapSense_prtCfgTbl[portNumber] =  newRegisterValue;
 664              		.loc 1 1331 0
 665 001a 2060     		str	r0, [r4]
1332:Generated_Source\PSoC4/CapSense.c **** }
 666              		.loc 1 1332 0
 667              		@ sp needed
 668 001c 10BD     		pop	{r4, pc}
 669              	.L40:
 670 001e C046     		.align	2
 671              	.L39:
 672 0020 00000000 		.word	.LANCHOR2
 673              		.cfi_endproc
 674              	.LFE51:
 675              		.size	CapSense_SetPinDriveMode, .-CapSense_SetPinDriveMode
 676              		.section	.text.CapSense_SetDriveModeAllPins,"ax",%progbits
 677              		.align	2
 678              		.global	CapSense_SetDriveModeAllPins
 679              		.code	16
 680              		.thumb_func
 681              		.type	CapSense_SetDriveModeAllPins, %function
 682              	CapSense_SetDriveModeAllPins:
 683              	.LFB49:
1197:Generated_Source\PSoC4/CapSense.c ****     uint8 curSensor;
 684              		.loc 1 1197 0
 685              		.cfi_startproc
 686              		@ args = 0, pretend = 0, frame = 0
 687              		@ frame_needed = 0, uses_anonymous_args = 0
 688              	.LVL79:
 689 0000 70B5     		push	{r4, r5, r6, lr}
 690              		.cfi_def_cfa_offset 16
 691              		.cfi_offset 4, -16
 692              		.cfi_offset 5, -12
 693              		.cfi_offset 6, -8
 694              		.cfi_offset 14, -4
 695 0002 0500     		movs	r5, r0
 696              	.LVL80:
1206:Generated_Source\PSoC4/CapSense.c ****     {
 697              		.loc 1 1206 0
 698 0004 0024     		movs	r4, #0
 699 0006 08E0     		b	.L42
 700              	.LVL81:
 701              	.L43:
1228:Generated_Source\PSoC4/CapSense.c ****             pinNumberTmp = CapSense_pinShiftTbl[curSensor];
 702              		.loc 1 1228 0 discriminator 3
 703 0008 084B     		ldr	r3, .L44
 704 000a 1A5D     		ldrb	r2, [r3, r4]
 705              	.LVL82:
1229:Generated_Source\PSoC4/CapSense.c ****         #endif  /* CapSense_IS_COMPLEX_SCANSLOTS */
 706              		.loc 1 1229 0 discriminator 3
 707 000c 1B19     		adds	r3, r3, r4
 708 000e 197B     		ldrb	r1, [r3, #12]
 709              	.LVL83:
ARM GAS  C:\Users\SHOZO\AppData\Local\Temp\ccvk6Xs5.s 			page 37


1232:Generated_Source\PSoC4/CapSense.c ****     }
 710              		.loc 1 1232 0 discriminator 3
 711 0010 2800     		movs	r0, r5
 712 0012 FFF7FEFF 		bl	CapSense_SetPinDriveMode
 713              	.LVL84:
1206:Generated_Source\PSoC4/CapSense.c ****     {
 714              		.loc 1 1206 0 discriminator 3
 715 0016 0134     		adds	r4, r4, #1
 716              	.LVL85:
 717 0018 E4B2     		uxtb	r4, r4
 718              	.LVL86:
 719              	.L42:
1206:Generated_Source\PSoC4/CapSense.c ****     {
 720              		.loc 1 1206 0 is_stmt 0 discriminator 1
 721 001a 0B2C     		cmp	r4, #11
 722 001c F4D9     		bls	.L43
1235:Generated_Source\PSoC4/CapSense.c **** 
 723              		.loc 1 1235 0 is_stmt 1
 724 001e 0422     		movs	r2, #4
 725 0020 0221     		movs	r1, #2
 726 0022 2800     		movs	r0, r5
 727 0024 FFF7FEFF 		bl	CapSense_SetPinDriveMode
 728              	.LVL87:
1244:Generated_Source\PSoC4/CapSense.c **** 
 729              		.loc 1 1244 0
 730              		@ sp needed
 731              	.LVL88:
 732              	.LVL89:
 733 0028 70BD     		pop	{r4, r5, r6, pc}
 734              	.L45:
 735 002a C046     		.align	2
 736              	.L44:
 737 002c 00000000 		.word	.LANCHOR2
 738              		.cfi_endproc
 739              	.LFE49:
 740              		.size	CapSense_SetDriveModeAllPins, .-CapSense_SetDriveModeAllPins
 741              		.section	.text.CapSense_RestoreDriveModeAllPins,"ax",%progbits
 742              		.align	2
 743              		.global	CapSense_RestoreDriveModeAllPins
 744              		.code	16
 745              		.thumb_func
 746              		.type	CapSense_RestoreDriveModeAllPins, %function
 747              	CapSense_RestoreDriveModeAllPins:
 748              	.LFB50:
1270:Generated_Source\PSoC4/CapSense.c ****     uint32 newRegisterValue;
 749              		.loc 1 1270 0
 750              		.cfi_startproc
 751              		@ args = 0, pretend = 0, frame = 0
 752              		@ frame_needed = 0, uses_anonymous_args = 0
 753 0000 10B5     		push	{r4, lr}
 754              		.cfi_def_cfa_offset 8
 755              		.cfi_offset 4, -8
 756              		.cfi_offset 14, -4
1273:Generated_Source\PSoC4/CapSense.c **** 
 757              		.loc 1 1273 0
 758 0002 0020     		movs	r0, #0
 759 0004 FFF7FEFF 		bl	CapSense_SetDriveModeAllPins
ARM GAS  C:\Users\SHOZO\AppData\Local\Temp\ccvk6Xs5.s 			page 38


 760              	.LVL90:
1275:Generated_Source\PSoC4/CapSense.c ****     newRegisterValue &= ~(CapSense_CSD_CMOD_CONNECTION_MASK);
 761              		.loc 1 1275 0
 762 0008 044A     		ldr	r2, .L47
 763 000a 1168     		ldr	r1, [r2]
 764              	.LVL91:
1276:Generated_Source\PSoC4/CapSense.c ****     newRegisterValue |= CapSense_CSD_CMOD_TO_AMUXBUS_A;
 765              		.loc 1 1276 0
 766 000c 044B     		ldr	r3, .L47+4
 767 000e 0B40     		ands	r3, r1
 768              	.LVL92:
1277:Generated_Source\PSoC4/CapSense.c ****     CapSense_CMOD_CONNECTION_REG = newRegisterValue;
 769              		.loc 1 1277 0
 770 0010 C021     		movs	r1, #192
 771 0012 C900     		lsls	r1, r1, #3
 772 0014 0B43     		orrs	r3, r1
 773              	.LVL93:
1278:Generated_Source\PSoC4/CapSense.c **** 
 774              		.loc 1 1278 0
 775 0016 1360     		str	r3, [r2]
1293:Generated_Source\PSoC4/CapSense.c **** 
 776              		.loc 1 1293 0
 777              		@ sp needed
 778 0018 10BD     		pop	{r4, pc}
 779              	.L48:
 780 001a C046     		.align	2
 781              	.L47:
 782 001c 10000140 		.word	1073807376
 783 0020 FFF0FFFF 		.word	-3841
 784              		.cfi_endproc
 785              	.LFE50:
 786              		.size	CapSense_RestoreDriveModeAllPins, .-CapSense_RestoreDriveModeAllPins
 787              		.section	.text.CapSense_EnableShieldElectrode,"ax",%progbits
 788              		.align	2
 789              		.global	CapSense_EnableShieldElectrode
 790              		.code	16
 791              		.thumb_func
 792              		.type	CapSense_EnableShieldElectrode, %function
 793              	CapSense_EnableShieldElectrode:
 794              	.LFB54:
1333:Generated_Source\PSoC4/CapSense.c **** 
1334:Generated_Source\PSoC4/CapSense.c **** 
1335:Generated_Source\PSoC4/CapSense.c **** /*******************************************************************************
1336:Generated_Source\PSoC4/CapSense.c **** * Function Name: CapSense_PreScan
1337:Generated_Source\PSoC4/CapSense.c **** ********************************************************************************
1338:Generated_Source\PSoC4/CapSense.c **** *
1339:Generated_Source\PSoC4/CapSense.c **** * Summary:
1340:Generated_Source\PSoC4/CapSense.c **** *  Sets required settings, enables a sensor, removes Vref from AMUX and starts the
1341:Generated_Source\PSoC4/CapSense.c **** *  scanning process of the sensor.
1342:Generated_Source\PSoC4/CapSense.c **** *
1343:Generated_Source\PSoC4/CapSense.c **** * Parameters:
1344:Generated_Source\PSoC4/CapSense.c **** *  sensor:  Sensor number.
1345:Generated_Source\PSoC4/CapSense.c **** *
1346:Generated_Source\PSoC4/CapSense.c **** * Return:
1347:Generated_Source\PSoC4/CapSense.c **** *  None
1348:Generated_Source\PSoC4/CapSense.c **** *
1349:Generated_Source\PSoC4/CapSense.c **** * Global Variables:
ARM GAS  C:\Users\SHOZO\AppData\Local\Temp\ccvk6Xs5.s 			page 39


1350:Generated_Source\PSoC4/CapSense.c **** * CapSense_widgetNumber[] - This array contains numbers of widgets for each sensor.
1351:Generated_Source\PSoC4/CapSense.c **** * CapSense_widgetResolution[] - Contains the widget resolution.
1352:Generated_Source\PSoC4/CapSense.c **** *
1353:Generated_Source\PSoC4/CapSense.c **** * Side Effects:
1354:Generated_Source\PSoC4/CapSense.c **** *  None
1355:Generated_Source\PSoC4/CapSense.c **** *
1356:Generated_Source\PSoC4/CapSense.c **** *******************************************************************************/
1357:Generated_Source\PSoC4/CapSense.c **** void CapSense_PreScan(uint32 sensor)
1358:Generated_Source\PSoC4/CapSense.c **** {
1359:Generated_Source\PSoC4/CapSense.c ****     uint8 widget;
1360:Generated_Source\PSoC4/CapSense.c ****     uint8 interruptState;
1361:Generated_Source\PSoC4/CapSense.c ****     uint32 newRegValue;
1362:Generated_Source\PSoC4/CapSense.c ****     uint32 counterResolution;
1363:Generated_Source\PSoC4/CapSense.c **** 
1364:Generated_Source\PSoC4/CapSense.c ****     #if(CapSense_PRS_OPTIONS == CapSense__PRS_AUTO)
1365:Generated_Source\PSoC4/CapSense.c ****         uint8 senseClkDivMath;
1366:Generated_Source\PSoC4/CapSense.c ****         uint8 sampleClkDivMath;
1367:Generated_Source\PSoC4/CapSense.c ****     #endif /* (CapSense_PRS_OPTIONS == CapSense__PRS_AUTO) */
1368:Generated_Source\PSoC4/CapSense.c **** 
1369:Generated_Source\PSoC4/CapSense.c ****     #if ((CapSense_TUNING_METHOD == CapSense__TUNING_AUTO) &&\
1370:Generated_Source\PSoC4/CapSense.c ****          (0 != CapSense_IS_OVERSAMPLING_EN))
1371:Generated_Source\PSoC4/CapSense.c ****         uint32 oversamplingFactor;
1372:Generated_Source\PSoC4/CapSense.c ****     #endif /* ((CapSense_TUNING_METHOD == CapSense__TUNING_AUTO) &&\
1373:Generated_Source\PSoC4/CapSense.c ****                (0 != CapSense_IS_OVERSAMPLING_EN)) */
1374:Generated_Source\PSoC4/CapSense.c **** 
1375:Generated_Source\PSoC4/CapSense.c ****     /* Define widget sensor belongs to */
1376:Generated_Source\PSoC4/CapSense.c ****     widget = CapSense_widgetNumber[sensor];
1377:Generated_Source\PSoC4/CapSense.c **** 
1378:Generated_Source\PSoC4/CapSense.c ****     /* Recalculate Counter Resolution to MSB 16 bits */
1379:Generated_Source\PSoC4/CapSense.c ****     counterResolution = CapSense_widgetResolution[widget];
1380:Generated_Source\PSoC4/CapSense.c **** 
1381:Generated_Source\PSoC4/CapSense.c ****     #if ((CapSense_TUNING_METHOD == CapSense__TUNING_AUTO) &&\
1382:Generated_Source\PSoC4/CapSense.c ****          (0 != CapSense_IS_OVERSAMPLING_EN))
1383:Generated_Source\PSoC4/CapSense.c ****         oversamplingFactor = CapSense_GetBitValue(CapSense_scanSpeedTbl, sensor);
1384:Generated_Source\PSoC4/CapSense.c **** 
1385:Generated_Source\PSoC4/CapSense.c ****         if(counterResolution < CapSense_RESOLUTION_16_BITS)
1386:Generated_Source\PSoC4/CapSense.c ****         {
1387:Generated_Source\PSoC4/CapSense.c ****             counterResolution <<= oversamplingFactor;
1388:Generated_Source\PSoC4/CapSense.c ****             counterResolution |= (uint32)(CapSense_RESOLUTION_8_BITS);
1389:Generated_Source\PSoC4/CapSense.c ****         }
1390:Generated_Source\PSoC4/CapSense.c ****     #endif /* ((CapSense_TUNING_METHOD == CapSense__TUNING_AUTO) &&\
1391:Generated_Source\PSoC4/CapSense.c ****                (0 != CapSense_IS_OVERSAMPLING_EN)) */
1392:Generated_Source\PSoC4/CapSense.c **** 
1393:Generated_Source\PSoC4/CapSense.c ****     #if (0u != CapSense_IS_M0S8PERI_BLOCK)
1394:Generated_Source\PSoC4/CapSense.c ****         CapSense_SenseClk_Stop();
1395:Generated_Source\PSoC4/CapSense.c ****         CapSense_SampleClk_Stop();
1396:Generated_Source\PSoC4/CapSense.c ****     #endif /* (0u != CapSense_IS_M0S8PERI_BLOCK) */
1397:Generated_Source\PSoC4/CapSense.c **** 
1398:Generated_Source\PSoC4/CapSense.c ****     #if (0u != CapSense_MULTIPLE_FREQUENCY_SET)
1399:Generated_Source\PSoC4/CapSense.c ****         CapSense_SampleClk_SetDividerValue((uint16)CapSense_sampleClkDividerVal[sensor]);
1400:Generated_Source\PSoC4/CapSense.c ****         CapSense_SenseClk_SetDividerValue((uint16)CapSense_senseClkDividerVal[sensor]);
1401:Generated_Source\PSoC4/CapSense.c ****     #else
1402:Generated_Source\PSoC4/CapSense.c ****         CapSense_SampleClk_SetDividerValue((uint16)CapSense_sampleClkDividerVal);
1403:Generated_Source\PSoC4/CapSense.c ****         CapSense_SenseClk_SetDividerValue((uint16)CapSense_senseClkDividerVal);
1404:Generated_Source\PSoC4/CapSense.c ****     #endif /* (0u != CapSense_MULTIPLE_FREQUENCY_SET) */
1405:Generated_Source\PSoC4/CapSense.c **** 
1406:Generated_Source\PSoC4/CapSense.c ****     #if (0u != CapSense_IS_M0S8PERI_BLOCK)
ARM GAS  C:\Users\SHOZO\AppData\Local\Temp\ccvk6Xs5.s 			page 40


1407:Generated_Source\PSoC4/CapSense.c ****         CapSense_SampleClk_Start();
1408:Generated_Source\PSoC4/CapSense.c ****         CapSense_SenseClk_StartEx(CapSense_SampleClk__DIV_ID);
1409:Generated_Source\PSoC4/CapSense.c **** 
1410:Generated_Source\PSoC4/CapSense.c ****         #if(CapSense_PRS_OPTIONS == CapSense__PRS_NONE)
1411:Generated_Source\PSoC4/CapSense.c ****             CyIntDisable(CapSense_ISR_NUMBER);
1412:Generated_Source\PSoC4/CapSense.c ****             CapSense_CSD_CNT_REG = CapSense_ONE_CYCLE;
1413:Generated_Source\PSoC4/CapSense.c ****             while(0u != (CapSense_CSD_CNT_REG & CapSense_RESOLUTION_16_BITS))
1414:Generated_Source\PSoC4/CapSense.c ****             {
1415:Generated_Source\PSoC4/CapSense.c ****             /* Wait until scanning is complete */
1416:Generated_Source\PSoC4/CapSense.c ****             }
1417:Generated_Source\PSoC4/CapSense.c ****             CapSense_CSD_INTR_REG = 1u;
1418:Generated_Source\PSoC4/CapSense.c ****             CyIntClearPending(CapSense_ISR_NUMBER);
1419:Generated_Source\PSoC4/CapSense.c ****             CyIntEnable(CapSense_ISR_NUMBER);
1420:Generated_Source\PSoC4/CapSense.c ****         #endif /* CapSense_PRS_OPTIONS == CapSense__PRS_NONE */
1421:Generated_Source\PSoC4/CapSense.c ****     #endif /* (0u != CapSense_IS_M0S8PERI_BLOCK) */
1422:Generated_Source\PSoC4/CapSense.c **** 
1423:Generated_Source\PSoC4/CapSense.c **** #if(CapSense_PRS_OPTIONS != CapSense__PRS_NONE)
1424:Generated_Source\PSoC4/CapSense.c **** 
1425:Generated_Source\PSoC4/CapSense.c ****     #if(CapSense_TUNING_METHOD == CapSense__TUNING_AUTO)
1426:Generated_Source\PSoC4/CapSense.c ****         if(CapSense_prescalersTuningDone != 0u)
1427:Generated_Source\PSoC4/CapSense.c ****         {
1428:Generated_Source\PSoC4/CapSense.c ****     #endif /* (CapSense_TUNING_METHOD == CapSense__TUNING_AUTO) */
1429:Generated_Source\PSoC4/CapSense.c **** 
1430:Generated_Source\PSoC4/CapSense.c ****             CyIntDisable(CapSense_ISR_NUMBER);
1431:Generated_Source\PSoC4/CapSense.c **** 
1432:Generated_Source\PSoC4/CapSense.c ****             newRegValue = CapSense_CSD_CFG_REG;
1433:Generated_Source\PSoC4/CapSense.c ****             newRegValue |= CapSense_CSD_CFG_PRS_SELECT;
1434:Generated_Source\PSoC4/CapSense.c **** 
1435:Generated_Source\PSoC4/CapSense.c ****             #if(CapSense_PRS_OPTIONS == CapSense__PRS_AUTO)
1436:Generated_Source\PSoC4/CapSense.c **** 
1437:Generated_Source\PSoC4/CapSense.c ****                 newRegValue &= ~(CapSense_PRS_MODE_MASK);
1438:Generated_Source\PSoC4/CapSense.c **** 
1439:Generated_Source\PSoC4/CapSense.c ****                 #if (0u != CapSense_MULTIPLE_FREQUENCY_SET)
1440:Generated_Source\PSoC4/CapSense.c ****                     senseClkDivMath = CapSense_senseClkDividerVal[sensor];
1441:Generated_Source\PSoC4/CapSense.c ****                     sampleClkDivMath = CapSense_sampleClkDividerVal[sensor];
1442:Generated_Source\PSoC4/CapSense.c ****                 #else
1443:Generated_Source\PSoC4/CapSense.c ****                     senseClkDivMath = CapSense_senseClkDividerVal;
1444:Generated_Source\PSoC4/CapSense.c ****                     sampleClkDivMath = CapSense_sampleClkDividerVal;
1445:Generated_Source\PSoC4/CapSense.c ****                 #endif /* ( CapSense_MULTIPLE_FREQUENCY_SET) */
1446:Generated_Source\PSoC4/CapSense.c **** 
1447:Generated_Source\PSoC4/CapSense.c ****                 #if(0u == CapSense_IS_M0S8PERI_BLOCK)
1448:Generated_Source\PSoC4/CapSense.c ****                     senseClkDivMath *= sampleClkDivMath;
1449:Generated_Source\PSoC4/CapSense.c ****                 #endif /* (0u == CapSense_IS_M0S8PERI_BLOCK) */
1450:Generated_Source\PSoC4/CapSense.c **** 
1451:Generated_Source\PSoC4/CapSense.c ****                 if((senseClkDivMath * CapSense_RESOLUTION_12_BITS) <
1452:Generated_Source\PSoC4/CapSense.c ****                    (sampleClkDivMath * CapSense_widgetResolution[widget]))
1453:Generated_Source\PSoC4/CapSense.c ****                 {
1454:Generated_Source\PSoC4/CapSense.c ****                     newRegValue |= CapSense_CSD_PRS_12_BIT;
1455:Generated_Source\PSoC4/CapSense.c ****                 }
1456:Generated_Source\PSoC4/CapSense.c ****             #endif /* (CapSense_PRS_OPTIONS == CapSense__PRS_AUTO) */
1457:Generated_Source\PSoC4/CapSense.c **** 
1458:Generated_Source\PSoC4/CapSense.c ****             CapSense_CSD_CFG_REG = newRegValue;
1459:Generated_Source\PSoC4/CapSense.c **** 
1460:Generated_Source\PSoC4/CapSense.c ****             CyIntEnable(CapSense_ISR_NUMBER);
1461:Generated_Source\PSoC4/CapSense.c **** 
1462:Generated_Source\PSoC4/CapSense.c ****     #if(CapSense_TUNING_METHOD == CapSense__TUNING_AUTO)
1463:Generated_Source\PSoC4/CapSense.c ****         }
ARM GAS  C:\Users\SHOZO\AppData\Local\Temp\ccvk6Xs5.s 			page 41


1464:Generated_Source\PSoC4/CapSense.c ****     #endif /* (CapSense_PRS_OPTIONS != CapSense__PRS_NONE) */
1465:Generated_Source\PSoC4/CapSense.c **** 
1466:Generated_Source\PSoC4/CapSense.c **** #endif /* (CapSense_PRS_OPTIONS == CapSense__PRS_NONE) */
1467:Generated_Source\PSoC4/CapSense.c **** 
1468:Generated_Source\PSoC4/CapSense.c ****     /* Set Idac Value */
1469:Generated_Source\PSoC4/CapSense.c ****     CyIntDisable(CapSense_ISR_NUMBER);
1470:Generated_Source\PSoC4/CapSense.c ****     newRegValue = CapSense_CSD_IDAC_REG;
1471:Generated_Source\PSoC4/CapSense.c **** 
1472:Generated_Source\PSoC4/CapSense.c **** #if (CapSense_IDAC_CNT == 1u)
1473:Generated_Source\PSoC4/CapSense.c ****     newRegValue &= ~(CapSense_CSD_IDAC1_DATA_MASK);
1474:Generated_Source\PSoC4/CapSense.c ****     newRegValue |= CapSense_modulationIDAC[sensor];
1475:Generated_Source\PSoC4/CapSense.c **** #else
1476:Generated_Source\PSoC4/CapSense.c ****     newRegValue &= ~(CapSense_CSD_IDAC1_DATA_MASK | CapSense_CSD_IDAC2_DATA_MASK);
1477:Generated_Source\PSoC4/CapSense.c ****     newRegValue |= (CapSense_modulationIDAC[sensor] |
1478:Generated_Source\PSoC4/CapSense.c ****                             (uint32)((uint32)CapSense_compensationIDAC[sensor] <<
1479:Generated_Source\PSoC4/CapSense.c ****                             CapSense_CSD_IDAC2_DATA_OFFSET));
1480:Generated_Source\PSoC4/CapSense.c **** #endif /* (CapSense_IDAC_CNT == 1u) */
1481:Generated_Source\PSoC4/CapSense.c **** 
1482:Generated_Source\PSoC4/CapSense.c ****     CapSense_CSD_IDAC_REG = newRegValue;
1483:Generated_Source\PSoC4/CapSense.c **** 
1484:Generated_Source\PSoC4/CapSense.c **** #if(CapSense_CMOD_PREGARGE_OPTION == CapSense__CAPPRIOBUF)
1485:Generated_Source\PSoC4/CapSense.c ****     newRegValue = CapSense_CMOD_CONNECTION_REG;
1486:Generated_Source\PSoC4/CapSense.c ****     newRegValue &= ~(CapSense_CSD_CMOD_CONNECTION_MASK);
1487:Generated_Source\PSoC4/CapSense.c ****     newRegValue |= CapSense_CSD_CMOD_TO_AMUXBUS_A;
1488:Generated_Source\PSoC4/CapSense.c ****     CapSense_CMOD_CONNECTION_REG = newRegValue;
1489:Generated_Source\PSoC4/CapSense.c **** 
1490:Generated_Source\PSoC4/CapSense.c ****     newRegValue = CapSense_CMOD_PORT_PC_REG;
1491:Generated_Source\PSoC4/CapSense.c ****     newRegValue &= ~(CapSense_CSD_CMOD_PC_MASK);
1492:Generated_Source\PSoC4/CapSense.c ****     newRegValue |= CapSense_CMOD_PC_HIGH_Z_MODE;
1493:Generated_Source\PSoC4/CapSense.c ****     CapSense_CMOD_PORT_PC_REG = newRegValue;
1494:Generated_Source\PSoC4/CapSense.c **** #endif /* (CapSense_CMOD_PREGARGE_OPTION == CapSense__CAPPRIOBUF) */
1495:Generated_Source\PSoC4/CapSense.c **** 
1496:Generated_Source\PSoC4/CapSense.c ****     /* Disconnect Vref Buffer from AMUX */
1497:Generated_Source\PSoC4/CapSense.c ****     newRegValue = CapSense_CSD_CFG_REG;
1498:Generated_Source\PSoC4/CapSense.c ****     newRegValue &= ~(CapSense_PRECHARGE_CONFIG_MASK);
1499:Generated_Source\PSoC4/CapSense.c ****     newRegValue |= CapSense_CTANK_PRECHARGE_CONFIG;
1500:Generated_Source\PSoC4/CapSense.c **** 
1501:Generated_Source\PSoC4/CapSense.c ****     CyIntEnable(CapSense_ISR_NUMBER);
1502:Generated_Source\PSoC4/CapSense.c **** 
1503:Generated_Source\PSoC4/CapSense.c ****     /* Enable Sensor */
1504:Generated_Source\PSoC4/CapSense.c ****     CapSense_EnableScanSlot(sensor);
1505:Generated_Source\PSoC4/CapSense.c **** 
1506:Generated_Source\PSoC4/CapSense.c ****     interruptState = CyEnterCriticalSection();
1507:Generated_Source\PSoC4/CapSense.c ****     CapSense_CSD_CFG_REG = newRegValue;
1508:Generated_Source\PSoC4/CapSense.c **** 
1509:Generated_Source\PSoC4/CapSense.c ****     /* `#START CapSense_PreSettlingDelay_Debug` */
1510:Generated_Source\PSoC4/CapSense.c **** 
1511:Generated_Source\PSoC4/CapSense.c ****     /* `#END` */
1512:Generated_Source\PSoC4/CapSense.c **** 
1513:Generated_Source\PSoC4/CapSense.c **** #ifdef CapSense_PRE_SCAN_PRE_SETTLING_DELAY_DEBUG_CALLBACK
1514:Generated_Source\PSoC4/CapSense.c ****     CapSense_PreScan_Pre_SettlingDelay_Debug_Callback();
1515:Generated_Source\PSoC4/CapSense.c **** #endif /* CapSense_PRE_SCAN_PRE_SETTLING_DELAY_DEBUG_CALLBACK */
1516:Generated_Source\PSoC4/CapSense.c **** 
1517:Generated_Source\PSoC4/CapSense.c ****     CyDelayCycles(CapSense_GLITCH_ELIMINATION_CYCLES);
1518:Generated_Source\PSoC4/CapSense.c **** 
1519:Generated_Source\PSoC4/CapSense.c ****     /* `#START CapSense_PreScan_Debug` */
1520:Generated_Source\PSoC4/CapSense.c **** 
ARM GAS  C:\Users\SHOZO\AppData\Local\Temp\ccvk6Xs5.s 			page 42


1521:Generated_Source\PSoC4/CapSense.c ****     /* `#END` */
1522:Generated_Source\PSoC4/CapSense.c **** 
1523:Generated_Source\PSoC4/CapSense.c **** #ifdef CapSense_PRE_SCAN_DEBUG_CALLBACK
1524:Generated_Source\PSoC4/CapSense.c ****     CapSense_PreScan_Debug_Callback();
1525:Generated_Source\PSoC4/CapSense.c **** #endif /* CapSense_PRE_SCAN_DEBUG_CALLBACK */
1526:Generated_Source\PSoC4/CapSense.c **** 
1527:Generated_Source\PSoC4/CapSense.c ****     CapSense_CSD_CNT_REG = counterResolution;
1528:Generated_Source\PSoC4/CapSense.c ****     CyExitCriticalSection(interruptState);
1529:Generated_Source\PSoC4/CapSense.c **** }
1530:Generated_Source\PSoC4/CapSense.c **** 
1531:Generated_Source\PSoC4/CapSense.c **** 
1532:Generated_Source\PSoC4/CapSense.c **** /*******************************************************************************
1533:Generated_Source\PSoC4/CapSense.c **** * Function Name: CapSense_PostScan
1534:Generated_Source\PSoC4/CapSense.c **** ********************************************************************************
1535:Generated_Source\PSoC4/CapSense.c **** *
1536:Generated_Source\PSoC4/CapSense.c **** * Summary:
1537:Generated_Source\PSoC4/CapSense.c **** *  Stores the results of measurement in the CapSense_sensorRaw[] array,
1538:Generated_Source\PSoC4/CapSense.c **** *  sets the scanning sensor in the non-sampling state, turns off Idac(Current Source IDAC),
1539:Generated_Source\PSoC4/CapSense.c **** *  disconnects the IDAC(Sink mode), and applies Vref on AMUX.
1540:Generated_Source\PSoC4/CapSense.c **** *
1541:Generated_Source\PSoC4/CapSense.c **** * Parameters:
1542:Generated_Source\PSoC4/CapSense.c **** *  sensor:  Sensor number.
1543:Generated_Source\PSoC4/CapSense.c **** *
1544:Generated_Source\PSoC4/CapSense.c **** * Return:
1545:Generated_Source\PSoC4/CapSense.c **** *  None
1546:Generated_Source\PSoC4/CapSense.c **** *
1547:Generated_Source\PSoC4/CapSense.c **** * Global Variables:
1548:Generated_Source\PSoC4/CapSense.c **** *  CapSense_sensorRaw[] - used to store sensors raw data.
1549:Generated_Source\PSoC4/CapSense.c **** *
1550:Generated_Source\PSoC4/CapSense.c **** * Side Effects:
1551:Generated_Source\PSoC4/CapSense.c **** *  None
1552:Generated_Source\PSoC4/CapSense.c **** *
1553:Generated_Source\PSoC4/CapSense.c **** *******************************************************************************/
1554:Generated_Source\PSoC4/CapSense.c **** void CapSense_PostScan(uint32 sensor)
1555:Generated_Source\PSoC4/CapSense.c **** {
1556:Generated_Source\PSoC4/CapSense.c ****     uint32 newRegValue;
1557:Generated_Source\PSoC4/CapSense.c **** #if ((CapSense_TUNING_METHOD == CapSense__TUNING_AUTO) &&\
1558:Generated_Source\PSoC4/CapSense.c ****      (0 != CapSense_IS_OVERSAMPLING_EN))
1559:Generated_Source\PSoC4/CapSense.c ****     uint32 oversamplingFactor;
1560:Generated_Source\PSoC4/CapSense.c ****     uint32 widget;
1561:Generated_Source\PSoC4/CapSense.c **** #endif /* ((CapSense_TUNING_METHOD == CapSense__TUNING_AUTO) &&\
1562:Generated_Source\PSoC4/CapSense.c ****            (0 != CapSense_IS_OVERSAMPLING_EN)) */
1563:Generated_Source\PSoC4/CapSense.c **** 
1564:Generated_Source\PSoC4/CapSense.c ****     /* `#START CapSense_PostScan_Debug` */
1565:Generated_Source\PSoC4/CapSense.c **** 
1566:Generated_Source\PSoC4/CapSense.c ****     /* `#END` */
1567:Generated_Source\PSoC4/CapSense.c **** 
1568:Generated_Source\PSoC4/CapSense.c **** #ifdef CapSense_POST_SCAN_DEBUG_CALLBACK
1569:Generated_Source\PSoC4/CapSense.c ****     CapSense_PostScan_Debug_Callback();
1570:Generated_Source\PSoC4/CapSense.c **** #endif /* CapSense_POST_SCAN_DEBUG_Callback */
1571:Generated_Source\PSoC4/CapSense.c **** 
1572:Generated_Source\PSoC4/CapSense.c ****     /* Read SlotResult from Raw Counter */
1573:Generated_Source\PSoC4/CapSense.c ****     CapSense_sensorRaw[sensor]  = (uint16)CapSense_CSD_CNT_REG;
1574:Generated_Source\PSoC4/CapSense.c **** 
1575:Generated_Source\PSoC4/CapSense.c **** #if ((CapSense_TUNING_METHOD == CapSense__TUNING_AUTO) &&\
1576:Generated_Source\PSoC4/CapSense.c ****      (0 != CapSense_IS_OVERSAMPLING_EN))
1577:Generated_Source\PSoC4/CapSense.c ****     widget = CapSense_widgetNumber[sensor];
ARM GAS  C:\Users\SHOZO\AppData\Local\Temp\ccvk6Xs5.s 			page 43


1578:Generated_Source\PSoC4/CapSense.c ****     if(CapSense_widgetResolution[widget] < CapSense_RESOLUTION_16_BITS)
1579:Generated_Source\PSoC4/CapSense.c ****     {
1580:Generated_Source\PSoC4/CapSense.c ****         oversamplingFactor = CapSense_GetBitValue(CapSense_scanSpeedTbl, sensor);
1581:Generated_Source\PSoC4/CapSense.c ****         CapSense_sensorRaw[sensor] >>= oversamplingFactor;
1582:Generated_Source\PSoC4/CapSense.c ****     }
1583:Generated_Source\PSoC4/CapSense.c **** #endif /* ((CapSense_TUNING_METHOD == CapSense__TUNING_AUTO) &&\
1584:Generated_Source\PSoC4/CapSense.c ****            (0 != CapSense_IS_OVERSAMPLING_EN)) */
1585:Generated_Source\PSoC4/CapSense.c **** 
1586:Generated_Source\PSoC4/CapSense.c ****     /* Disable Sensor */
1587:Generated_Source\PSoC4/CapSense.c ****     CapSense_DisableScanSlot(sensor);
1588:Generated_Source\PSoC4/CapSense.c **** 
1589:Generated_Source\PSoC4/CapSense.c ****     CyIntDisable(CapSense_ISR_NUMBER);
1590:Generated_Source\PSoC4/CapSense.c **** 
1591:Generated_Source\PSoC4/CapSense.c **** #if(CapSense_CMOD_PREGARGE_OPTION == CapSense__CAPPRIOBUF)
1592:Generated_Source\PSoC4/CapSense.c ****     newRegValue = CapSense_CMOD_CONNECTION_REG;
1593:Generated_Source\PSoC4/CapSense.c ****     newRegValue &= ~(CapSense_CSD_CMOD_CONNECTION_MASK);
1594:Generated_Source\PSoC4/CapSense.c ****     newRegValue |= CapSense_CSD_CMOD_TO_AMUXBUS_B;
1595:Generated_Source\PSoC4/CapSense.c ****     CapSense_CMOD_CONNECTION_REG = newRegValue;
1596:Generated_Source\PSoC4/CapSense.c **** 
1597:Generated_Source\PSoC4/CapSense.c ****     newRegValue = CapSense_CMOD_PORT_PC_REG;
1598:Generated_Source\PSoC4/CapSense.c ****     newRegValue &= ~(CapSense_CSD_CMOD_PC_MASK);
1599:Generated_Source\PSoC4/CapSense.c ****     newRegValue |= CapSense_CMOD_PC_STRONG_MODE;
1600:Generated_Source\PSoC4/CapSense.c ****     CapSense_CMOD_PORT_PC_REG = newRegValue;
1601:Generated_Source\PSoC4/CapSense.c **** 
1602:Generated_Source\PSoC4/CapSense.c ****     newRegValue = CapSense_CMOD_PORT_DR_REG;
1603:Generated_Source\PSoC4/CapSense.c ****     newRegValue &= ~(CapSense_CMOD_DR_MASK);
1604:Generated_Source\PSoC4/CapSense.c ****     newRegValue |= CapSense_CMOD_DR_CONFIG;
1605:Generated_Source\PSoC4/CapSense.c ****     CapSense_CMOD_PORT_DR_REG = newRegValue;
1606:Generated_Source\PSoC4/CapSense.c **** #endif /* (CapSense_CMOD_PREGARGE_OPTION == CapSense__CAPPRIOBUF) */
1607:Generated_Source\PSoC4/CapSense.c **** 
1608:Generated_Source\PSoC4/CapSense.c ****     /* Connect Vref Buffer to AMUX bus  */
1609:Generated_Source\PSoC4/CapSense.c ****     newRegValue = CapSense_CSD_CFG_REG;
1610:Generated_Source\PSoC4/CapSense.c ****     newRegValue &= ~(CapSense_PRECHARGE_CONFIG_MASK);
1611:Generated_Source\PSoC4/CapSense.c ****     newRegValue |= CapSense_CMOD_PRECHARGE_CONFIG;
1612:Generated_Source\PSoC4/CapSense.c ****     CapSense_CSD_CFG_REG = newRegValue;
1613:Generated_Source\PSoC4/CapSense.c **** 
1614:Generated_Source\PSoC4/CapSense.c ****     /* Set Idac Value = 0 */
1615:Generated_Source\PSoC4/CapSense.c **** #if (CapSense_IDAC_CNT == 1u)
1616:Generated_Source\PSoC4/CapSense.c ****     CapSense_CSD_IDAC_REG &= ~(CapSense_CSD_IDAC1_DATA_MASK);
1617:Generated_Source\PSoC4/CapSense.c **** #else
1618:Generated_Source\PSoC4/CapSense.c ****     CapSense_CSD_IDAC_REG &= ~(CapSense_CSD_IDAC1_DATA_MASK | CapSense_CSD_IDAC2_DATA_MASK);
1619:Generated_Source\PSoC4/CapSense.c **** #endif /* (CapSense_IDAC_CNT == 1u) */
1620:Generated_Source\PSoC4/CapSense.c **** 
1621:Generated_Source\PSoC4/CapSense.c ****     CyIntEnable(CapSense_ISR_NUMBER);
1622:Generated_Source\PSoC4/CapSense.c **** }
1623:Generated_Source\PSoC4/CapSense.c **** 
1624:Generated_Source\PSoC4/CapSense.c **** 
1625:Generated_Source\PSoC4/CapSense.c **** /*******************************************************************************
1626:Generated_Source\PSoC4/CapSense.c **** * Function Name: CapSense_EnableShieldElectrode
1627:Generated_Source\PSoC4/CapSense.c **** ********************************************************************************
1628:Generated_Source\PSoC4/CapSense.c **** *
1629:Generated_Source\PSoC4/CapSense.c **** * Summary:
1630:Generated_Source\PSoC4/CapSense.c **** *  This API enables or disables the shield electrode on a specified port pin.
1631:Generated_Source\PSoC4/CapSense.c **** *
1632:Generated_Source\PSoC4/CapSense.c **** * Parameters:
1633:Generated_Source\PSoC4/CapSense.c **** *  portNumber: contains the shield electrode port number (0, 1, 2).
1634:Generated_Source\PSoC4/CapSense.c **** *  pinNumber: contains the shield electrode pin number (0, 1, 2, ... , 7).
ARM GAS  C:\Users\SHOZO\AppData\Local\Temp\ccvk6Xs5.s 			page 44


1635:Generated_Source\PSoC4/CapSense.c **** *
1636:Generated_Source\PSoC4/CapSense.c **** * Return:
1637:Generated_Source\PSoC4/CapSense.c **** *  None
1638:Generated_Source\PSoC4/CapSense.c **** *
1639:Generated_Source\PSoC4/CapSense.c **** * Global Variables:
1640:Generated_Source\PSoC4/CapSense.c **** *  CapSense_prtCfgTbl[] - Contains pointers to the port config registers for each port.
1641:Generated_Source\PSoC4/CapSense.c **** *  CapSense_prtSelTbl[] - Contains pointers to the HSIOM registers for each port.
1642:Generated_Source\PSoC4/CapSense.c **** *
1643:Generated_Source\PSoC4/CapSense.c **** * Side Effects:
1644:Generated_Source\PSoC4/CapSense.c **** *  None
1645:Generated_Source\PSoC4/CapSense.c **** *
1646:Generated_Source\PSoC4/CapSense.c **** *******************************************************************************/
1647:Generated_Source\PSoC4/CapSense.c **** void CapSense_EnableShieldElectrode(uint32 pinNumber, uint32 portNumber)
1648:Generated_Source\PSoC4/CapSense.c **** {
 795              		.loc 1 1648 0
 796              		.cfi_startproc
 797              		@ args = 0, pretend = 0, frame = 0
 798              		@ frame_needed = 0, uses_anonymous_args = 0
 799              	.LVL94:
 800 0000 30B5     		push	{r4, r5, lr}
 801              		.cfi_def_cfa_offset 12
 802              		.cfi_offset 4, -12
 803              		.cfi_offset 5, -8
 804              		.cfi_offset 14, -4
1649:Generated_Source\PSoC4/CapSense.c ****     uint32 newRegValue;
1650:Generated_Source\PSoC4/CapSense.c **** 
1651:Generated_Source\PSoC4/CapSense.c ****     *CapSense_prtCfgTbl[portNumber] &= ~(CapSense_CSD_PIN_MODE_MASK << (pinNumber * CapSense_PC_PIN
 805              		.loc 1 1651 0
 806 0002 8900     		lsls	r1, r1, #2
 807              	.LVL95:
 808 0004 0A4B     		ldr	r3, .L50
 809 0006 5918     		adds	r1, r3, r1
 810 0008 CD6A     		ldr	r5, [r1, #44]
 811 000a 2B68     		ldr	r3, [r5]
 812 000c 4400     		lsls	r4, r0, #1
 813 000e 2418     		adds	r4, r4, r0
 814 0010 0722     		movs	r2, #7
 815 0012 A240     		lsls	r2, r2, r4
 816 0014 9343     		bics	r3, r2
 817 0016 2B60     		str	r3, [r5]
1652:Generated_Source\PSoC4/CapSense.c ****     newRegValue = *CapSense_prtSelTbl[portNumber];
 818              		.loc 1 1652 0
 819 0018 8969     		ldr	r1, [r1, #24]
 820 001a 0B68     		ldr	r3, [r1]
 821              	.LVL96:
1653:Generated_Source\PSoC4/CapSense.c ****     newRegValue &= ~(CapSense_CSD_HSIOM_MASK << (pinNumber * CapSense_HSIOM_PIN_CFG_SIZE));
 822              		.loc 1 1653 0
 823 001c 8000     		lsls	r0, r0, #2
 824              	.LVL97:
 825 001e 0F22     		movs	r2, #15
 826 0020 8240     		lsls	r2, r2, r0
 827 0022 9343     		bics	r3, r2
 828              	.LVL98:
 829 0024 1A00     		movs	r2, r3
 830              	.LVL99:
1654:Generated_Source\PSoC4/CapSense.c ****     newRegValue |= (CapSense_CSD_SHIELD_PORT_MODE << (pinNumber * CapSense_HSIOM_PIN_CFG_SIZE));
 831              		.loc 1 1654 0
ARM GAS  C:\Users\SHOZO\AppData\Local\Temp\ccvk6Xs5.s 			page 45


 832 0026 0523     		movs	r3, #5
 833 0028 8340     		lsls	r3, r3, r0
 834 002a 1343     		orrs	r3, r2
 835              	.LVL100:
1655:Generated_Source\PSoC4/CapSense.c ****     *CapSense_prtSelTbl[portNumber] = newRegValue;
 836              		.loc 1 1655 0
 837 002c 0B60     		str	r3, [r1]
1656:Generated_Source\PSoC4/CapSense.c **** }
 838              		.loc 1 1656 0
 839              		@ sp needed
 840 002e 30BD     		pop	{r4, r5, pc}
 841              	.L51:
 842              		.align	2
 843              	.L50:
 844 0030 00000000 		.word	.LANCHOR2
 845              		.cfi_endproc
 846              	.LFE54:
 847              		.size	CapSense_EnableShieldElectrode, .-CapSense_EnableShieldElectrode
 848              		.section	.text.CapSense_SetShieldDelay,"ax",%progbits
 849              		.align	2
 850              		.global	CapSense_SetShieldDelay
 851              		.code	16
 852              		.thumb_func
 853              		.type	CapSense_SetShieldDelay, %function
 854              	CapSense_SetShieldDelay:
 855              	.LFB55:
1657:Generated_Source\PSoC4/CapSense.c **** 
1658:Generated_Source\PSoC4/CapSense.c **** 
1659:Generated_Source\PSoC4/CapSense.c **** /*******************************************************************************
1660:Generated_Source\PSoC4/CapSense.c **** * Function Name: CapSense_SetShieldDelay
1661:Generated_Source\PSoC4/CapSense.c **** ********************************************************************************
1662:Generated_Source\PSoC4/CapSense.c **** *
1663:Generated_Source\PSoC4/CapSense.c **** * Summary:
1664:Generated_Source\PSoC4/CapSense.c **** *  This API sets a shield delay.
1665:Generated_Source\PSoC4/CapSense.c **** *
1666:Generated_Source\PSoC4/CapSense.c **** * Parameters:
1667:Generated_Source\PSoC4/CapSense.c **** *  delay:  shield delay value:
1668:Generated_Source\PSoC4/CapSense.c **** *                               0 - no delay
1669:Generated_Source\PSoC4/CapSense.c **** *                               1 - 1 cycle delay
1670:Generated_Source\PSoC4/CapSense.c **** *                               2 - 2 cycles delay
1671:Generated_Source\PSoC4/CapSense.c **** *
1672:Generated_Source\PSoC4/CapSense.c **** * Return:
1673:Generated_Source\PSoC4/CapSense.c **** *  None
1674:Generated_Source\PSoC4/CapSense.c **** *
1675:Generated_Source\PSoC4/CapSense.c **** * Global Variables:
1676:Generated_Source\PSoC4/CapSense.c **** *  None
1677:Generated_Source\PSoC4/CapSense.c **** *
1678:Generated_Source\PSoC4/CapSense.c **** * Side Effects:
1679:Generated_Source\PSoC4/CapSense.c **** *  None
1680:Generated_Source\PSoC4/CapSense.c **** *
1681:Generated_Source\PSoC4/CapSense.c **** *******************************************************************************/
1682:Generated_Source\PSoC4/CapSense.c **** void CapSense_SetShieldDelay(uint32 delay)
1683:Generated_Source\PSoC4/CapSense.c **** {
 856              		.loc 1 1683 0
 857              		.cfi_startproc
 858              		@ args = 0, pretend = 0, frame = 0
 859              		@ frame_needed = 0, uses_anonymous_args = 0
ARM GAS  C:\Users\SHOZO\AppData\Local\Temp\ccvk6Xs5.s 			page 46


 860              		@ link register save eliminated.
 861              	.LVL101:
1684:Generated_Source\PSoC4/CapSense.c ****     uint32 newRegValue;
1685:Generated_Source\PSoC4/CapSense.c **** 
1686:Generated_Source\PSoC4/CapSense.c ****     delay &= 0x03u;
1687:Generated_Source\PSoC4/CapSense.c **** 
1688:Generated_Source\PSoC4/CapSense.c ****     newRegValue = CapSense_CSD_CFG_REG;
 862              		.loc 1 1688 0
 863 0000 044A     		ldr	r2, .L53
 864 0002 1168     		ldr	r1, [r2]
 865              	.LVL102:
1689:Generated_Source\PSoC4/CapSense.c ****     newRegValue &= (uint32)(~(uint32)CapSense_SHIELD_DELAY);
1690:Generated_Source\PSoC4/CapSense.c ****     newRegValue |= (delay << CapSense_CSD_CFG_SHIELD_DELAY_POS);
 866              		.loc 1 1690 0
 867 0004 4002     		lsls	r0, r0, #9
 868              	.LVL103:
 869 0006 C023     		movs	r3, #192
 870 0008 DB00     		lsls	r3, r3, #3
 871 000a 1840     		ands	r0, r3
 872 000c 0843     		orrs	r0, r1
 873              	.LVL104:
1691:Generated_Source\PSoC4/CapSense.c ****     CapSense_CSD_CFG_REG = newRegValue;
 874              		.loc 1 1691 0
 875 000e 1060     		str	r0, [r2]
1692:Generated_Source\PSoC4/CapSense.c **** }
 876              		.loc 1 1692 0
 877              		@ sp needed
 878 0010 7047     		bx	lr
 879              	.L54:
 880 0012 C046     		.align	2
 881              	.L53:
 882 0014 04000840 		.word	1074266116
 883              		.cfi_endproc
 884              	.LFE55:
 885              		.size	CapSense_SetShieldDelay, .-CapSense_SetShieldDelay
 886              		.section	.text.CapSense_ReadCurrentScanningSensor,"ax",%progbits
 887              		.align	2
 888              		.global	CapSense_ReadCurrentScanningSensor
 889              		.code	16
 890              		.thumb_func
 891              		.type	CapSense_ReadCurrentScanningSensor, %function
 892              	CapSense_ReadCurrentScanningSensor:
 893              	.LFB56:
1693:Generated_Source\PSoC4/CapSense.c **** 
1694:Generated_Source\PSoC4/CapSense.c **** 
1695:Generated_Source\PSoC4/CapSense.c **** /*******************************************************************************
1696:Generated_Source\PSoC4/CapSense.c **** * Function Name: CapSense_ReadCurrentScanningSensor
1697:Generated_Source\PSoC4/CapSense.c **** ********************************************************************************
1698:Generated_Source\PSoC4/CapSense.c **** *
1699:Generated_Source\PSoC4/CapSense.c **** * Summary:
1700:Generated_Source\PSoC4/CapSense.c **** *  This API returns scanning sensor number when sensor scan is in progress.
1701:Generated_Source\PSoC4/CapSense.c **** *  When sensor scan is completed the API returns
1702:Generated_Source\PSoC4/CapSense.c **** *  $INSTANCE_NAME`_NOT_SENSOR (0xFFFFFFFF) (when no sensor is scanned).
1703:Generated_Source\PSoC4/CapSense.c **** *
1704:Generated_Source\PSoC4/CapSense.c **** * Parameters:
1705:Generated_Source\PSoC4/CapSense.c **** *   None.
1706:Generated_Source\PSoC4/CapSense.c **** *
ARM GAS  C:\Users\SHOZO\AppData\Local\Temp\ccvk6Xs5.s 			page 47


1707:Generated_Source\PSoC4/CapSense.c **** * Return:
1708:Generated_Source\PSoC4/CapSense.c **** *  Returns Sensor number if sensor is being scanned and
1709:Generated_Source\PSoC4/CapSense.c **** *  $INSTANCE_NAME`_NOT_SENSOR (0xFFFFFFFF) if scanning is complete.
1710:Generated_Source\PSoC4/CapSense.c **** *
1711:Generated_Source\PSoC4/CapSense.c **** * Global Variables:
1712:Generated_Source\PSoC4/CapSense.c **** *  CapSense_sensorIndex - the sensor number is being scanned.
1713:Generated_Source\PSoC4/CapSense.c **** *
1714:Generated_Source\PSoC4/CapSense.c **** * Side Effects:
1715:Generated_Source\PSoC4/CapSense.c **** *  None
1716:Generated_Source\PSoC4/CapSense.c **** *
1717:Generated_Source\PSoC4/CapSense.c **** *******************************************************************************/
1718:Generated_Source\PSoC4/CapSense.c **** uint32 CapSense_ReadCurrentScanningSensor(void)
1719:Generated_Source\PSoC4/CapSense.c **** {
 894              		.loc 1 1719 0
 895              		.cfi_startproc
 896              		@ args = 0, pretend = 0, frame = 0
 897              		@ frame_needed = 0, uses_anonymous_args = 0
 898              		@ link register save eliminated.
1720:Generated_Source\PSoC4/CapSense.c ****     return ((uint32)(( 0u != (CapSense_csdStatusVar & CapSense_SW_STS_BUSY)) ?
 899              		.loc 1 1720 0
 900 0000 054B     		ldr	r3, .L58
 901 0002 1B78     		ldrb	r3, [r3]
 902 0004 DB07     		lsls	r3, r3, #31
 903 0006 03D5     		bpl	.L57
 904              		.loc 1 1720 0 is_stmt 0 discriminator 1
 905 0008 034B     		ldr	r3, .L58
 906 000a 187F     		ldrb	r0, [r3, #28]
 907 000c C0B2     		uxtb	r0, r0
 908 000e 01E0     		b	.L56
 909              	.L57:
 910              		.loc 1 1720 0
 911 0010 0120     		movs	r0, #1
 912 0012 4042     		rsbs	r0, r0, #0
 913              	.L56:
1721:Generated_Source\PSoC4/CapSense.c ****                      CapSense_sensorIndex : CapSense_NOT_SENSOR));
1722:Generated_Source\PSoC4/CapSense.c **** }
 914              		.loc 1 1722 0 is_stmt 1 discriminator 4
 915              		@ sp needed
 916 0014 7047     		bx	lr
 917              	.L59:
 918 0016 C046     		.align	2
 919              	.L58:
 920 0018 00000000 		.word	.LANCHOR0
 921              		.cfi_endproc
 922              	.LFE56:
 923              		.size	CapSense_ReadCurrentScanningSensor, .-CapSense_ReadCurrentScanningSensor
 924              		.section	.text.CapSense_GetBitValue,"ax",%progbits
 925              		.align	2
 926              		.global	CapSense_GetBitValue
 927              		.code	16
 928              		.thumb_func
 929              		.type	CapSense_GetBitValue, %function
 930              	CapSense_GetBitValue:
 931              	.LFB57:
1723:Generated_Source\PSoC4/CapSense.c **** 
1724:Generated_Source\PSoC4/CapSense.c **** 
1725:Generated_Source\PSoC4/CapSense.c **** /*******************************************************************************
ARM GAS  C:\Users\SHOZO\AppData\Local\Temp\ccvk6Xs5.s 			page 48


1726:Generated_Source\PSoC4/CapSense.c **** * Function Name: CapSense_GetBitValue
1727:Generated_Source\PSoC4/CapSense.c **** ********************************************************************************
1728:Generated_Source\PSoC4/CapSense.c **** *
1729:Generated_Source\PSoC4/CapSense.c **** * Summary:
1730:Generated_Source\PSoC4/CapSense.c **** *  The API returns a bit status of the bit in the table array which contains the masks.
1731:Generated_Source\PSoC4/CapSense.c **** *
1732:Generated_Source\PSoC4/CapSense.c **** * Parameters:
1733:Generated_Source\PSoC4/CapSense.c **** *  table[] - array with bit masks.
1734:Generated_Source\PSoC4/CapSense.c **** *  position - position of bit in the table[] array.
1735:Generated_Source\PSoC4/CapSense.c **** *
1736:Generated_Source\PSoC4/CapSense.c **** * Return:
1737:Generated_Source\PSoC4/CapSense.c **** *  0 - bit is not set; 1 - bit is set.
1738:Generated_Source\PSoC4/CapSense.c **** *
1739:Generated_Source\PSoC4/CapSense.c **** * Global Variables:
1740:Generated_Source\PSoC4/CapSense.c **** *  None
1741:Generated_Source\PSoC4/CapSense.c **** *
1742:Generated_Source\PSoC4/CapSense.c **** * Side Effects:
1743:Generated_Source\PSoC4/CapSense.c **** *  None
1744:Generated_Source\PSoC4/CapSense.c **** *
1745:Generated_Source\PSoC4/CapSense.c **** *******************************************************************************/
1746:Generated_Source\PSoC4/CapSense.c **** uint32 CapSense_GetBitValue(const uint8 table[], uint32 position)
1747:Generated_Source\PSoC4/CapSense.c **** {
 932              		.loc 1 1747 0
 933              		.cfi_startproc
 934              		@ args = 0, pretend = 0, frame = 0
 935              		@ frame_needed = 0, uses_anonymous_args = 0
 936              		@ link register save eliminated.
 937              	.LVL105:
1748:Generated_Source\PSoC4/CapSense.c ****     uint32 offset;
1749:Generated_Source\PSoC4/CapSense.c ****     uint8 enMask;
1750:Generated_Source\PSoC4/CapSense.c **** 
1751:Generated_Source\PSoC4/CapSense.c ****     /* position is divided by 8 to calculate the element of the
1752:Generated_Source\PSoC4/CapSense.c ****        table[] array that contains the enable bit
1753:Generated_Source\PSoC4/CapSense.c ****        for an appropriate sensor.
1754:Generated_Source\PSoC4/CapSense.c ****     */
1755:Generated_Source\PSoC4/CapSense.c ****     offset = (position >> 3u);
 938              		.loc 1 1755 0
 939 0000 CA08     		lsrs	r2, r1, #3
 940              	.LVL106:
1756:Generated_Source\PSoC4/CapSense.c **** 
1757:Generated_Source\PSoC4/CapSense.c ****     /* The enMask calculation for the appropriate sensor. Operation (position & 0x07u)
1758:Generated_Source\PSoC4/CapSense.c ****        intends to calculate the enable bit offset for the 8-bit element of the
1759:Generated_Source\PSoC4/CapSense.c ****        table[] array.
1760:Generated_Source\PSoC4/CapSense.c ****     */
1761:Generated_Source\PSoC4/CapSense.c ****     enMask = 0x01u << (position & 0x07u);
 941              		.loc 1 1761 0
 942 0002 0723     		movs	r3, #7
 943 0004 1940     		ands	r1, r3
 944              	.LVL107:
 945 0006 063B     		subs	r3, r3, #6
 946 0008 8B40     		lsls	r3, r3, r1
 947              	.LVL108:
1762:Generated_Source\PSoC4/CapSense.c **** 
1763:Generated_Source\PSoC4/CapSense.c ****     return ((0u !=(table[offset] & enMask)) ? 1Lu : 0Lu);
 948              		.loc 1 1763 0
 949 000a 825C     		ldrb	r2, [r0, r2]
 950              	.LVL109:
ARM GAS  C:\Users\SHOZO\AppData\Local\Temp\ccvk6Xs5.s 			page 49


 951 000c 1342     		tst	r3, r2
 952 000e 01D0     		beq	.L62
 953 0010 0120     		movs	r0, #1
 954              	.LVL110:
 955 0012 00E0     		b	.L61
 956              	.LVL111:
 957              	.L62:
 958 0014 0020     		movs	r0, #0
 959              	.LVL112:
 960              	.L61:
1764:Generated_Source\PSoC4/CapSense.c **** }
 961              		.loc 1 1764 0 discriminator 4
 962              		@ sp needed
 963 0016 7047     		bx	lr
 964              		.cfi_endproc
 965              	.LFE57:
 966              		.size	CapSense_GetBitValue, .-CapSense_GetBitValue
 967              		.section	.text.CapSense_FindNextSensor,"ax",%progbits
 968              		.align	2
 969              		.global	CapSense_FindNextSensor
 970              		.code	16
 971              		.thumb_func
 972              		.type	CapSense_FindNextSensor, %function
 973              	CapSense_FindNextSensor:
 974              	.LFB37:
 529:Generated_Source\PSoC4/CapSense.c ****     uint32 enableFlag;
 975              		.loc 1 529 0
 976              		.cfi_startproc
 977              		@ args = 0, pretend = 0, frame = 0
 978              		@ frame_needed = 0, uses_anonymous_args = 0
 979              	.LVL113:
 980 0000 10B5     		push	{r4, lr}
 981              		.cfi_def_cfa_offset 8
 982              		.cfi_offset 4, -8
 983              		.cfi_offset 14, -4
 984 0002 0400     		movs	r4, r0
 985              	.LVL114:
 986              	.L65:
 536:Generated_Source\PSoC4/CapSense.c ****         if(snsIndex == CapSense_TOTAL_SENSOR_COUNT)
 987              		.loc 1 536 0
 988 0004 0134     		adds	r4, r4, #1
 989              	.LVL115:
 990 0006 E4B2     		uxtb	r4, r4
 991              	.LVL116:
 537:Generated_Source\PSoC4/CapSense.c ****         {
 992              		.loc 1 537 0
 993 0008 0C2C     		cmp	r4, #12
 994 000a 06D0     		beq	.L64
 541:Generated_Source\PSoC4/CapSense.c ****     }
 995              		.loc 1 541 0
 996 000c 2100     		movs	r1, r4
 997 000e 0448     		ldr	r0, .L66
 998 0010 0430     		adds	r0, r0, #4
 999 0012 FFF7FEFF 		bl	CapSense_GetBitValue
 1000              	.LVL117:
 543:Generated_Source\PSoC4/CapSense.c **** 
 1001              		.loc 1 543 0
ARM GAS  C:\Users\SHOZO\AppData\Local\Temp\ccvk6Xs5.s 			page 50


 1002 0016 0028     		cmp	r0, #0
 1003 0018 F4D0     		beq	.L65
 1004              	.LVL118:
 1005              	.L64:
 546:Generated_Source\PSoC4/CapSense.c **** 
 1006              		.loc 1 546 0
 1007 001a 2000     		movs	r0, r4
 1008              		@ sp needed
 1009              	.LVL119:
 1010 001c 10BD     		pop	{r4, pc}
 1011              	.L67:
 1012 001e C046     		.align	2
 1013              	.L66:
 1014 0020 00000000 		.word	.LANCHOR1
 1015              		.cfi_endproc
 1016              	.LFE37:
 1017              		.size	CapSense_FindNextSensor, .-CapSense_FindNextSensor
 1018              		.section	.text.CapSense_PreScan,"ax",%progbits
 1019              		.align	2
 1020              		.global	CapSense_PreScan
 1021              		.code	16
 1022              		.thumb_func
 1023              		.type	CapSense_PreScan, %function
 1024              	CapSense_PreScan:
 1025              	.LFB52:
1358:Generated_Source\PSoC4/CapSense.c ****     uint8 widget;
 1026              		.loc 1 1358 0
 1027              		.cfi_startproc
 1028              		@ args = 0, pretend = 0, frame = 0
 1029              		@ frame_needed = 0, uses_anonymous_args = 0
 1030              	.LVL120:
 1031 0000 F8B5     		push	{r3, r4, r5, r6, r7, lr}
 1032              		.cfi_def_cfa_offset 24
 1033              		.cfi_offset 3, -24
 1034              		.cfi_offset 4, -20
 1035              		.cfi_offset 5, -16
 1036              		.cfi_offset 6, -12
 1037              		.cfi_offset 7, -8
 1038              		.cfi_offset 14, -4
 1039 0002 0400     		movs	r4, r0
1376:Generated_Source\PSoC4/CapSense.c **** 
 1040              		.loc 1 1376 0
 1041 0004 354B     		ldr	r3, .L72
 1042 0006 1B18     		adds	r3, r3, r0
 1043 0008 5422     		movs	r2, #84
 1044 000a 9D5C     		ldrb	r5, [r3, r2]
1379:Generated_Source\PSoC4/CapSense.c **** 
 1045              		.loc 1 1379 0
 1046 000c AA00     		lsls	r2, r5, #2
 1047 000e 344B     		ldr	r3, .L72+4
 1048 0010 D658     		ldr	r6, [r2, r3]
 1049              	.LVL121:
1383:Generated_Source\PSoC4/CapSense.c **** 
 1050              		.loc 1 1383 0
 1051 0012 0100     		movs	r1, r0
 1052 0014 3348     		ldr	r0, .L72+8
 1053              	.LVL122:
ARM GAS  C:\Users\SHOZO\AppData\Local\Temp\ccvk6Xs5.s 			page 51


 1054 0016 FFF7FEFF 		bl	CapSense_GetBitValue
 1055              	.LVL123:
1385:Generated_Source\PSoC4/CapSense.c ****         {
 1056              		.loc 1 1385 0
 1057 001a 334B     		ldr	r3, .L72+12
 1058 001c 9E42     		cmp	r6, r3
 1059 001e 03D8     		bhi	.L69
1387:Generated_Source\PSoC4/CapSense.c ****             counterResolution |= (uint32)(CapSense_RESOLUTION_8_BITS);
 1060              		.loc 1 1387 0
 1061 0020 8640     		lsls	r6, r6, r0
 1062              	.LVL124:
1388:Generated_Source\PSoC4/CapSense.c ****         }
 1063              		.loc 1 1388 0
 1064 0022 FF23     		movs	r3, #255
 1065 0024 1B04     		lsls	r3, r3, #16
 1066 0026 1E43     		orrs	r6, r3
 1067              	.LVL125:
 1068              	.L69:
1399:Generated_Source\PSoC4/CapSense.c ****         CapSense_SenseClk_SetDividerValue((uint16)CapSense_senseClkDividerVal[sensor]);
 1069              		.loc 1 1399 0
 1070 0028 304B     		ldr	r3, .L72+16
 1071 002a 185D     		ldrb	r0, [r3, r4]
 1072              	.LVL126:
 1073 002c 0138     		subs	r0, r0, #1
 1074 002e 80B2     		uxth	r0, r0
 1075 0030 0021     		movs	r1, #0
 1076 0032 FFF7FEFF 		bl	CapSense_SampleClk_SetFractionalDividerRegister
 1077              	.LVL127:
1400:Generated_Source\PSoC4/CapSense.c ****     #else
 1078              		.loc 1 1400 0
 1079 0036 2E4B     		ldr	r3, .L72+20
 1080 0038 185D     		ldrb	r0, [r3, r4]
 1081 003a 0138     		subs	r0, r0, #1
 1082 003c 80B2     		uxth	r0, r0
 1083 003e 0021     		movs	r1, #0
 1084 0040 FFF7FEFF 		bl	CapSense_SenseClk_SetFractionalDividerRegister
 1085              	.LVL128:
1426:Generated_Source\PSoC4/CapSense.c ****         {
 1086              		.loc 1 1426 0
 1087 0044 2B4B     		ldr	r3, .L72+24
 1088 0046 5B7F     		ldrb	r3, [r3, #29]
 1089 0048 002B     		cmp	r3, #0
 1090 004a 1ED0     		beq	.L70
1430:Generated_Source\PSoC4/CapSense.c **** 
 1091              		.loc 1 1430 0
 1092 004c 0F20     		movs	r0, #15
 1093 004e FFF7FEFF 		bl	CyIntDisable
 1094              	.LVL129:
1432:Generated_Source\PSoC4/CapSense.c ****             newRegValue |= CapSense_CSD_CFG_PRS_SELECT;
 1095              		.loc 1 1432 0
 1096 0052 294B     		ldr	r3, .L72+28
 1097 0054 1868     		ldr	r0, [r3]
 1098              	.LVL130:
 1099 0056 8023     		movs	r3, #128
 1100 0058 9843     		bics	r0, r3
 1101              	.LVL131:
1437:Generated_Source\PSoC4/CapSense.c **** 
ARM GAS  C:\Users\SHOZO\AppData\Local\Temp\ccvk6Xs5.s 			page 52


 1102              		.loc 1 1437 0
 1103 005a 4022     		movs	r2, #64
 1104 005c 0243     		orrs	r2, r0
 1105              	.LVL132:
1440:Generated_Source\PSoC4/CapSense.c ****                     sampleClkDivMath = CapSense_sampleClkDividerVal[sensor];
 1106              		.loc 1 1440 0
 1107 005e 244B     		ldr	r3, .L72+20
 1108 0060 1B5D     		ldrb	r3, [r3, r4]
 1109              	.LVL133:
1441:Generated_Source\PSoC4/CapSense.c ****                 #else
 1110              		.loc 1 1441 0
 1111 0062 2249     		ldr	r1, .L72+16
 1112 0064 0F5D     		ldrb	r7, [r1, r4]
 1113              	.LVL134:
1448:Generated_Source\PSoC4/CapSense.c ****                 #endif /* (0u == CapSense_IS_M0S8PERI_BLOCK) */
 1114              		.loc 1 1448 0
 1115 0066 7B43     		muls	r3, r7
 1116              	.LVL135:
 1117 0068 DBB2     		uxtb	r3, r3
 1118              	.LVL136:
1451:Generated_Source\PSoC4/CapSense.c ****                    (sampleClkDivMath * CapSense_widgetResolution[widget]))
 1119              		.loc 1 1451 0
 1120 006a 1903     		lsls	r1, r3, #12
 1121 006c CB1A     		subs	r3, r1, r3
 1122              	.LVL137:
 1123 006e 1904     		lsls	r1, r3, #16
1452:Generated_Source\PSoC4/CapSense.c ****                 {
 1124              		.loc 1 1452 0
 1125 0070 AD00     		lsls	r5, r5, #2
 1126 0072 1B4B     		ldr	r3, .L72+4
 1127 0074 EB58     		ldr	r3, [r5, r3]
 1128 0076 7B43     		muls	r3, r7
1451:Generated_Source\PSoC4/CapSense.c ****                    (sampleClkDivMath * CapSense_widgetResolution[widget]))
 1129              		.loc 1 1451 0
 1130 0078 9942     		cmp	r1, r3
 1131 007a 01D2     		bcs	.L71
1454:Generated_Source\PSoC4/CapSense.c ****                 }
 1132              		.loc 1 1454 0
 1133 007c C022     		movs	r2, #192
 1134              	.LVL138:
 1135 007e 0243     		orrs	r2, r0
 1136              	.LVL139:
 1137              	.L71:
1458:Generated_Source\PSoC4/CapSense.c **** 
 1138              		.loc 1 1458 0
 1139 0080 1D4B     		ldr	r3, .L72+28
 1140 0082 1A60     		str	r2, [r3]
 1141              	.LVL140:
1460:Generated_Source\PSoC4/CapSense.c **** 
 1142              		.loc 1 1460 0
 1143 0084 0F20     		movs	r0, #15
 1144 0086 FFF7FEFF 		bl	CyIntEnable
 1145              	.LVL141:
 1146              	.L70:
1469:Generated_Source\PSoC4/CapSense.c ****     newRegValue = CapSense_CSD_IDAC_REG;
 1147              		.loc 1 1469 0
 1148 008a 0F20     		movs	r0, #15
ARM GAS  C:\Users\SHOZO\AppData\Local\Temp\ccvk6Xs5.s 			page 53


 1149 008c FFF7FEFF 		bl	CyIntDisable
 1150              	.LVL142:
1470:Generated_Source\PSoC4/CapSense.c **** 
 1151              		.loc 1 1470 0
 1152 0090 1A48     		ldr	r0, .L72+32
 1153 0092 0168     		ldr	r1, [r0]
 1154              	.LVL143:
1476:Generated_Source\PSoC4/CapSense.c ****     newRegValue |= (CapSense_modulationIDAC[sensor] |
 1155              		.loc 1 1476 0
 1156 0094 1A4B     		ldr	r3, .L72+36
 1157 0096 1940     		ands	r1, r3
 1158              	.LVL144:
1477:Generated_Source\PSoC4/CapSense.c ****                             (uint32)((uint32)CapSense_compensationIDAC[sensor] <<
 1159              		.loc 1 1477 0
 1160 0098 1A4B     		ldr	r3, .L72+40
 1161 009a 1B5D     		ldrb	r3, [r3, r4]
1478:Generated_Source\PSoC4/CapSense.c ****                             CapSense_CSD_IDAC2_DATA_OFFSET));
 1162              		.loc 1 1478 0
 1163 009c 1A4A     		ldr	r2, .L72+44
 1164 009e 125D     		ldrb	r2, [r2, r4]
 1165 00a0 1204     		lsls	r2, r2, #16
1477:Generated_Source\PSoC4/CapSense.c ****                             (uint32)((uint32)CapSense_compensationIDAC[sensor] <<
 1166              		.loc 1 1477 0
 1167 00a2 1343     		orrs	r3, r2
 1168 00a4 0B43     		orrs	r3, r1
 1169              	.LVL145:
1482:Generated_Source\PSoC4/CapSense.c **** 
 1170              		.loc 1 1482 0
 1171 00a6 0360     		str	r3, [r0]
1497:Generated_Source\PSoC4/CapSense.c ****     newRegValue &= ~(CapSense_PRECHARGE_CONFIG_MASK);
 1172              		.loc 1 1497 0
 1173 00a8 134F     		ldr	r7, .L72+28
 1174 00aa 3D68     		ldr	r5, [r7]
 1175              	.LVL146:
1498:Generated_Source\PSoC4/CapSense.c ****     newRegValue |= CapSense_CTANK_PRECHARGE_CONFIG;
 1176              		.loc 1 1498 0
 1177 00ac 174B     		ldr	r3, .L72+48
 1178 00ae 1D40     		ands	r5, r3
 1179              	.LVL147:
1499:Generated_Source\PSoC4/CapSense.c **** 
 1180              		.loc 1 1499 0
 1181 00b0 174B     		ldr	r3, .L72+52
 1182 00b2 1D43     		orrs	r5, r3
 1183              	.LVL148:
1501:Generated_Source\PSoC4/CapSense.c **** 
 1184              		.loc 1 1501 0
 1185 00b4 0F20     		movs	r0, #15
 1186 00b6 FFF7FEFF 		bl	CyIntEnable
 1187              	.LVL149:
1504:Generated_Source\PSoC4/CapSense.c **** 
 1188              		.loc 1 1504 0
 1189 00ba 2000     		movs	r0, r4
 1190 00bc FFF7FEFF 		bl	CapSense_EnableSensor
 1191              	.LVL150:
1506:Generated_Source\PSoC4/CapSense.c ****     CapSense_CSD_CFG_REG = newRegValue;
 1192              		.loc 1 1506 0
 1193 00c0 FFF7FEFF 		bl	CyEnterCriticalSection
ARM GAS  C:\Users\SHOZO\AppData\Local\Temp\ccvk6Xs5.s 			page 54


 1194              	.LVL151:
 1195 00c4 0400     		movs	r4, r0
 1196              	.LVL152:
1507:Generated_Source\PSoC4/CapSense.c **** 
 1197              		.loc 1 1507 0
 1198 00c6 3D60     		str	r5, [r7]
1517:Generated_Source\PSoC4/CapSense.c **** 
 1199              		.loc 1 1517 0
 1200 00c8 0020     		movs	r0, #0
 1201 00ca FFF7FEFF 		bl	CyDelayCycles
 1202              	.LVL153:
1527:Generated_Source\PSoC4/CapSense.c ****     CyExitCriticalSection(interruptState);
 1203              		.loc 1 1527 0
 1204 00ce 114B     		ldr	r3, .L72+56
 1205 00d0 1E60     		str	r6, [r3]
1528:Generated_Source\PSoC4/CapSense.c **** }
 1206              		.loc 1 1528 0
 1207 00d2 2000     		movs	r0, r4
 1208 00d4 FFF7FEFF 		bl	CyExitCriticalSection
 1209              	.LVL154:
1529:Generated_Source\PSoC4/CapSense.c **** 
 1210              		.loc 1 1529 0
 1211              		@ sp needed
 1212              	.LVL155:
 1213              	.LVL156:
 1214              	.LVL157:
 1215 00d8 F8BD     		pop	{r3, r4, r5, r6, r7, pc}
 1216              	.L73:
 1217 00da C046     		.align	2
 1218              	.L72:
 1219 00dc 00000000 		.word	.LANCHOR2
 1220 00e0 00000000 		.word	.LANCHOR1
 1221 00e4 00000000 		.word	CapSense_scanSpeedTbl
 1222 00e8 FFFFFEFF 		.word	-65537
 1223 00ec 00000000 		.word	CapSense_sampleClkDividerVal
 1224 00f0 00000000 		.word	CapSense_senseClkDividerVal
 1225 00f4 00000000 		.word	.LANCHOR0
 1226 00f8 04000840 		.word	1074266116
 1227 00fc 08000840 		.word	1074266120
 1228 0100 00FF80FF 		.word	-8323328
 1229 0104 00000000 		.word	CapSense_modulationIDAC
 1230 0108 00000000 		.word	CapSense_compensationIDAC
 1231 010c FF1FDFFF 		.word	-2154497
 1232 0110 20E02000 		.word	2154528
 1233 0114 0C000840 		.word	1074266124
 1234              		.cfi_endproc
 1235              	.LFE52:
 1236              		.size	CapSense_PreScan, .-CapSense_PreScan
 1237              		.section	.text.CapSense_ScanSensor,"ax",%progbits
 1238              		.align	2
 1239              		.global	CapSense_ScanSensor
 1240              		.code	16
 1241              		.thumb_func
 1242              		.type	CapSense_ScanSensor, %function
 1243              	CapSense_ScanSensor:
 1244              	.LFB38:
 577:Generated_Source\PSoC4/CapSense.c ****     /* Clears status/control variable and set sensorIndex */
ARM GAS  C:\Users\SHOZO\AppData\Local\Temp\ccvk6Xs5.s 			page 55


 1245              		.loc 1 577 0
 1246              		.cfi_startproc
 1247              		@ args = 0, pretend = 0, frame = 0
 1248              		@ frame_needed = 0, uses_anonymous_args = 0
 1249              	.LVL158:
 1250 0000 10B5     		push	{r4, lr}
 1251              		.cfi_def_cfa_offset 8
 1252              		.cfi_offset 4, -8
 1253              		.cfi_offset 14, -4
 579:Generated_Source\PSoC4/CapSense.c ****     CapSense_sensorIndex = (uint8)sensor;
 1254              		.loc 1 579 0
 1255 0002 054B     		ldr	r3, .L75
 1256 0004 0022     		movs	r2, #0
 1257 0006 1A70     		strb	r2, [r3]
 580:Generated_Source\PSoC4/CapSense.c **** 
 1258              		.loc 1 580 0
 1259 0008 C2B2     		uxtb	r2, r0
 1260 000a 1A77     		strb	r2, [r3, #28]
 583:Generated_Source\PSoC4/CapSense.c ****     CapSense_PreScan(sensor);
 1261              		.loc 1 583 0
 1262 000c 8122     		movs	r2, #129
 1263 000e 1A70     		strb	r2, [r3]
 584:Generated_Source\PSoC4/CapSense.c **** }
 1264              		.loc 1 584 0
 1265 0010 FFF7FEFF 		bl	CapSense_PreScan
 1266              	.LVL159:
 585:Generated_Source\PSoC4/CapSense.c **** 
 1267              		.loc 1 585 0
 1268              		@ sp needed
 1269 0014 10BD     		pop	{r4, pc}
 1270              	.L76:
 1271 0016 C046     		.align	2
 1272              	.L75:
 1273 0018 00000000 		.word	.LANCHOR0
 1274              		.cfi_endproc
 1275              	.LFE38:
 1276              		.size	CapSense_ScanSensor, .-CapSense_ScanSensor
 1277              		.section	.text.CapSense_ScanEnabledWidgets,"ax",%progbits
 1278              		.align	2
 1279              		.global	CapSense_ScanEnabledWidgets
 1280              		.code	16
 1281              		.thumb_func
 1282              		.type	CapSense_ScanEnabledWidgets, %function
 1283              	CapSense_ScanEnabledWidgets:
 1284              	.LFB40:
 701:Generated_Source\PSoC4/CapSense.c ****     /* Clears status/control variable and set sensorIndex */
 1285              		.loc 1 701 0
 1286              		.cfi_startproc
 1287              		@ args = 0, pretend = 0, frame = 0
 1288              		@ frame_needed = 0, uses_anonymous_args = 0
 1289 0000 10B5     		push	{r4, lr}
 1290              		.cfi_def_cfa_offset 8
 1291              		.cfi_offset 4, -8
 1292              		.cfi_offset 14, -4
 703:Generated_Source\PSoC4/CapSense.c ****     CapSense_sensorIndex = 0xFFu;
 1293              		.loc 1 703 0
 1294 0002 0C4C     		ldr	r4, .L79
ARM GAS  C:\Users\SHOZO\AppData\Local\Temp\ccvk6Xs5.s 			page 56


 1295 0004 0023     		movs	r3, #0
 1296 0006 2370     		strb	r3, [r4]
 704:Generated_Source\PSoC4/CapSense.c **** 
 1297              		.loc 1 704 0
 1298 0008 FF33     		adds	r3, r3, #255
 1299 000a 2377     		strb	r3, [r4, #28]
 707:Generated_Source\PSoC4/CapSense.c **** 
 1300              		.loc 1 707 0
 1301 000c 207F     		ldrb	r0, [r4, #28]
 1302 000e C0B2     		uxtb	r0, r0
 1303 0010 FFF7FEFF 		bl	CapSense_FindNextSensor
 1304              	.LVL160:
 1305 0014 2077     		strb	r0, [r4, #28]
 710:Generated_Source\PSoC4/CapSense.c ****     {
 1306              		.loc 1 710 0
 1307 0016 237F     		ldrb	r3, [r4, #28]
 1308 0018 DBB2     		uxtb	r3, r3
 1309 001a 0B2B     		cmp	r3, #11
 1310 001c 08D8     		bhi	.L77
 712:Generated_Source\PSoC4/CapSense.c ****         CapSense_PreScan((uint32)CapSense_sensorIndex);
 1311              		.loc 1 712 0
 1312 001e 2178     		ldrb	r1, [r4]
 1313 0020 0123     		movs	r3, #1
 1314 0022 0B43     		orrs	r3, r1
 1315 0024 DBB2     		uxtb	r3, r3
 1316 0026 2370     		strb	r3, [r4]
 713:Generated_Source\PSoC4/CapSense.c ****     }
 1317              		.loc 1 713 0
 1318 0028 207F     		ldrb	r0, [r4, #28]
 1319 002a C0B2     		uxtb	r0, r0
 1320 002c FFF7FEFF 		bl	CapSense_PreScan
 1321              	.LVL161:
 1322              	.L77:
 715:Generated_Source\PSoC4/CapSense.c **** 
 1323              		.loc 1 715 0
 1324              		@ sp needed
 1325 0030 10BD     		pop	{r4, pc}
 1326              	.L80:
 1327 0032 C046     		.align	2
 1328              	.L79:
 1329 0034 00000000 		.word	.LANCHOR0
 1330              		.cfi_endproc
 1331              	.LFE40:
 1332              		.size	CapSense_ScanEnabledWidgets, .-CapSense_ScanEnabledWidgets
 1333              		.section	.text.CapSense_PostScan,"ax",%progbits
 1334              		.align	2
 1335              		.global	CapSense_PostScan
 1336              		.code	16
 1337              		.thumb_func
 1338              		.type	CapSense_PostScan, %function
 1339              	CapSense_PostScan:
 1340              	.LFB53:
1555:Generated_Source\PSoC4/CapSense.c ****     uint32 newRegValue;
 1341              		.loc 1 1555 0
 1342              		.cfi_startproc
 1343              		@ args = 0, pretend = 0, frame = 0
 1344              		@ frame_needed = 0, uses_anonymous_args = 0
ARM GAS  C:\Users\SHOZO\AppData\Local\Temp\ccvk6Xs5.s 			page 57


 1345              	.LVL162:
 1346 0000 70B5     		push	{r4, r5, r6, lr}
 1347              		.cfi_def_cfa_offset 16
 1348              		.cfi_offset 4, -16
 1349              		.cfi_offset 5, -12
 1350              		.cfi_offset 6, -8
 1351              		.cfi_offset 14, -4
 1352 0002 0500     		movs	r5, r0
1573:Generated_Source\PSoC4/CapSense.c **** 
 1353              		.loc 1 1573 0
 1354 0004 184B     		ldr	r3, .L83
 1355 0006 1C68     		ldr	r4, [r3]
 1356 0008 A4B2     		uxth	r4, r4
 1357 000a 4300     		lsls	r3, r0, #1
 1358 000c 174A     		ldr	r2, .L83+4
 1359 000e D318     		adds	r3, r2, r3
 1360 0010 9C80     		strh	r4, [r3, #4]
1577:Generated_Source\PSoC4/CapSense.c ****     if(CapSense_widgetResolution[widget] < CapSense_RESOLUTION_16_BITS)
 1361              		.loc 1 1577 0
 1362 0012 174B     		ldr	r3, .L83+8
 1363 0014 1B18     		adds	r3, r3, r0
 1364 0016 5422     		movs	r2, #84
 1365 0018 9B5C     		ldrb	r3, [r3, r2]
 1366              	.LVL163:
1578:Generated_Source\PSoC4/CapSense.c ****     {
 1367              		.loc 1 1578 0
 1368 001a 9B00     		lsls	r3, r3, #2
 1369              	.LVL164:
 1370 001c 154A     		ldr	r2, .L83+12
 1371              	.LVL165:
 1372 001e 9A58     		ldr	r2, [r3, r2]
 1373 0020 154B     		ldr	r3, .L83+16
 1374 0022 9A42     		cmp	r2, r3
 1375 0024 08D8     		bhi	.L82
1580:Generated_Source\PSoC4/CapSense.c ****         CapSense_sensorRaw[sensor] >>= oversamplingFactor;
 1376              		.loc 1 1580 0
 1377 0026 0100     		movs	r1, r0
 1378 0028 1448     		ldr	r0, .L83+20
 1379              	.LVL166:
 1380 002a FFF7FEFF 		bl	CapSense_GetBitValue
 1381              	.LVL167:
1581:Generated_Source\PSoC4/CapSense.c ****     }
 1382              		.loc 1 1581 0
 1383 002e 6B00     		lsls	r3, r5, #1
 1384 0030 0E4A     		ldr	r2, .L83+4
 1385 0032 D318     		adds	r3, r2, r3
 1386 0034 0441     		asrs	r4, r4, r0
 1387 0036 9C80     		strh	r4, [r3, #4]
 1388              	.LVL168:
 1389              	.L82:
1587:Generated_Source\PSoC4/CapSense.c **** 
 1390              		.loc 1 1587 0
 1391 0038 2800     		movs	r0, r5
 1392 003a FFF7FEFF 		bl	CapSense_DisableSensor
 1393              	.LVL169:
1589:Generated_Source\PSoC4/CapSense.c **** 
 1394              		.loc 1 1589 0
ARM GAS  C:\Users\SHOZO\AppData\Local\Temp\ccvk6Xs5.s 			page 58


 1395 003e 0F20     		movs	r0, #15
 1396 0040 FFF7FEFF 		bl	CyIntDisable
 1397              	.LVL170:
1609:Generated_Source\PSoC4/CapSense.c ****     newRegValue &= ~(CapSense_PRECHARGE_CONFIG_MASK);
 1398              		.loc 1 1609 0
 1399 0044 0E4A     		ldr	r2, .L83+24
 1400 0046 1168     		ldr	r1, [r2]
 1401              	.LVL171:
1610:Generated_Source\PSoC4/CapSense.c ****     newRegValue |= CapSense_CMOD_PRECHARGE_CONFIG;
 1402              		.loc 1 1610 0
 1403 0048 0E4B     		ldr	r3, .L83+28
 1404 004a 0B40     		ands	r3, r1
 1405              	.LVL172:
1611:Generated_Source\PSoC4/CapSense.c ****     CapSense_CSD_CFG_REG = newRegValue;
 1406              		.loc 1 1611 0
 1407 004c A021     		movs	r1, #160
 1408 004e 0902     		lsls	r1, r1, #8
 1409 0050 0B43     		orrs	r3, r1
 1410              	.LVL173:
1612:Generated_Source\PSoC4/CapSense.c **** 
 1411              		.loc 1 1612 0
 1412 0052 1360     		str	r3, [r2]
1618:Generated_Source\PSoC4/CapSense.c **** #endif /* (CapSense_IDAC_CNT == 1u) */
 1413              		.loc 1 1618 0
 1414 0054 0C4A     		ldr	r2, .L83+32
 1415 0056 1168     		ldr	r1, [r2]
 1416 0058 0C4B     		ldr	r3, .L83+36
 1417              	.LVL174:
 1418 005a 0B40     		ands	r3, r1
 1419 005c 1360     		str	r3, [r2]
 1420              	.LVL175:
1621:Generated_Source\PSoC4/CapSense.c **** }
 1421              		.loc 1 1621 0
 1422 005e 0F20     		movs	r0, #15
 1423 0060 FFF7FEFF 		bl	CyIntEnable
 1424              	.LVL176:
1622:Generated_Source\PSoC4/CapSense.c **** 
 1425              		.loc 1 1622 0
 1426              		@ sp needed
 1427              	.LVL177:
 1428 0064 70BD     		pop	{r4, r5, r6, pc}
 1429              	.L84:
 1430 0066 C046     		.align	2
 1431              	.L83:
 1432 0068 0C000840 		.word	1074266124
 1433 006c 00000000 		.word	.LANCHOR0
 1434 0070 00000000 		.word	.LANCHOR2
 1435 0074 00000000 		.word	.LANCHOR1
 1436 0078 FFFFFEFF 		.word	-65537
 1437 007c 00000000 		.word	CapSense_scanSpeedTbl
 1438 0080 04000840 		.word	1074266116
 1439 0084 FF1FDFFF 		.word	-2154497
 1440 0088 08000840 		.word	1074266120
 1441 008c 00FF80FF 		.word	-8323328
 1442              		.cfi_endproc
 1443              	.LFE53:
 1444              		.size	CapSense_PostScan, .-CapSense_PostScan
ARM GAS  C:\Users\SHOZO\AppData\Local\Temp\ccvk6Xs5.s 			page 59


 1445              		.section	.text.CapSense_SetBitValue,"ax",%progbits
 1446              		.align	2
 1447              		.global	CapSense_SetBitValue
 1448              		.code	16
 1449              		.thumb_func
 1450              		.type	CapSense_SetBitValue, %function
 1451              	CapSense_SetBitValue:
 1452              	.LFB58:
1765:Generated_Source\PSoC4/CapSense.c **** 
1766:Generated_Source\PSoC4/CapSense.c **** 
1767:Generated_Source\PSoC4/CapSense.c **** /*******************************************************************************
1768:Generated_Source\PSoC4/CapSense.c **** * Function Name: CapSense_SetBitValue
1769:Generated_Source\PSoC4/CapSense.c **** ********************************************************************************
1770:Generated_Source\PSoC4/CapSense.c **** *
1771:Generated_Source\PSoC4/CapSense.c **** * Summary:
1772:Generated_Source\PSoC4/CapSense.c **** *  The API sets a bit status of the bit in the table array which contains masks.
1773:Generated_Source\PSoC4/CapSense.c **** *
1774:Generated_Source\PSoC4/CapSense.c **** * Parameters:
1775:Generated_Source\PSoC4/CapSense.c **** *  table[] - array with bit masks.
1776:Generated_Source\PSoC4/CapSense.c **** *  position - position of bit in the table[] array.
1777:Generated_Source\PSoC4/CapSense.c **** *  value: 0 - bit is not set; 1 - bit is set.
1778:Generated_Source\PSoC4/CapSense.c **** *
1779:Generated_Source\PSoC4/CapSense.c **** * Return:
1780:Generated_Source\PSoC4/CapSense.c **** *  None
1781:Generated_Source\PSoC4/CapSense.c **** *
1782:Generated_Source\PSoC4/CapSense.c **** * Global Variables:
1783:Generated_Source\PSoC4/CapSense.c **** *  None
1784:Generated_Source\PSoC4/CapSense.c **** *
1785:Generated_Source\PSoC4/CapSense.c **** * Side Effects:
1786:Generated_Source\PSoC4/CapSense.c **** *  None
1787:Generated_Source\PSoC4/CapSense.c **** *
1788:Generated_Source\PSoC4/CapSense.c **** *******************************************************************************/
1789:Generated_Source\PSoC4/CapSense.c **** void CapSense_SetBitValue(uint8 table[], uint32 position, uint32 value)
1790:Generated_Source\PSoC4/CapSense.c **** {
 1453              		.loc 1 1790 0
 1454              		.cfi_startproc
 1455              		@ args = 0, pretend = 0, frame = 0
 1456              		@ frame_needed = 0, uses_anonymous_args = 0
 1457              	.LVL178:
 1458 0000 10B5     		push	{r4, lr}
 1459              		.cfi_def_cfa_offset 8
 1460              		.cfi_offset 4, -8
 1461              		.cfi_offset 14, -4
1791:Generated_Source\PSoC4/CapSense.c ****     uint32 offset;
1792:Generated_Source\PSoC4/CapSense.c ****     uint8 enMask;
1793:Generated_Source\PSoC4/CapSense.c **** 
1794:Generated_Source\PSoC4/CapSense.c ****     /* position is divided by 8 to calculate the element of the
1795:Generated_Source\PSoC4/CapSense.c ****        table[] array that contains the enable bit
1796:Generated_Source\PSoC4/CapSense.c ****        for an appropriate sensor.
1797:Generated_Source\PSoC4/CapSense.c ****     */
1798:Generated_Source\PSoC4/CapSense.c ****     offset = (position >> 3u);
 1462              		.loc 1 1798 0
 1463 0002 CC08     		lsrs	r4, r1, #3
 1464              	.LVL179:
1799:Generated_Source\PSoC4/CapSense.c **** 
1800:Generated_Source\PSoC4/CapSense.c ****     /* The enMask calculation for the appropriate sensor. Operation (position & 0x07u)
1801:Generated_Source\PSoC4/CapSense.c ****        intends to calculate the enable bit offset for the 8-bit element of the
ARM GAS  C:\Users\SHOZO\AppData\Local\Temp\ccvk6Xs5.s 			page 60


1802:Generated_Source\PSoC4/CapSense.c ****        table[] array.
1803:Generated_Source\PSoC4/CapSense.c ****     */
1804:Generated_Source\PSoC4/CapSense.c ****     enMask = 0x01u << (position & 0x07u);
 1465              		.loc 1 1804 0
 1466 0004 0723     		movs	r3, #7
 1467 0006 1940     		ands	r1, r3
 1468              	.LVL180:
 1469 0008 063B     		subs	r3, r3, #6
 1470 000a 8B40     		lsls	r3, r3, r1
 1471 000c DBB2     		uxtb	r3, r3
 1472              	.LVL181:
1805:Generated_Source\PSoC4/CapSense.c **** 
1806:Generated_Source\PSoC4/CapSense.c ****     if(0u != value)
 1473              		.loc 1 1806 0
 1474 000e 002A     		cmp	r2, #0
 1475 0010 04D0     		beq	.L86
1807:Generated_Source\PSoC4/CapSense.c ****     {
1808:Generated_Source\PSoC4/CapSense.c ****         table[offset] |= enMask;
 1476              		.loc 1 1808 0
 1477 0012 0419     		adds	r4, r0, r4
 1478              	.LVL182:
 1479 0014 2278     		ldrb	r2, [r4]
 1480              	.LVL183:
 1481 0016 1343     		orrs	r3, r2
 1482              	.LVL184:
 1483 0018 2370     		strb	r3, [r4]
 1484 001a 03E0     		b	.L85
 1485              	.LVL185:
 1486              	.L86:
1809:Generated_Source\PSoC4/CapSense.c ****     }
1810:Generated_Source\PSoC4/CapSense.c ****     else
1811:Generated_Source\PSoC4/CapSense.c ****     {
1812:Generated_Source\PSoC4/CapSense.c ****         table[offset] &= (uint8)~(enMask);
 1487              		.loc 1 1812 0
 1488 001c 0419     		adds	r4, r0, r4
 1489              	.LVL186:
 1490 001e 2278     		ldrb	r2, [r4]
 1491              	.LVL187:
 1492 0020 9A43     		bics	r2, r3
 1493 0022 2270     		strb	r2, [r4]
 1494              	.LVL188:
 1495              	.L85:
1813:Generated_Source\PSoC4/CapSense.c ****     }
1814:Generated_Source\PSoC4/CapSense.c **** }
 1496              		.loc 1 1814 0
 1497              		@ sp needed
 1498 0024 10BD     		pop	{r4, pc}
 1499              		.cfi_endproc
 1500              	.LFE58:
 1501              		.size	CapSense_SetBitValue, .-CapSense_SetBitValue
 1502 0026 C046     		.section	.text.CapSense_ScanWidget,"ax",%progbits
 1503              		.align	2
 1504              		.global	CapSense_ScanWidget
 1505              		.code	16
 1506              		.thumb_func
 1507              		.type	CapSense_ScanWidget, %function
 1508              	CapSense_ScanWidget:
ARM GAS  C:\Users\SHOZO\AppData\Local\Temp\ccvk6Xs5.s 			page 61


 1509              	.LFB39:
 616:Generated_Source\PSoC4/CapSense.c ****     uint32 sensorsPerWidget;
 1510              		.loc 1 616 0
 1511              		.cfi_startproc
 1512              		@ args = 0, pretend = 0, frame = 0
 1513              		@ frame_needed = 0, uses_anonymous_args = 0
 1514              	.LVL189:
 1515 0000 70B5     		push	{r4, r5, r6, lr}
 1516              		.cfi_def_cfa_offset 16
 1517              		.cfi_offset 4, -16
 1518              		.cfi_offset 5, -12
 1519              		.cfi_offset 6, -8
 1520              		.cfi_offset 14, -4
 622:Generated_Source\PSoC4/CapSense.c **** 
 1521              		.loc 1 622 0
 1522 0002 1D4B     		ldr	r3, .L98
 1523 0004 1D5C     		ldrb	r5, [r3, r0]
 1524 0006 1D4B     		ldr	r3, .L98+4
 1525 0008 1D77     		strb	r5, [r3, #28]
 625:Generated_Source\PSoC4/CapSense.c **** 
 1526              		.loc 1 625 0
 1527 000a 1D4B     		ldr	r3, .L98+8
 1528 000c 1B5C     		ldrb	r3, [r3, r0]
 1529              	.LVL190:
 628:Generated_Source\PSoC4/CapSense.c ****     {
 1530              		.loc 1 628 0
 1531 000e 002B     		cmp	r3, #0
 1532 0010 00D1     		bne	.L89
 630:Generated_Source\PSoC4/CapSense.c ****     }
 1533              		.loc 1 630 0
 1534 0012 0133     		adds	r3, r3, #1
 1535              	.LVL191:
 1536              	.L89:
 634:Generated_Source\PSoC4/CapSense.c **** 
 1537              		.loc 1 634 0
 1538 0014 ED18     		adds	r5, r5, r3
 1539 0016 013D     		subs	r5, r5, #1
 1540              	.LVL192:
 637:Generated_Source\PSoC4/CapSense.c ****     {
 1541              		.loc 1 637 0
 1542 0018 0023     		movs	r3, #0
 1543              	.LVL193:
 1544 001a 05E0     		b	.L90
 1545              	.LVL194:
 1546              	.L91:
 640:Generated_Source\PSoC4/CapSense.c ****     }
 1547              		.loc 1 640 0 discriminator 3
 1548 001c 194A     		ldr	r2, .L98+12
 1549 001e D218     		adds	r2, r2, r3
 1550 0020 1179     		ldrb	r1, [r2, #4]
 1551 0022 194A     		ldr	r2, .L98+16
 1552 0024 D154     		strb	r1, [r2, r3]
 637:Generated_Source\PSoC4/CapSense.c ****     {
 1553              		.loc 1 637 0 discriminator 3
 1554 0026 0133     		adds	r3, r3, #1
 1555              	.LVL195:
 1556              	.L90:
ARM GAS  C:\Users\SHOZO\AppData\Local\Temp\ccvk6Xs5.s 			page 62


 637:Generated_Source\PSoC4/CapSense.c ****     {
 1557              		.loc 1 637 0 is_stmt 0 discriminator 1
 1558 0028 012B     		cmp	r3, #1
 1559 002a F7D9     		bls	.L91
 1560 002c 0024     		movs	r4, #0
 1561 002e 14E0     		b	.L92
 1562              	.LVL196:
 1563              	.L95:
 647:Generated_Source\PSoC4/CapSense.c ****         {
 1564              		.loc 1 647 0 is_stmt 1
 1565 0030 124B     		ldr	r3, .L98+4
 1566 0032 1B7F     		ldrb	r3, [r3, #28]
 1567 0034 DBB2     		uxtb	r3, r3
 1568 0036 9C42     		cmp	r4, r3
 1569 0038 08D3     		bcc	.L93
 647:Generated_Source\PSoC4/CapSense.c ****         {
 1570              		.loc 1 647 0 is_stmt 0 discriminator 1
 1571 003a AC42     		cmp	r4, r5
 1572 003c 06D8     		bhi	.L93
 650:Generated_Source\PSoC4/CapSense.c ****         }
 1573              		.loc 1 650 0 is_stmt 1
 1574 003e 0122     		movs	r2, #1
 1575 0040 2100     		movs	r1, r4
 1576 0042 1048     		ldr	r0, .L98+12
 1577 0044 0430     		adds	r0, r0, #4
 1578 0046 FFF7FEFF 		bl	CapSense_SetBitValue
 1579              	.LVL197:
 1580 004a 05E0     		b	.L94
 1581              	.L93:
 655:Generated_Source\PSoC4/CapSense.c ****         }
 1582              		.loc 1 655 0
 1583 004c 0022     		movs	r2, #0
 1584 004e 2100     		movs	r1, r4
 1585 0050 0C48     		ldr	r0, .L98+12
 1586 0052 0430     		adds	r0, r0, #4
 1587 0054 FFF7FEFF 		bl	CapSense_SetBitValue
 1588              	.LVL198:
 1589              	.L94:
 644:Generated_Source\PSoC4/CapSense.c ****     {
 1590              		.loc 1 644 0 discriminator 2
 1591 0058 0134     		adds	r4, r4, #1
 1592              	.LVL199:
 1593              	.L92:
 644:Generated_Source\PSoC4/CapSense.c ****     {
 1594              		.loc 1 644 0 is_stmt 0 discriminator 1
 1595 005a 0B2C     		cmp	r4, #11
 1596 005c E8D9     		bls	.L95
 660:Generated_Source\PSoC4/CapSense.c ****     {
 1597              		.loc 1 660 0 is_stmt 1
 1598 005e 074B     		ldr	r3, .L98+4
 1599 0060 1B7F     		ldrb	r3, [r3, #28]
 1600 0062 DBB2     		uxtb	r3, r3
 1601 0064 0B2B     		cmp	r3, #11
 1602 0066 06D8     		bhi	.L88
 663:Generated_Source\PSoC4/CapSense.c ****         /* Scan first sensor of widget*/
 1603              		.loc 1 663 0
 1604 0068 044B     		ldr	r3, .L98+4
ARM GAS  C:\Users\SHOZO\AppData\Local\Temp\ccvk6Xs5.s 			page 63


 1605 006a 4122     		movs	r2, #65
 1606 006c 1A70     		strb	r2, [r3]
 665:Generated_Source\PSoC4/CapSense.c ****     }
 1607              		.loc 1 665 0
 1608 006e 187F     		ldrb	r0, [r3, #28]
 1609 0070 C0B2     		uxtb	r0, r0
 1610 0072 FFF7FEFF 		bl	CapSense_PreScan
 1611              	.LVL200:
 1612              	.L88:
 667:Generated_Source\PSoC4/CapSense.c **** #endif /* (0u != CapSense_CSHL_API_GENERATE) */
 1613              		.loc 1 667 0
 1614              		@ sp needed
 1615              	.LVL201:
 1616              	.LVL202:
 1617 0076 70BD     		pop	{r4, r5, r6, pc}
 1618              	.L99:
 1619              		.align	2
 1620              	.L98:
 1621 0078 00000000 		.word	CapSense_rawDataIndex
 1622 007c 00000000 		.word	.LANCHOR0
 1623 0080 00000000 		.word	CapSense_numberOfSensors
 1624 0084 00000000 		.word	.LANCHOR1
 1625 0088 00000000 		.word	CapSense_sensorEnableMaskBackup
 1626              		.cfi_endproc
 1627              	.LFE39:
 1628              		.size	CapSense_ScanWidget, .-CapSense_ScanWidget
 1629              		.section	.text.CapSense_GetSenseClkDivider,"ax",%progbits
 1630              		.align	2
 1631              		.global	CapSense_GetSenseClkDivider
 1632              		.code	16
 1633              		.thumb_func
 1634              		.type	CapSense_GetSenseClkDivider, %function
 1635              	CapSense_GetSenseClkDivider:
 1636              	.LFB59:
1815:Generated_Source\PSoC4/CapSense.c **** 
1816:Generated_Source\PSoC4/CapSense.c **** 
1817:Generated_Source\PSoC4/CapSense.c **** 
1818:Generated_Source\PSoC4/CapSense.c **** /*******************************************************************************
1819:Generated_Source\PSoC4/CapSense.c **** * Function Name: CapSense_GetSenseClkDivider
1820:Generated_Source\PSoC4/CapSense.c **** ********************************************************************************
1821:Generated_Source\PSoC4/CapSense.c **** *
1822:Generated_Source\PSoC4/CapSense.c **** * Summary:
1823:Generated_Source\PSoC4/CapSense.c **** *  This API returns a value of the sense clock divider for the  sensor.
1824:Generated_Source\PSoC4/CapSense.c **** *
1825:Generated_Source\PSoC4/CapSense.c **** * Parameters:
1826:Generated_Source\PSoC4/CapSense.c **** *  sensor: sensor index. The index value can be
1827:Generated_Source\PSoC4/CapSense.c **** *  from 0 to (CapSense_TOTAL_SENSOR_COUNT-1).
1828:Generated_Source\PSoC4/CapSense.c **** *
1829:Generated_Source\PSoC4/CapSense.c **** * Return:
1830:Generated_Source\PSoC4/CapSense.c **** *  This API returns the sense clock divider of the sensor.
1831:Generated_Source\PSoC4/CapSense.c **** *
1832:Generated_Source\PSoC4/CapSense.c **** * Global Variables:
1833:Generated_Source\PSoC4/CapSense.c **** *  CapSense_senseClkDividerVal[] - stores the sense clock divider values.
1834:Generated_Source\PSoC4/CapSense.c **** *
1835:Generated_Source\PSoC4/CapSense.c **** * Side Effects:
1836:Generated_Source\PSoC4/CapSense.c **** *  None
1837:Generated_Source\PSoC4/CapSense.c **** *
ARM GAS  C:\Users\SHOZO\AppData\Local\Temp\ccvk6Xs5.s 			page 64


1838:Generated_Source\PSoC4/CapSense.c **** *******************************************************************************/
1839:Generated_Source\PSoC4/CapSense.c **** uint32 CapSense_GetSenseClkDivider(uint32 sensor)
1840:Generated_Source\PSoC4/CapSense.c **** {
 1637              		.loc 1 1840 0
 1638              		.cfi_startproc
 1639              		@ args = 0, pretend = 0, frame = 0
 1640              		@ frame_needed = 0, uses_anonymous_args = 0
 1641              		@ link register save eliminated.
 1642              	.LVL203:
1841:Generated_Source\PSoC4/CapSense.c ****     #if(0u != CapSense_MULTIPLE_FREQUENCY_SET)
1842:Generated_Source\PSoC4/CapSense.c ****         return((uint32)CapSense_senseClkDividerVal[sensor]);
 1643              		.loc 1 1842 0
 1644 0000 014B     		ldr	r3, .L101
 1645 0002 185C     		ldrb	r0, [r3, r0]
 1646              	.LVL204:
1843:Generated_Source\PSoC4/CapSense.c ****     #else
1844:Generated_Source\PSoC4/CapSense.c ****         return((uint32)CapSense_senseClkDividerVal);
1845:Generated_Source\PSoC4/CapSense.c ****     #endif /* (0u != CapSense_MULTIPLE_FREQUENCY_SET) */
1846:Generated_Source\PSoC4/CapSense.c **** }
 1647              		.loc 1 1846 0
 1648              		@ sp needed
 1649 0004 7047     		bx	lr
 1650              	.L102:
 1651 0006 C046     		.align	2
 1652              	.L101:
 1653 0008 00000000 		.word	CapSense_senseClkDividerVal
 1654              		.cfi_endproc
 1655              	.LFE59:
 1656              		.size	CapSense_GetSenseClkDivider, .-CapSense_GetSenseClkDivider
 1657              		.section	.text.CapSense_SetSenseClkDivider,"ax",%progbits
 1658              		.align	2
 1659              		.global	CapSense_SetSenseClkDivider
 1660              		.code	16
 1661              		.thumb_func
 1662              		.type	CapSense_SetSenseClkDivider, %function
 1663              	CapSense_SetSenseClkDivider:
 1664              	.LFB60:
1847:Generated_Source\PSoC4/CapSense.c **** 
1848:Generated_Source\PSoC4/CapSense.c **** #if (CapSense_TUNING_METHOD != CapSense__TUNING_NONE)
1849:Generated_Source\PSoC4/CapSense.c ****     /*******************************************************************************
1850:Generated_Source\PSoC4/CapSense.c ****     * Function Name: CapSense_SetSenseClkDivider
1851:Generated_Source\PSoC4/CapSense.c ****     ********************************************************************************
1852:Generated_Source\PSoC4/CapSense.c ****     *
1853:Generated_Source\PSoC4/CapSense.c ****     * Summary:
1854:Generated_Source\PSoC4/CapSense.c ****     *  This API sets a value of the sense clock divider for the  sensor.
1855:Generated_Source\PSoC4/CapSense.c ****     *
1856:Generated_Source\PSoC4/CapSense.c ****     * Parameters:
1857:Generated_Source\PSoC4/CapSense.c ****     *  sensor:  Sensor index.
1858:Generated_Source\PSoC4/CapSense.c ****     *  senseClk: represents the sense clock value.
1859:Generated_Source\PSoC4/CapSense.c ****     *
1860:Generated_Source\PSoC4/CapSense.c ****     * Return:
1861:Generated_Source\PSoC4/CapSense.c ****     *  None.
1862:Generated_Source\PSoC4/CapSense.c ****     *
1863:Generated_Source\PSoC4/CapSense.c ****     * Global Variables:
1864:Generated_Source\PSoC4/CapSense.c ****     *  CapSense_senseClkDividerVal[] - stores the sense clock divider values.
1865:Generated_Source\PSoC4/CapSense.c ****     *
1866:Generated_Source\PSoC4/CapSense.c ****     * Side Effects:
ARM GAS  C:\Users\SHOZO\AppData\Local\Temp\ccvk6Xs5.s 			page 65


1867:Generated_Source\PSoC4/CapSense.c ****     *  None
1868:Generated_Source\PSoC4/CapSense.c ****     *
1869:Generated_Source\PSoC4/CapSense.c ****     *******************************************************************************/
1870:Generated_Source\PSoC4/CapSense.c ****     void CapSense_SetSenseClkDivider(uint32 sensor, uint32 senseClk)
1871:Generated_Source\PSoC4/CapSense.c ****     {
 1665              		.loc 1 1871 0
 1666              		.cfi_startproc
 1667              		@ args = 0, pretend = 0, frame = 0
 1668              		@ frame_needed = 0, uses_anonymous_args = 0
 1669              		@ link register save eliminated.
 1670              	.LVL205:
1872:Generated_Source\PSoC4/CapSense.c ****         #if(0u != CapSense_MULTIPLE_FREQUENCY_SET)
1873:Generated_Source\PSoC4/CapSense.c ****             CapSense_senseClkDividerVal[sensor] = (uint8)senseClk;
 1671              		.loc 1 1873 0
 1672 0000 014B     		ldr	r3, .L104
 1673 0002 1954     		strb	r1, [r3, r0]
1874:Generated_Source\PSoC4/CapSense.c ****         #else
1875:Generated_Source\PSoC4/CapSense.c ****             CapSense_senseClkDividerVal = (uint8)senseClk;
1876:Generated_Source\PSoC4/CapSense.c ****         #endif /* (0u != CapSense_MULTIPLE_FREQUENCY_SET) */
1877:Generated_Source\PSoC4/CapSense.c ****     }
 1674              		.loc 1 1877 0
 1675              		@ sp needed
 1676 0004 7047     		bx	lr
 1677              	.L105:
 1678 0006 C046     		.align	2
 1679              	.L104:
 1680 0008 00000000 		.word	CapSense_senseClkDividerVal
 1681              		.cfi_endproc
 1682              	.LFE60:
 1683              		.size	CapSense_SetSenseClkDivider, .-CapSense_SetSenseClkDivider
 1684              		.section	.text.CapSense_GetModulatorClkDivider,"ax",%progbits
 1685              		.align	2
 1686              		.global	CapSense_GetModulatorClkDivider
 1687              		.code	16
 1688              		.thumb_func
 1689              		.type	CapSense_GetModulatorClkDivider, %function
 1690              	CapSense_GetModulatorClkDivider:
 1691              	.LFB61:
1878:Generated_Source\PSoC4/CapSense.c **** #endif /* (CapSense_TUNING_METHOD != CapSense__TUNING_NONE) */
1879:Generated_Source\PSoC4/CapSense.c **** 
1880:Generated_Source\PSoC4/CapSense.c **** 
1881:Generated_Source\PSoC4/CapSense.c **** /*******************************************************************************
1882:Generated_Source\PSoC4/CapSense.c **** * Function Name: CapSense_GetModulatorClkDivider
1883:Generated_Source\PSoC4/CapSense.c **** ********************************************************************************
1884:Generated_Source\PSoC4/CapSense.c **** *
1885:Generated_Source\PSoC4/CapSense.c **** * Summary:
1886:Generated_Source\PSoC4/CapSense.c **** *  This API returns a value of the modulator sample clock divider for the  sensor.
1887:Generated_Source\PSoC4/CapSense.c **** *
1888:Generated_Source\PSoC4/CapSense.c **** * Parameters:
1889:Generated_Source\PSoC4/CapSense.c **** *  sensor: sensor index. The value of index can be
1890:Generated_Source\PSoC4/CapSense.c **** *  from 0 to (CapSense_TOTAL_SENSOR_COUNT-1).
1891:Generated_Source\PSoC4/CapSense.c **** *
1892:Generated_Source\PSoC4/CapSense.c **** * Return:
1893:Generated_Source\PSoC4/CapSense.c **** *  This API returns the modulator sample clock divider for the  sensor.
1894:Generated_Source\PSoC4/CapSense.c **** *
1895:Generated_Source\PSoC4/CapSense.c **** * Global Variables:
1896:Generated_Source\PSoC4/CapSense.c **** *  CapSense_sampleClkDividerVal[] - stores the modulator sample divider values.
ARM GAS  C:\Users\SHOZO\AppData\Local\Temp\ccvk6Xs5.s 			page 66


1897:Generated_Source\PSoC4/CapSense.c **** *
1898:Generated_Source\PSoC4/CapSense.c **** * Side Effects:
1899:Generated_Source\PSoC4/CapSense.c **** *  None
1900:Generated_Source\PSoC4/CapSense.c **** *
1901:Generated_Source\PSoC4/CapSense.c **** *******************************************************************************/
1902:Generated_Source\PSoC4/CapSense.c **** uint32 CapSense_GetModulatorClkDivider(uint32 sensor)
1903:Generated_Source\PSoC4/CapSense.c **** {
 1692              		.loc 1 1903 0
 1693              		.cfi_startproc
 1694              		@ args = 0, pretend = 0, frame = 0
 1695              		@ frame_needed = 0, uses_anonymous_args = 0
 1696              		@ link register save eliminated.
 1697              	.LVL206:
1904:Generated_Source\PSoC4/CapSense.c ****     #if(0u != CapSense_MULTIPLE_FREQUENCY_SET)
1905:Generated_Source\PSoC4/CapSense.c ****         return((uint32)CapSense_sampleClkDividerVal[sensor]);
 1698              		.loc 1 1905 0
 1699 0000 014B     		ldr	r3, .L107
 1700 0002 185C     		ldrb	r0, [r3, r0]
 1701              	.LVL207:
1906:Generated_Source\PSoC4/CapSense.c ****     #else
1907:Generated_Source\PSoC4/CapSense.c ****         return((uint32)CapSense_sampleClkDividerVal);
1908:Generated_Source\PSoC4/CapSense.c ****     #endif /* (0u != CapSense_MULTIPLE_FREQUENCY_SET) */
1909:Generated_Source\PSoC4/CapSense.c **** }
 1702              		.loc 1 1909 0
 1703              		@ sp needed
 1704 0004 7047     		bx	lr
 1705              	.L108:
 1706 0006 C046     		.align	2
 1707              	.L107:
 1708 0008 00000000 		.word	CapSense_sampleClkDividerVal
 1709              		.cfi_endproc
 1710              	.LFE61:
 1711              		.size	CapSense_GetModulatorClkDivider, .-CapSense_GetModulatorClkDivider
 1712              		.section	.text.CapSense_SetModulatorClkDivider,"ax",%progbits
 1713              		.align	2
 1714              		.global	CapSense_SetModulatorClkDivider
 1715              		.code	16
 1716              		.thumb_func
 1717              		.type	CapSense_SetModulatorClkDivider, %function
 1718              	CapSense_SetModulatorClkDivider:
 1719              	.LFB62:
1910:Generated_Source\PSoC4/CapSense.c **** 
1911:Generated_Source\PSoC4/CapSense.c **** #if (CapSense_TUNING_METHOD != CapSense__TUNING_NONE)
1912:Generated_Source\PSoC4/CapSense.c ****     /*******************************************************************************
1913:Generated_Source\PSoC4/CapSense.c ****     * Function Name: CapSense_SetModulatorClkDivider
1914:Generated_Source\PSoC4/CapSense.c ****     ********************************************************************************
1915:Generated_Source\PSoC4/CapSense.c ****     *
1916:Generated_Source\PSoC4/CapSense.c ****     * Summary:
1917:Generated_Source\PSoC4/CapSense.c ****     *  This API sets a value of the modulator sample clock divider for the  sensor.
1918:Generated_Source\PSoC4/CapSense.c ****     *
1919:Generated_Source\PSoC4/CapSense.c ****     * Parameters:
1920:Generated_Source\PSoC4/CapSense.c ****     *  sensor:  Sensor index.
1921:Generated_Source\PSoC4/CapSense.c ****     *  modulatorClk: represents the modulator sample clock value.
1922:Generated_Source\PSoC4/CapSense.c ****     *
1923:Generated_Source\PSoC4/CapSense.c ****     * Return:
1924:Generated_Source\PSoC4/CapSense.c ****     *  None.
1925:Generated_Source\PSoC4/CapSense.c ****     *
ARM GAS  C:\Users\SHOZO\AppData\Local\Temp\ccvk6Xs5.s 			page 67


1926:Generated_Source\PSoC4/CapSense.c ****     * Global Variables:
1927:Generated_Source\PSoC4/CapSense.c ****     *  CapSense_sampleClkDividerVal[] - stores the modulator sample divider values.
1928:Generated_Source\PSoC4/CapSense.c ****     *
1929:Generated_Source\PSoC4/CapSense.c ****     * Side Effects:
1930:Generated_Source\PSoC4/CapSense.c ****     *  None
1931:Generated_Source\PSoC4/CapSense.c ****     *
1932:Generated_Source\PSoC4/CapSense.c ****     *******************************************************************************/
1933:Generated_Source\PSoC4/CapSense.c ****     void CapSense_SetModulatorClkDivider(uint32 sensor, uint32 modulatorClk)
1934:Generated_Source\PSoC4/CapSense.c ****     {
 1720              		.loc 1 1934 0
 1721              		.cfi_startproc
 1722              		@ args = 0, pretend = 0, frame = 0
 1723              		@ frame_needed = 0, uses_anonymous_args = 0
 1724              		@ link register save eliminated.
 1725              	.LVL208:
1935:Generated_Source\PSoC4/CapSense.c ****         #if(0u != CapSense_MULTIPLE_FREQUENCY_SET)
1936:Generated_Source\PSoC4/CapSense.c ****             CapSense_sampleClkDividerVal[sensor] = (uint8)modulatorClk;
 1726              		.loc 1 1936 0
 1727 0000 014B     		ldr	r3, .L110
 1728 0002 1954     		strb	r1, [r3, r0]
1937:Generated_Source\PSoC4/CapSense.c ****         #else
1938:Generated_Source\PSoC4/CapSense.c ****             CapSense_sampleClkDividerVal = (uint8)modulatorClk;
1939:Generated_Source\PSoC4/CapSense.c ****         #endif /* (0u != CapSense_MULTIPLE_FREQUENCY_SET) */
1940:Generated_Source\PSoC4/CapSense.c ****     }
 1729              		.loc 1 1940 0
 1730              		@ sp needed
 1731 0004 7047     		bx	lr
 1732              	.L111:
 1733 0006 C046     		.align	2
 1734              	.L110:
 1735 0008 00000000 		.word	CapSense_sampleClkDividerVal
 1736              		.cfi_endproc
 1737              	.LFE62:
 1738              		.size	CapSense_SetModulatorClkDivider, .-CapSense_SetModulatorClkDivider
 1739              		.section	.text.CapSense_GetModulationIDAC,"ax",%progbits
 1740              		.align	2
 1741              		.global	CapSense_GetModulationIDAC
 1742              		.code	16
 1743              		.thumb_func
 1744              		.type	CapSense_GetModulationIDAC, %function
 1745              	CapSense_GetModulationIDAC:
 1746              	.LFB63:
1941:Generated_Source\PSoC4/CapSense.c **** #endif /* (CapSense_TUNING_METHOD != CapSense__TUNING_NONE) */
1942:Generated_Source\PSoC4/CapSense.c **** 
1943:Generated_Source\PSoC4/CapSense.c **** /*******************************************************************************
1944:Generated_Source\PSoC4/CapSense.c **** * Function Name: CapSense_GetModulationIDAC
1945:Generated_Source\PSoC4/CapSense.c **** ********************************************************************************
1946:Generated_Source\PSoC4/CapSense.c **** *
1947:Generated_Source\PSoC4/CapSense.c **** * Summary:
1948:Generated_Source\PSoC4/CapSense.c **** *  This API returns a value of the modulation IDAC for the  sensor.
1949:Generated_Source\PSoC4/CapSense.c **** *
1950:Generated_Source\PSoC4/CapSense.c **** * Parameters:
1951:Generated_Source\PSoC4/CapSense.c **** *  sensor: sensor index. The index value can be
1952:Generated_Source\PSoC4/CapSense.c **** *  from 0 to (CapSense_TOTAL_SENSOR_COUNT-1).
1953:Generated_Source\PSoC4/CapSense.c **** *
1954:Generated_Source\PSoC4/CapSense.c **** * Return:
1955:Generated_Source\PSoC4/CapSense.c **** *  This API returns the modulation IDAC of the sensor.
ARM GAS  C:\Users\SHOZO\AppData\Local\Temp\ccvk6Xs5.s 			page 68


1956:Generated_Source\PSoC4/CapSense.c **** *
1957:Generated_Source\PSoC4/CapSense.c **** * Global Variables:
1958:Generated_Source\PSoC4/CapSense.c **** *  CapSense_modulationIDAC[] - stores modulation IDAC values.
1959:Generated_Source\PSoC4/CapSense.c **** *
1960:Generated_Source\PSoC4/CapSense.c **** * Side Effects:
1961:Generated_Source\PSoC4/CapSense.c **** *  None
1962:Generated_Source\PSoC4/CapSense.c **** *
1963:Generated_Source\PSoC4/CapSense.c **** *******************************************************************************/
1964:Generated_Source\PSoC4/CapSense.c **** uint32 CapSense_GetModulationIDAC(uint32 sensor)
1965:Generated_Source\PSoC4/CapSense.c **** {
 1747              		.loc 1 1965 0
 1748              		.cfi_startproc
 1749              		@ args = 0, pretend = 0, frame = 0
 1750              		@ frame_needed = 0, uses_anonymous_args = 0
 1751              		@ link register save eliminated.
 1752              	.LVL209:
1966:Generated_Source\PSoC4/CapSense.c ****         return((uint32)CapSense_modulationIDAC[sensor]);
 1753              		.loc 1 1966 0
 1754 0000 014B     		ldr	r3, .L113
 1755 0002 185C     		ldrb	r0, [r3, r0]
 1756              	.LVL210:
1967:Generated_Source\PSoC4/CapSense.c **** }
 1757              		.loc 1 1967 0
 1758              		@ sp needed
 1759 0004 7047     		bx	lr
 1760              	.L114:
 1761 0006 C046     		.align	2
 1762              	.L113:
 1763 0008 00000000 		.word	CapSense_modulationIDAC
 1764              		.cfi_endproc
 1765              	.LFE63:
 1766              		.size	CapSense_GetModulationIDAC, .-CapSense_GetModulationIDAC
 1767              		.section	.text.CapSense_SetModulationIDAC,"ax",%progbits
 1768              		.align	2
 1769              		.global	CapSense_SetModulationIDAC
 1770              		.code	16
 1771              		.thumb_func
 1772              		.type	CapSense_SetModulationIDAC, %function
 1773              	CapSense_SetModulationIDAC:
 1774              	.LFB64:
1968:Generated_Source\PSoC4/CapSense.c **** 
1969:Generated_Source\PSoC4/CapSense.c **** #if (CapSense_TUNING_METHOD != CapSense__TUNING_NONE)
1970:Generated_Source\PSoC4/CapSense.c ****     /*******************************************************************************
1971:Generated_Source\PSoC4/CapSense.c ****     * Function Name: CapSense_SetModulationIDAC
1972:Generated_Source\PSoC4/CapSense.c ****     ********************************************************************************
1973:Generated_Source\PSoC4/CapSense.c ****     *
1974:Generated_Source\PSoC4/CapSense.c ****     * Summary:
1975:Generated_Source\PSoC4/CapSense.c ****     *  This API sets a value of the modulation IDAC for the  sensor.
1976:Generated_Source\PSoC4/CapSense.c ****     *
1977:Generated_Source\PSoC4/CapSense.c ****     * Parameters:
1978:Generated_Source\PSoC4/CapSense.c ****     *  sensor:  Sensor index.
1979:Generated_Source\PSoC4/CapSense.c ****     *  compIdacValue: represents the modulation IDAC data register value.
1980:Generated_Source\PSoC4/CapSense.c ****     *
1981:Generated_Source\PSoC4/CapSense.c ****     * Return:
1982:Generated_Source\PSoC4/CapSense.c ****     *  None.
1983:Generated_Source\PSoC4/CapSense.c ****     *
1984:Generated_Source\PSoC4/CapSense.c ****     * Global Variables:
ARM GAS  C:\Users\SHOZO\AppData\Local\Temp\ccvk6Xs5.s 			page 69


1985:Generated_Source\PSoC4/CapSense.c ****     *  CapSense_modulationIDAC[] - array with modulation IDAC values
1986:Generated_Source\PSoC4/CapSense.c ****     *
1987:Generated_Source\PSoC4/CapSense.c ****     * Side Effects:
1988:Generated_Source\PSoC4/CapSense.c ****     *  None
1989:Generated_Source\PSoC4/CapSense.c ****     *
1990:Generated_Source\PSoC4/CapSense.c ****     *******************************************************************************/
1991:Generated_Source\PSoC4/CapSense.c ****     void CapSense_SetModulationIDAC(uint32 sensor, uint32 modIdacValue)
1992:Generated_Source\PSoC4/CapSense.c ****     {
 1775              		.loc 1 1992 0
 1776              		.cfi_startproc
 1777              		@ args = 0, pretend = 0, frame = 0
 1778              		@ frame_needed = 0, uses_anonymous_args = 0
 1779              		@ link register save eliminated.
 1780              	.LVL211:
1993:Generated_Source\PSoC4/CapSense.c ****         CapSense_modulationIDAC[sensor] = (uint8)modIdacValue;
 1781              		.loc 1 1993 0
 1782 0000 014B     		ldr	r3, .L116
 1783 0002 1954     		strb	r1, [r3, r0]
1994:Generated_Source\PSoC4/CapSense.c ****     }
 1784              		.loc 1 1994 0
 1785              		@ sp needed
 1786 0004 7047     		bx	lr
 1787              	.L117:
 1788 0006 C046     		.align	2
 1789              	.L116:
 1790 0008 00000000 		.word	CapSense_modulationIDAC
 1791              		.cfi_endproc
 1792              	.LFE64:
 1793              		.size	CapSense_SetModulationIDAC, .-CapSense_SetModulationIDAC
 1794              		.section	.text.CapSense_GetCompensationIDAC,"ax",%progbits
 1795              		.align	2
 1796              		.global	CapSense_GetCompensationIDAC
 1797              		.code	16
 1798              		.thumb_func
 1799              		.type	CapSense_GetCompensationIDAC, %function
 1800              	CapSense_GetCompensationIDAC:
 1801              	.LFB65:
1995:Generated_Source\PSoC4/CapSense.c **** #endif /* (CapSense_TUNING_METHOD != CapSense__TUNING_NONE) */
1996:Generated_Source\PSoC4/CapSense.c **** 
1997:Generated_Source\PSoC4/CapSense.c **** 
1998:Generated_Source\PSoC4/CapSense.c **** #if(CapSense_IDAC_CNT > 1u)
1999:Generated_Source\PSoC4/CapSense.c ****     /*******************************************************************************
2000:Generated_Source\PSoC4/CapSense.c ****     * Function Name: CapSense_GetCompensationIDAC
2001:Generated_Source\PSoC4/CapSense.c ****     ********************************************************************************
2002:Generated_Source\PSoC4/CapSense.c ****     *
2003:Generated_Source\PSoC4/CapSense.c ****     * Summary:
2004:Generated_Source\PSoC4/CapSense.c ****     *  This API returns a value of the compensation IDAC for the  sensor.
2005:Generated_Source\PSoC4/CapSense.c ****     *
2006:Generated_Source\PSoC4/CapSense.c ****     * Parameters:
2007:Generated_Source\PSoC4/CapSense.c ****     *  sensor: sensor index. The index value can be
2008:Generated_Source\PSoC4/CapSense.c ****     *  from 0 to (CapSense_TOTAL_SENSOR_COUNT-1).
2009:Generated_Source\PSoC4/CapSense.c ****     *
2010:Generated_Source\PSoC4/CapSense.c ****     * Return:
2011:Generated_Source\PSoC4/CapSense.c ****     *  This API returns the compensation IDAC of the sensor.
2012:Generated_Source\PSoC4/CapSense.c ****     *
2013:Generated_Source\PSoC4/CapSense.c ****     * Global Variables:
2014:Generated_Source\PSoC4/CapSense.c ****     *  CapSense_compensationIDAC[] - stores the compensation IDAC values.
ARM GAS  C:\Users\SHOZO\AppData\Local\Temp\ccvk6Xs5.s 			page 70


2015:Generated_Source\PSoC4/CapSense.c ****     *
2016:Generated_Source\PSoC4/CapSense.c ****     * Side Effects:
2017:Generated_Source\PSoC4/CapSense.c ****     *  None
2018:Generated_Source\PSoC4/CapSense.c ****     *
2019:Generated_Source\PSoC4/CapSense.c ****     *******************************************************************************/
2020:Generated_Source\PSoC4/CapSense.c ****     uint32 CapSense_GetCompensationIDAC(uint32 sensor)
2021:Generated_Source\PSoC4/CapSense.c ****     {
 1802              		.loc 1 2021 0
 1803              		.cfi_startproc
 1804              		@ args = 0, pretend = 0, frame = 0
 1805              		@ frame_needed = 0, uses_anonymous_args = 0
 1806              		@ link register save eliminated.
 1807              	.LVL212:
2022:Generated_Source\PSoC4/CapSense.c ****         return((uint32)CapSense_compensationIDAC[sensor]);
 1808              		.loc 1 2022 0
 1809 0000 014B     		ldr	r3, .L119
 1810 0002 185C     		ldrb	r0, [r3, r0]
 1811              	.LVL213:
2023:Generated_Source\PSoC4/CapSense.c ****     }
 1812              		.loc 1 2023 0
 1813              		@ sp needed
 1814 0004 7047     		bx	lr
 1815              	.L120:
 1816 0006 C046     		.align	2
 1817              	.L119:
 1818 0008 00000000 		.word	CapSense_compensationIDAC
 1819              		.cfi_endproc
 1820              	.LFE65:
 1821              		.size	CapSense_GetCompensationIDAC, .-CapSense_GetCompensationIDAC
 1822              		.section	.text.CapSense_SetCompensationIDAC,"ax",%progbits
 1823              		.align	2
 1824              		.global	CapSense_SetCompensationIDAC
 1825              		.code	16
 1826              		.thumb_func
 1827              		.type	CapSense_SetCompensationIDAC, %function
 1828              	CapSense_SetCompensationIDAC:
 1829              	.LFB66:
2024:Generated_Source\PSoC4/CapSense.c **** #endif /* (CapSense_IDAC_CNT > 1u) */
2025:Generated_Source\PSoC4/CapSense.c **** 
2026:Generated_Source\PSoC4/CapSense.c **** 
2027:Generated_Source\PSoC4/CapSense.c **** #if((CapSense_TUNING_METHOD != CapSense__TUNING_NONE) && (CapSense_IDAC_CNT > 1u))
2028:Generated_Source\PSoC4/CapSense.c ****     /*******************************************************************************
2029:Generated_Source\PSoC4/CapSense.c ****     * Function Name: CapSense_SetCompensationIDAC
2030:Generated_Source\PSoC4/CapSense.c ****     ********************************************************************************
2031:Generated_Source\PSoC4/CapSense.c ****     *
2032:Generated_Source\PSoC4/CapSense.c ****     * Summary:
2033:Generated_Source\PSoC4/CapSense.c ****     *  This API sets a value of compensation IDAC for the  sensor.
2034:Generated_Source\PSoC4/CapSense.c ****     *
2035:Generated_Source\PSoC4/CapSense.c ****     * Parameters:
2036:Generated_Source\PSoC4/CapSense.c ****     *  sensor:  Sensor index.
2037:Generated_Source\PSoC4/CapSense.c ****     *  compIdacValue: represents the compensation IDAC data register value.
2038:Generated_Source\PSoC4/CapSense.c ****     *
2039:Generated_Source\PSoC4/CapSense.c ****     * Return:
2040:Generated_Source\PSoC4/CapSense.c ****     *  None.
2041:Generated_Source\PSoC4/CapSense.c ****     *
2042:Generated_Source\PSoC4/CapSense.c ****     * Global Variables:
2043:Generated_Source\PSoC4/CapSense.c ****     *  CapSense_compensationIDAC[] - an array with compensation IDAC values
ARM GAS  C:\Users\SHOZO\AppData\Local\Temp\ccvk6Xs5.s 			page 71


2044:Generated_Source\PSoC4/CapSense.c ****     *
2045:Generated_Source\PSoC4/CapSense.c ****     * Side Effects:
2046:Generated_Source\PSoC4/CapSense.c ****     *  None
2047:Generated_Source\PSoC4/CapSense.c ****     *
2048:Generated_Source\PSoC4/CapSense.c ****     *******************************************************************************/
2049:Generated_Source\PSoC4/CapSense.c ****     void CapSense_SetCompensationIDAC(uint32 sensor, uint32 compIdacValue)
2050:Generated_Source\PSoC4/CapSense.c ****     {
 1830              		.loc 1 2050 0
 1831              		.cfi_startproc
 1832              		@ args = 0, pretend = 0, frame = 0
 1833              		@ frame_needed = 0, uses_anonymous_args = 0
 1834              		@ link register save eliminated.
 1835              	.LVL214:
2051:Generated_Source\PSoC4/CapSense.c ****         CapSense_compensationIDAC[sensor] = (uint8)compIdacValue;
 1836              		.loc 1 2051 0
 1837 0000 014B     		ldr	r3, .L122
 1838 0002 1954     		strb	r1, [r3, r0]
2052:Generated_Source\PSoC4/CapSense.c ****     }
 1839              		.loc 1 2052 0
 1840              		@ sp needed
 1841 0004 7047     		bx	lr
 1842              	.L123:
 1843 0006 C046     		.align	2
 1844              	.L122:
 1845 0008 00000000 		.word	CapSense_compensationIDAC
 1846              		.cfi_endproc
 1847              	.LFE66:
 1848              		.size	CapSense_SetCompensationIDAC, .-CapSense_SetCompensationIDAC
 1849              		.section	.text.CapSense_GetIDACRange,"ax",%progbits
 1850              		.align	2
 1851              		.global	CapSense_GetIDACRange
 1852              		.code	16
 1853              		.thumb_func
 1854              		.type	CapSense_GetIDACRange, %function
 1855              	CapSense_GetIDACRange:
 1856              	.LFB67:
2053:Generated_Source\PSoC4/CapSense.c **** #endif /* ((CapSense_TUNING_METHOD != CapSense__TUNING_NONE) && (CapSense_IDAC_CNT > 1u)) */
2054:Generated_Source\PSoC4/CapSense.c **** 
2055:Generated_Source\PSoC4/CapSense.c **** /*******************************************************************************
2056:Generated_Source\PSoC4/CapSense.c **** * Function Name: CapSense_GetIDACRange
2057:Generated_Source\PSoC4/CapSense.c **** ********************************************************************************
2058:Generated_Source\PSoC4/CapSense.c **** *
2059:Generated_Source\PSoC4/CapSense.c **** * Summary:
2060:Generated_Source\PSoC4/CapSense.c **** *  This API returns a value that indicates the IDAC range used by the
2061:Generated_Source\PSoC4/CapSense.c **** *  component to scan sensors. The IDAC range is common for all the sensors.
2062:Generated_Source\PSoC4/CapSense.c **** *
2063:Generated_Source\PSoC4/CapSense.c **** * Parameters:
2064:Generated_Source\PSoC4/CapSense.c **** *  None
2065:Generated_Source\PSoC4/CapSense.c **** *
2066:Generated_Source\PSoC4/CapSense.c **** * Return:
2067:Generated_Source\PSoC4/CapSense.c **** *  This API Returns a value that indicates the IDAC range:
2068:Generated_Source\PSoC4/CapSense.c **** *      0 - IDAC range set to 4x
2069:Generated_Source\PSoC4/CapSense.c **** *      1 - IDAC range set to 8x
2070:Generated_Source\PSoC4/CapSense.c **** *
2071:Generated_Source\PSoC4/CapSense.c **** * Global Variables:
2072:Generated_Source\PSoC4/CapSense.c **** *  None
2073:Generated_Source\PSoC4/CapSense.c **** *
ARM GAS  C:\Users\SHOZO\AppData\Local\Temp\ccvk6Xs5.s 			page 72


2074:Generated_Source\PSoC4/CapSense.c **** * Side Effects:
2075:Generated_Source\PSoC4/CapSense.c **** *  None
2076:Generated_Source\PSoC4/CapSense.c **** *
2077:Generated_Source\PSoC4/CapSense.c **** *******************************************************************************/
2078:Generated_Source\PSoC4/CapSense.c **** uint32 CapSense_GetIDACRange(void)
2079:Generated_Source\PSoC4/CapSense.c **** {
 1857              		.loc 1 2079 0
 1858              		.cfi_startproc
 1859              		@ args = 0, pretend = 0, frame = 0
 1860              		@ frame_needed = 0, uses_anonymous_args = 0
 1861              		@ link register save eliminated.
2080:Generated_Source\PSoC4/CapSense.c ****     return((0u != (CapSense_CSD_IDAC_REG & CapSense_CSD_IDAC1_RANGE_8X)) ? 1uL : 0uL);
 1862              		.loc 1 2080 0
 1863 0000 034B     		ldr	r3, .L126
 1864 0002 1868     		ldr	r0, [r3]
 1865 0004 8023     		movs	r3, #128
 1866 0006 DB00     		lsls	r3, r3, #3
 1867 0008 1840     		ands	r0, r3
 1868 000a 00D0     		beq	.L125
 1869 000c 0120     		movs	r0, #1
 1870              	.L125:
2081:Generated_Source\PSoC4/CapSense.c **** }
 1871              		.loc 1 2081 0 discriminator 4
 1872              		@ sp needed
 1873 000e 7047     		bx	lr
 1874              	.L127:
 1875              		.align	2
 1876              	.L126:
 1877 0010 08000840 		.word	1074266120
 1878              		.cfi_endproc
 1879              	.LFE67:
 1880              		.size	CapSense_GetIDACRange, .-CapSense_GetIDACRange
 1881              		.section	.text.CapSense_SetIDACRange,"ax",%progbits
 1882              		.align	2
 1883              		.global	CapSense_SetIDACRange
 1884              		.code	16
 1885              		.thumb_func
 1886              		.type	CapSense_SetIDACRange, %function
 1887              	CapSense_SetIDACRange:
 1888              	.LFB68:
2082:Generated_Source\PSoC4/CapSense.c **** 
2083:Generated_Source\PSoC4/CapSense.c **** #if (CapSense_TUNING_METHOD != CapSense__TUNING_NONE)
2084:Generated_Source\PSoC4/CapSense.c ****     /*******************************************************************************
2085:Generated_Source\PSoC4/CapSense.c ****     * Function Name: CapSense_SetIDACRange
2086:Generated_Source\PSoC4/CapSense.c ****     ********************************************************************************
2087:Generated_Source\PSoC4/CapSense.c ****     *
2088:Generated_Source\PSoC4/CapSense.c ****     * Summary:
2089:Generated_Source\PSoC4/CapSense.c ****     *  This API sets the IDAC range to the 4x (1.2uA/bit) or 8x (2.4uA/bit) mode.
2090:Generated_Source\PSoC4/CapSense.c ****     *  The IDAC range is common for all the sensors and common for the modulation and
2091:Generated_Source\PSoC4/CapSense.c ****     *  compensation IDACs.
2092:Generated_Source\PSoC4/CapSense.c ****     *
2093:Generated_Source\PSoC4/CapSense.c ****     * Parameters:
2094:Generated_Source\PSoC4/CapSense.c ****     *  iDacRange:  represents value for IDAC range
2095:Generated_Source\PSoC4/CapSense.c ****     *  0 -  IDAC range set to 4x (1.2uA/bit)
2096:Generated_Source\PSoC4/CapSense.c ****     *  1 or >1 - IDAC range set to 8x (2.4uA/bit)
2097:Generated_Source\PSoC4/CapSense.c ****     *
2098:Generated_Source\PSoC4/CapSense.c ****     * Return:
ARM GAS  C:\Users\SHOZO\AppData\Local\Temp\ccvk6Xs5.s 			page 73


2099:Generated_Source\PSoC4/CapSense.c ****     *  None.
2100:Generated_Source\PSoC4/CapSense.c ****     *
2101:Generated_Source\PSoC4/CapSense.c ****     * Global Variables:
2102:Generated_Source\PSoC4/CapSense.c ****     *  None
2103:Generated_Source\PSoC4/CapSense.c ****     *
2104:Generated_Source\PSoC4/CapSense.c ****     * Side Effects:
2105:Generated_Source\PSoC4/CapSense.c ****     *  None
2106:Generated_Source\PSoC4/CapSense.c ****     *
2107:Generated_Source\PSoC4/CapSense.c ****     *******************************************************************************/
2108:Generated_Source\PSoC4/CapSense.c ****     void CapSense_SetIDACRange(uint32 iDacRange)
2109:Generated_Source\PSoC4/CapSense.c ****     {
 1889              		.loc 1 2109 0
 1890              		.cfi_startproc
 1891              		@ args = 0, pretend = 0, frame = 0
 1892              		@ frame_needed = 0, uses_anonymous_args = 0
 1893              		@ link register save eliminated.
 1894              	.LVL215:
2110:Generated_Source\PSoC4/CapSense.c ****         if(iDacRange != 0u)
 1895              		.loc 1 2110 0
 1896 0000 0028     		cmp	r0, #0
 1897 0002 05D0     		beq	.L129
2111:Generated_Source\PSoC4/CapSense.c ****         {
2112:Generated_Source\PSoC4/CapSense.c ****             /*  IDAC range = 8x (2.4uA/bit) */
2113:Generated_Source\PSoC4/CapSense.c ****             CapSense_CSD_IDAC_REG |= (CapSense_CSD_IDAC1_RANGE_8X |\
 1898              		.loc 1 2113 0
 1899 0004 054A     		ldr	r2, .L131
 1900 0006 1368     		ldr	r3, [r2]
 1901 0008 0549     		ldr	r1, .L131+4
 1902 000a 0B43     		orrs	r3, r1
 1903 000c 1360     		str	r3, [r2]
 1904 000e 04E0     		b	.L128
 1905              	.L129:
2114:Generated_Source\PSoC4/CapSense.c ****                                               CapSense_CSD_IDAC2_RANGE_8X);
2115:Generated_Source\PSoC4/CapSense.c ****         }
2116:Generated_Source\PSoC4/CapSense.c ****         else
2117:Generated_Source\PSoC4/CapSense.c ****         {
2118:Generated_Source\PSoC4/CapSense.c ****             /*  IDAC range = 4x (1.2uA/bit) */
2119:Generated_Source\PSoC4/CapSense.c ****             /*  IDAC range = 8x (2.4uA/bit) */
2120:Generated_Source\PSoC4/CapSense.c ****             CapSense_CSD_IDAC_REG &= ~(CapSense_CSD_IDAC1_RANGE_8X |\
 1906              		.loc 1 2120 0
 1907 0010 024A     		ldr	r2, .L131
 1908 0012 1168     		ldr	r1, [r2]
 1909 0014 034B     		ldr	r3, .L131+8
 1910 0016 0B40     		ands	r3, r1
 1911 0018 1360     		str	r3, [r2]
 1912              	.L128:
2121:Generated_Source\PSoC4/CapSense.c ****                                                CapSense_CSD_IDAC2_RANGE_8X);
2122:Generated_Source\PSoC4/CapSense.c ****         }
2123:Generated_Source\PSoC4/CapSense.c ****     }
 1913              		.loc 1 2123 0
 1914              		@ sp needed
 1915 001a 7047     		bx	lr
 1916              	.L132:
