ARM GAS  C:\Users\SHOZO\AppData\Local\Temp\cc7Haujt.s 			page 1


   1              		.syntax unified
   2              		.cpu cortex-m0
   3              		.fpu softvfp
   4              		.eabi_attribute 20, 1
   5              		.eabi_attribute 21, 1
   6              		.eabi_attribute 23, 3
   7              		.eabi_attribute 24, 1
   8              		.eabi_attribute 25, 1
   9              		.eabi_attribute 26, 1
  10              		.eabi_attribute 30, 1
  11              		.eabi_attribute 34, 0
  12              		.eabi_attribute 18, 4
  13              		.thumb
  14              		.syntax unified
  15              		.file	"main.c"
  16              		.text
  17              	.Ltext0:
  18              		.cfi_sections	.debug_frame
  19              		.global	__aeabi_f2d
  20              		.global	__aeabi_dmul
  21              		.global	__aeabi_i2d
  22              		.global	__aeabi_ddiv
  23              		.global	__aeabi_d2f
  24              		.global	__aeabi_dadd
  25              		.section	.text.main,"ax",%progbits
  26              		.align	2
  27              		.global	main
  28              		.code	16
  29              		.thumb_func
  30              		.type	main, %function
  31              	main:
  32              	.LFB32:
  33              		.file 1 "main.c"
   1:main.c        **** /* ========================================
   2:main.c        ****  *
   3:main.c        ****  * Copyright YOUR COMPANY, THE YEAR
   4:main.c        ****  * All Rights Reserved
   5:main.c        ****  * UNPUBLISHED, LICENSED SOFTWARE.
   6:main.c        ****  *
   7:main.c        ****  * CONFIDENTIAL AND PROPRIETARY INFORMATION
   8:main.c        ****  * WHICH IS THE PROPERTY OF your company.
   9:main.c        ****  *
  10:main.c        ****  * ========================================
  11:main.c        **** */
  12:main.c        **** #include <project.h>
  13:main.c        **** 
  14:main.c        **** 
  15:main.c        **** //#define NO_FINGER 0xFFFFu
  16:main.c        **** //#define SLIDER_RESOLUTION 100
  17:main.c        **** 
  18:main.c        **** //int status;
  19:main.c        **** int bright;
  20:main.c        **** int slider_pos = 0;
  21:main.c        **** 
  22:main.c        **** int preCnt;
  23:main.c        **** int	current_sensor;	
  24:main.c        **** int prev_sensor;
ARM GAS  C:\Users\SHOZO\AppData\Local\Temp\cc7Haujt.s 			page 2


  25:main.c        **** int	prev_sound;
  26:main.c        **** int	slider_start_pos;
  27:main.c        **** 
  28:main.c        **** float average;
  29:main.c        ****     
  30:main.c        **** //PROTOTYPE
  31:main.c        **** 
  32:main.c        **** int main()
  33:main.c        **** {
  34              		.loc 1 33 0
  35              		.cfi_startproc
  36              		@ Volatile: function does not return.
  37              		@ args = 0, pretend = 0, frame = 8
  38              		@ frame_needed = 0, uses_anonymous_args = 0
  39 0000 70B5     		push	{r4, r5, r6, lr}
  40              		.cfi_def_cfa_offset 16
  41              		.cfi_offset 4, -16
  42              		.cfi_offset 5, -12
  43              		.cfi_offset 6, -8
  44              		.cfi_offset 14, -4
  45 0002 82B0     		sub	sp, sp, #8
  46              		.cfi_def_cfa_offset 24
  34:main.c        **** 
  35:main.c        ****     
  36:main.c        ****     CyGlobalIntEnable;      /* Enable global interrupts */
  47              		.loc 1 36 0
  48              		.syntax divided
  49              	@ 36 "main.c" 1
  50 0004 62B6     		CPSIE   i
  51              	@ 0 "" 2
  37:main.c        ****     CapSense_Start();	
  52              		.loc 1 37 0
  53              		.thumb
  54              		.syntax unified
  55 0006 FFF7FEFF 		bl	CapSense_Start
  56              	.LVL0:
  38:main.c        ****     UART_1_Start();
  57              		.loc 1 38 0
  58 000a FFF7FEFF 		bl	UART_1_Start
  59              	.LVL1:
  39:main.c        ****     LED_CONTROL_Start();
  60              		.loc 1 39 0
  61 000e FFF7FEFF 		bl	LED_CONTROL_Start
  62              	.LVL2:
  40:main.c        ****     /* Initialize baselines */ 
  41:main.c        ****     CapSense_InitializeAllBaselines();
  63              		.loc 1 41 0
  64 0012 FFF7FEFF 		bl	CapSense_InitializeAllBaselines
  65              	.LVL3:
  66              	.L6:
  42:main.c        ****     /* Place your initialization/startup code here (e.g. MyInst_Start()) */
  43:main.c        **** 
  44:main.c        **** 
  45:main.c        ****     
  46:main.c        ****     for(;;)
  47:main.c        ****     {
  48:main.c        ****         /* Update all baselines */
ARM GAS  C:\Users\SHOZO\AppData\Local\Temp\cc7Haujt.s 			page 3


  49:main.c        ****         CapSense_UpdateEnabledBaselines();
  67              		.loc 1 49 0
  68 0016 FFF7FEFF 		bl	CapSense_UpdateEnabledBaselines
  69              	.LVL4:
  50:main.c        ****         
  51:main.c        ****    		/* Start scanning all enabled sensors */
  52:main.c        ****     	CapSense_ScanEnabledWidgets();
  70              		.loc 1 52 0
  71 001a FFF7FEFF 		bl	CapSense_ScanEnabledWidgets
  72              	.LVL5:
  73              	.L2:
  53:main.c        ****         
  54:main.c        ****         /* Place your application code here */
  55:main.c        ****         while(CapSense_IsBusy() != 0);
  74              		.loc 1 55 0 discriminator 1
  75 001e FFF7FEFF 		bl	CapSense_IsBusy
  76              	.LVL6:
  77 0022 0028     		cmp	r0, #0
  78 0024 FBD1     		bne	.L2
  56:main.c        **** 		
  57:main.c        **** 		/* Loop until condition true */
  58:main.c        **** 		current_sensor = CapSense_GetCentroidPos(0);
  79              		.loc 1 58 0
  80 0026 FFF7FEFF 		bl	CapSense_GetCentroidPos
  81              	.LVL7:
  82 002a 0400     		movs	r4, r0
  83 002c 2A4B     		ldr	r3, .L8
  84 002e 1860     		str	r0, [r3]
  59:main.c        ****         average = average*(9.0/10.0) + (float)(current_sensor/10.0);
  85              		.loc 1 59 0
  86 0030 2A4D     		ldr	r5, .L8+4
  87 0032 2868     		ldr	r0, [r5]
  88 0034 FFF7FEFF 		bl	__aeabi_f2d
  89              	.LVL8:
  90 0038 294A     		ldr	r2, .L8+8
  91 003a 2A4B     		ldr	r3, .L8+12
  92 003c FFF7FEFF 		bl	__aeabi_dmul
  93              	.LVL9:
  94 0040 0090     		str	r0, [sp]
  95 0042 0191     		str	r1, [sp, #4]
  96 0044 2000     		movs	r0, r4
  97 0046 FFF7FEFF 		bl	__aeabi_i2d
  98              	.LVL10:
  99 004a 0022     		movs	r2, #0
 100 004c 264B     		ldr	r3, .L8+16
 101 004e FFF7FEFF 		bl	__aeabi_ddiv
 102              	.LVL11:
 103 0052 FFF7FEFF 		bl	__aeabi_d2f
 104              	.LVL12:
 105 0056 FFF7FEFF 		bl	__aeabi_f2d
 106              	.LVL13:
 107 005a 009A     		ldr	r2, [sp]
 108 005c 019B     		ldr	r3, [sp, #4]
 109 005e FFF7FEFF 		bl	__aeabi_dadd
 110              	.LVL14:
 111 0062 FFF7FEFF 		bl	__aeabi_d2f
 112              	.LVL15:
ARM GAS  C:\Users\SHOZO\AppData\Local\Temp\cc7Haujt.s 			page 4


 113 0066 2860     		str	r0, [r5]
  60:main.c        ****         
  61:main.c        **** 		if(prev_sensor == 0xFF){
 114              		.loc 1 61 0
 115 0068 204B     		ldr	r3, .L8+20
 116 006a 1B68     		ldr	r3, [r3]
 117 006c FF2B     		cmp	r3, #255
 118 006e 08D1     		bne	.L3
  62:main.c        **** 
  63:main.c        **** 			slider_start_pos=(int)current_sensor;
 119              		.loc 1 63 0
 120 0070 1F4B     		ldr	r3, .L8+24
 121 0072 1C60     		str	r4, [r3]
  64:main.c        ****             bright=0;
 122              		.loc 1 64 0
 123 0074 0022     		movs	r2, #0
 124 0076 1F4B     		ldr	r3, .L8+28
 125 0078 1A60     		str	r2, [r3]
  65:main.c        **** 			UART_1_UartPutChar((slider_start_pos)+1);
 126              		.loc 1 65 0
 127 007a 601C     		adds	r0, r4, #1
 128 007c FFF7FEFF 		bl	UART_1_SpiUartWriteTxData
 129              	.LVL16:
 130 0080 15E0     		b	.L4
 131              	.L3:
  66:main.c        **** 
  67:main.c        **** 
  68:main.c        **** 		}else {
  69:main.c        **** 
  70:main.c        **** 			if(current_sensor==0xFF){
 132              		.loc 1 70 0
 133 0082 FF2C     		cmp	r4, #255
 134 0084 06D1     		bne	.L5
  71:main.c        ****                 UART_1_UartPutChar(0);
 135              		.loc 1 71 0
 136 0086 0020     		movs	r0, #0
 137 0088 FFF7FEFF 		bl	UART_1_SpiUartWriteTxData
 138              	.LVL17:
  72:main.c        **** 				slider_pos = 0;
 139              		.loc 1 72 0
 140 008c 0022     		movs	r2, #0
 141 008e 1A4B     		ldr	r3, .L8+32
 142 0090 1A60     		str	r2, [r3]
 143 0092 0CE0     		b	.L4
 144              	.L5:
  73:main.c        **** 			}else{
  74:main.c        **** 				if(current_sensor!=prev_sensor){
 145              		.loc 1 74 0
 146 0094 9C42     		cmp	r4, r3
 147 0096 0AD0     		beq	.L4
  75:main.c        **** 					bright=0;
 148              		.loc 1 75 0
 149 0098 0022     		movs	r2, #0
 150 009a 164B     		ldr	r3, .L8+28
 151 009c 1A60     		str	r2, [r3]
  76:main.c        **** 					UART_1_UartPutChar((int)(current_sensor)+1);
 152              		.loc 1 76 0
ARM GAS  C:\Users\SHOZO\AppData\Local\Temp\cc7Haujt.s 			page 5


 153 009e 601C     		adds	r0, r4, #1
 154 00a0 FFF7FEFF 		bl	UART_1_SpiUartWriteTxData
 155              	.LVL18:
  77:main.c        **** 					slider_pos = (int)current_sensor+1;
 156              		.loc 1 77 0
 157 00a4 0C4B     		ldr	r3, .L8
 158 00a6 1B68     		ldr	r3, [r3]
 159 00a8 0133     		adds	r3, r3, #1
 160 00aa 134A     		ldr	r2, .L8+32
 161 00ac 1360     		str	r3, [r2]
 162              	.L4:
  78:main.c        **** 				}
  79:main.c        **** 			}
  80:main.c        **** 		}   	
  81:main.c        ****     	prev_sensor = current_sensor;
 163              		.loc 1 81 0
 164 00ae 0A4B     		ldr	r3, .L8
 165 00b0 1A68     		ldr	r2, [r3]
 166 00b2 0E4B     		ldr	r3, .L8+20
 167 00b4 1A60     		str	r2, [r3]
  82:main.c        **** 
  83:main.c        ****     
  84:main.c        ****         LED_CONTROL_WriteCompare(65535-(uint32)bright);
 168              		.loc 1 84 0
 169 00b6 0F4C     		ldr	r4, .L8+28
 170 00b8 104D     		ldr	r5, .L8+36
 171 00ba 2368     		ldr	r3, [r4]
 172 00bc E81A     		subs	r0, r5, r3
 173 00be FFF7FEFF 		bl	LED_CONTROL_WriteCompare
 174              	.LVL19:
  85:main.c        ****         bright+=1000;
 175              		.loc 1 85 0
 176 00c2 2368     		ldr	r3, [r4]
 177 00c4 FA22     		movs	r2, #250
 178 00c6 9200     		lsls	r2, r2, #2
 179 00c8 9446     		mov	ip, r2
 180 00ca 6344     		add	r3, r3, ip
 181 00cc 2360     		str	r3, [r4]
  86:main.c        ****         if(bright>65535)bright=65535;
 182              		.loc 1 86 0
 183 00ce AB42     		cmp	r3, r5
 184 00d0 A1DD     		ble	.L6
 185              		.loc 1 86 0 is_stmt 0 discriminator 1
 186 00d2 084B     		ldr	r3, .L8+28
 187 00d4 1D60     		str	r5, [r3]
 188 00d6 9EE7     		b	.L6
 189              	.L9:
 190              		.align	2
 191              	.L8:
 192 00d8 00000000 		.word	current_sensor
 193 00dc 00000000 		.word	average
 194 00e0 CDCCCCCC 		.word	-858993459
 195 00e4 CCCCEC3F 		.word	1072483532
 196 00e8 00002440 		.word	1076101120
 197 00ec 00000000 		.word	prev_sensor
 198 00f0 00000000 		.word	slider_start_pos
 199 00f4 00000000 		.word	bright
ARM GAS  C:\Users\SHOZO\AppData\Local\Temp\cc7Haujt.s 			page 6


 200 00f8 00000000 		.word	.LANCHOR0
 201 00fc FFFF0000 		.word	65535
 202              		.cfi_endproc
 203              	.LFE32:
 204              		.size	main, .-main
 205              		.comm	average,4,4
 206              		.comm	slider_start_pos,4,4
 207              		.comm	prev_sound,4,4
 208              		.comm	prev_sensor,4,4
 209              		.comm	current_sensor,4,4
 210              		.comm	preCnt,4,4
 211              		.global	slider_pos
 212              		.comm	bright,4,4
 213              		.bss
 214              		.align	2
 215              		.set	.LANCHOR0,. + 0
 216              		.type	slider_pos, %object
 217              		.size	slider_pos, 4
 218              	slider_pos:
 219 0000 00000000 		.space	4
 220              		.text
 221              	.Letext0:
 222              		.file 2 "Generated_Source\\PSoC4/CapSense.h"
 223              		.file 3 "Generated_Source\\PSoC4/UART_1.h"
 224              		.file 4 "Generated_Source\\PSoC4/LED_CONTROL.h"
 225              		.file 5 "Generated_Source\\PSoC4/CapSense_CSHL.h"
 226              		.file 6 "Generated_Source\\PSoC4/UART_1_SPI_UART.h"
 227              		.file 7 "Generated_Source\\PSoC4/cytypes.h"